###############################################################################
#                                                                             #
# IAR C/C++ Compiler V8.10.1.10194/W32 for 8051         04/Mar/2020  00:03:17 #
# Copyright 2004-2011 IAR Systems AB.                                         #
#                                                                             #
#    Core               =  plain                                              #
#    Code model         =  banked                                             #
#    Data model         =  large                                              #
#    Calling convention =  xdata reentrant                                    #
#    Constant location  =  data_rom                                           #
#    Dptr setup         =  1,16                                               #
#    Source file        =  C:\Texas Instruments\ZStack-CC2530-2.5.1a\Projects #
#                          \zstack\Samples\Diplomaproject\Source\ledDevice.c  #
#    Command line       =  -f "C:\Texas Instruments\ZStack-CC2530-2.5.1a\Proj #
#                          ects\zstack\Samples\Diplomaproject\CC2530DB\..\..\ #
#                          ..\Tools\CC2530DB\f8wEndev.cfg" (-DCPU32MHZ        #
#                          -DROOT=__near_func -DMAC_CFG_TX_DATA_MAX=3         #
#                          -DMAC_CFG_TX_MAX=6 -DMAC_CFG_RX_MAX=3) -f          #
#                          "C:\Texas Instruments\ZStack-CC2530-2.5.1a\Project #
#                          s\zstack\Samples\Diplomaproject\CC2530DB\..\..\..\ #
#                          Tools\CC2530DB\f8wConfig.cfg" (-DZIGBEEPRO         #
#                          -DSECURE=0 -DZG_SECURE_DYNAMIC=0 -DREFLECTOR       #
#                          "-DDEFAULT_CHANLIST=(0xFFFF<<11)"                  #
#                          -DZDAPP_CONFIG_PAN_ID=0x57a                        #
#                          -DNWK_START_DELAY=0x57a -DEXTENDED_JOINING_RANDOM_ #
#                          MASK=0x007F -DBEACON_REQUEST_DELAY=100             #
#                          -DBEACON_REQ_DELAY_MASK=0x00FF                     #
#                          -DLINK_STATUS_JITTER_MASK=0x007F                   #
#                          -DROUTE_EXPIRY_TIME=30 -DAPSC_ACK_WAIT_DURATION_PO #
#                          LLED=3000 -DNWK_INDIRECT_MSG_TIMEOUT=7             #
#                          -DMAX_RREQ_ENTRIES=8 -DAPSC_MAX_FRAME_RETRIES=3    #
#                          -DNWK_MAX_DATA_RETRIES=2                           #
#                          -DMAX_POLL_FAILURE_RETRIES=2 -DMAX_BCAST=9         #
#                          -DAPS_MAX_GROUPS=16 -DMAX_RTG_ENTRIES=40           #
#                          -DNWK_MAX_BINDING_ENTRIES=4                        #
#                          -DMAX_BINDING_CLUSTER_IDS=4 "-DDEFAULT_KEY={0x01,  #
#                          0x03, 0x05, 0x07, 0x09, 0x0B, 0x0D, 0x0F, 0x00,    #
#                          0x02, 0x04, 0x06, 0x08, 0x0A, 0x0C, 0x0D}"         #
#                          -DMAC_MAX_FRAME_SIZE=116                           #
#                          -DZDNWKMGR_MIN_TRANSMISSIONS=20 "-DCONST=const     #
#                          __code" -DGENERIC=__generic                        #
#                          -DRFD_RCVC_ALWAYS_ON=FALSE -DPOLL_RATE=1000        #
#                          -DQUEUED_POLL_RATE=100 -DRESPONSE_POLL_RATE=100)   #
#                          -DREJOIN_POLL_RATE=440 "C:\Texas                   #
#                          Instruments\ZStack-CC2530-2.5.1a\Projects\zstack\S #
#                          amples\Diplomaproject\Source\ledDevice.c" -D       #
#                          NWK_AUTO_POLL -D ZTOOL_P1 -D                       #
#                          RFD_RCVC_ALWAYS_ON=TRUE -D xMT_TASK -D             #
#                          xMT_SYS_FUNC -D MT_ZDO_FUNC -D                     #
#                          xLCD_SUPPORTED=DEBUG -D xPOWER_SAVING -lC          #
#                          "C:\Texas Instruments\ZStack-CC2530-2.5.1a\Project #
#                          s\zstack\Samples\Diplomaproject\CC2530DB\LedDevice #
#                          \List\" -lA "C:\Texas Instruments\ZStack-CC2530-2. #
#                          5.1a\Projects\zstack\Samples\Diplomaproject\CC2530 #
#                          DB\LedDevice\List\" --diag_suppress Pe001,Pa010    #
#                          -o "C:\Texas Instruments\ZStack-CC2530-2.5.1a\Proj #
#                          ects\zstack\Samples\Diplomaproject\CC2530DB\LedDev #
#                          ice\Obj\" -e --no_code_motion --debug              #
#                          --core=plain --dptr=16,1 --data_model=large        #
#                          --code_model=banked --calling_convention=xdata_ree #
#                          ntrant --place_constants=data_rom                  #
#                          --nr_virtual_regs 16 -I "C:\Texas                  #
#                          Instruments\ZStack-CC2530-2.5.1a\Projects\zstack\S #
#                          amples\Diplomaproject\CC2530DB\" -I "C:\Texas      #
#                          Instruments\ZStack-CC2530-2.5.1a\Projects\zstack\S #
#                          amples\Diplomaproject\CC2530DB\..\Source\" -I      #
#                          "C:\Texas Instruments\ZStack-CC2530-2.5.1a\Project #
#                          s\zstack\Samples\Diplomaproject\CC2530DB\..\..\..\ #
#                          ZMain\TI2530DB\" -I "C:\Texas                      #
#                          Instruments\ZStack-CC2530-2.5.1a\Projects\zstack\S #
#                          amples\Diplomaproject\CC2530DB\..\..\..\..\..\Comp #
#                          onents\hal\include\" -I "C:\Texas                  #
#                          Instruments\ZStack-CC2530-2.5.1a\Projects\zstack\S #
#                          amples\Diplomaproject\CC2530DB\..\..\..\..\..\Comp #
#                          onents\hal\target\CC2530EB\" -I "C:\Texas          #
#                          Instruments\ZStack-CC2530-2.5.1a\Projects\zstack\S #
#                          amples\Diplomaproject\CC2530DB\..\..\..\..\..\Comp #
#                          onents\mac\include\" -I "C:\Texas                  #
#                          Instruments\ZStack-CC2530-2.5.1a\Projects\zstack\S #
#                          amples\Diplomaproject\CC2530DB\..\..\..\..\..\Comp #
#                          onents\mac\high_level\" -I "C:\Texas               #
#                          Instruments\ZStack-CC2530-2.5.1a\Projects\zstack\S #
#                          amples\Diplomaproject\CC2530DB\..\..\..\..\..\Comp #
#                          onents\mac\low_level\srf04\" -I "C:\Texas          #
#                          Instruments\ZStack-CC2530-2.5.1a\Projects\zstack\S #
#                          amples\Diplomaproject\CC2530DB\..\..\..\..\..\Comp #
#                          onents\mac\low_level\srf04\single_chip\" -I        #
#                          "C:\Texas Instruments\ZStack-CC2530-2.5.1a\Project #
#                          s\zstack\Samples\Diplomaproject\CC2530DB\..\..\..\ #
#                          ..\..\Components\mt\" -I "C:\Texas                 #
#                          Instruments\ZStack-CC2530-2.5.1a\Projects\zstack\S #
#                          amples\Diplomaproject\CC2530DB\..\..\..\..\..\Comp #
#                          onents\osal\include\" -I "C:\Texas                 #
#                          Instruments\ZStack-CC2530-2.5.1a\Projects\zstack\S #
#                          amples\Diplomaproject\CC2530DB\..\..\..\..\..\Comp #
#                          onents\services\saddr\" -I "C:\Texas               #
#                          Instruments\ZStack-CC2530-2.5.1a\Projects\zstack\S #
#                          amples\Diplomaproject\CC2530DB\..\..\..\..\..\Comp #
#                          onents\services\sdata\" -I "C:\Texas               #
#                          Instruments\ZStack-CC2530-2.5.1a\Projects\zstack\S #
#                          amples\Diplomaproject\CC2530DB\..\..\..\..\..\Comp #
#                          onents\stack\af\" -I "C:\Texas                     #
#                          Instruments\ZStack-CC2530-2.5.1a\Projects\zstack\S #
#                          amples\Diplomaproject\CC2530DB\..\..\..\..\..\Comp #
#                          onents\stack\nwk\" -I "C:\Texas                    #
#                          Instruments\ZStack-CC2530-2.5.1a\Projects\zstack\S #
#                          amples\Diplomaproject\CC2530DB\..\..\..\..\..\Comp #
#                          onents\stack\sapi\" -I "C:\Texas                   #
#                          Instruments\ZStack-CC2530-2.5.1a\Projects\zstack\S #
#                          amples\Diplomaproject\CC2530DB\..\..\..\..\..\Comp #
#                          onents\stack\sec\" -I "C:\Texas                    #
#                          Instruments\ZStack-CC2530-2.5.1a\Projects\zstack\S #
#                          amples\Diplomaproject\CC2530DB\..\..\..\..\..\Comp #
#                          onents\stack\sys\" -I "C:\Texas                    #
#                          Instruments\ZStack-CC2530-2.5.1a\Projects\zstack\S #
#                          amples\Diplomaproject\CC2530DB\..\..\..\..\..\Comp #
#                          onents\stack\zdo\" -I "C:\Texas                    #
#                          Instruments\ZStack-CC2530-2.5.1a\Projects\zstack\S #
#                          amples\Diplomaproject\CC2530DB\..\..\..\..\..\Comp #
#                          onents\zmac\" -I "C:\Texas                         #
#                          Instruments\ZStack-CC2530-2.5.1a\Projects\zstack\S #
#                          amples\Diplomaproject\CC2530DB\..\..\..\..\..\Comp #
#                          onents\zmac\f8w\" -Ohz                             #
#    List file          =  C:\Texas Instruments\ZStack-CC2530-2.5.1a\Projects #
#                          \zstack\Samples\Diplomaproject\CC2530DB\LedDevice\ #
#                          List\ledDevice.lst                                 #
#    Object file        =  C:\Texas Instruments\ZStack-CC2530-2.5.1a\Projects #
#                          \zstack\Samples\Diplomaproject\CC2530DB\LedDevice\ #
#                          Obj\ledDevice.r51                                  #
#                                                                             #
#                                                                             #
###############################################################################

C:\Texas Instruments\ZStack-CC2530-2.5.1a\Projects\zstack\Samples\Diplomaproject\Source\ledDevice.c
      1          #include "smartHome.h"
      2          #include "sapi.h"
      3          #include "hal_led.h"

   \                                 In  segment SFR_AN, at 0x80
   \   union <unnamed> volatile __sfr _A_P0
   \                     _A_P0:
   \   000000                DS 1

   \                                 In  segment SFR_AN, at 0x90
   \   union <unnamed> volatile __sfr _A_P1
   \                     _A_P1:
   \   000000                DS 1

   \                                 In  segment SFR_AN, at 0xf3
   \   unsigned char volatile __sfr P0SEL
   \                     P0SEL:
   \   000000                DS 1

   \                                 In  segment SFR_AN, at 0xf4
   \   unsigned char volatile __sfr P1SEL
   \                     P1SEL:
   \   000000                DS 1

   \                                 In  segment SFR_AN, at 0xfd
   \   unsigned char volatile __sfr P0DIR
   \                     P0DIR:
   \   000000                DS 1

   \                                 In  segment SFR_AN, at 0xfe
   \   unsigned char volatile __sfr P1DIR
   \                     P1DIR:
   \   000000                DS 1
      4          #include "adc.h"
      5          #include "IC.h"
      6          #include "LCD.h"

   \                                 In  segment XDATA_I, align 1, keep-with-next
   \   unsigned char F16x16[416]
   \                     F16x16:
   \   000000                DS 416
   \   0001A0                REQUIRE `?<Initializer for F16x16>`
   \   0001A0                REQUIRE __INIT_XDATA_I

   \                                 In  segment XDATA_ROM_C, align 1
   \   unsigned char const __xdata_rom F6x8[92][6]
   \                     F6x8:
   \   000000   00           DB 0
   \   000001   00           DB 0
   \   000002   00           DB 0
   \   000003   00           DB 0
   \   000004   00           DB 0
   \   000005   00           DB 0
   \   000006   00           DB 0
   \   000007   00           DB 0
   \   000008   00           DB 0
   \   000009   2F           DB 47
   \   00000A   00           DB 0
   \   00000B   00           DB 0
   \   00000C   00           DB 0
   \   00000D   00           DB 0
   \   00000E   07           DB 7
   \   00000F   00           DB 0
   \   000010   07           DB 7
   \   000011   00           DB 0
   \   000012   00           DB 0
   \   000013   14           DB 20
   \   000014   7F           DB 127
   \   000015   14           DB 20
   \   000016   7F           DB 127
   \   000017   14           DB 20
   \   000018   00           DB 0
   \   000019   24           DB 36
   \   00001A   2A           DB 42
   \   00001B   7F           DB 127
   \   00001C   2A           DB 42
   \   00001D   12           DB 18
   \   00001E   00           DB 0
   \   00001F   62           DB 98
   \   000020   64           DB 100
   \   000021   08           DB 8
   \   000022   13           DB 19
   \   000023   23           DB 35
   \   000024   00           DB 0
   \   000025   36           DB 54
   \   000026   49           DB 73
   \   000027   55           DB 85
   \   000028   22           DB 34
   \   000029   50           DB 80
   \   00002A   00           DB 0
   \   00002B   00           DB 0
   \   00002C   05           DB 5
   \   00002D   03           DB 3
   \   00002E   00           DB 0
   \   00002F   00           DB 0
   \   000030   00           DB 0
   \   000031   00           DB 0
   \   000032   1C           DB 28
   \   000033   22           DB 34
   \   000034   41           DB 65
   \   000035   00           DB 0
   \   000036   00           DB 0
   \   000037   00           DB 0
   \   000038   41           DB 65
   \   000039   22           DB 34
   \   00003A   1C           DB 28
   \   00003B   00           DB 0
   \   00003C   00           DB 0
   \   00003D   14           DB 20
   \   00003E   08           DB 8
   \   00003F   3E           DB 62
   \   000040   08           DB 8
   \   000041   14           DB 20
   \   000042   00           DB 0
   \   000043   08           DB 8
   \   000044   08           DB 8
   \   000045   3E           DB 62
   \   000046   08           DB 8
   \   000047   08           DB 8
   \   000048   00           DB 0
   \   000049   00           DB 0
   \   00004A   00           DB 0
   \   00004B   A0           DB 160
   \   00004C   60           DB 96
   \   00004D   00           DB 0
   \   00004E   00           DB 0
   \   00004F   08           DB 8
   \   000050   08           DB 8
   \   000051   08           DB 8
   \   000052   08           DB 8
   \   000053   08           DB 8
   \   000054   00           DB 0
   \   000055   00           DB 0
   \   000056   60           DB 96
   \   000057   60           DB 96
   \   000058   00           DB 0
   \   000059   00           DB 0
   \   00005A   00           DB 0
   \   00005B   20           DB 32
   \   00005C   10           DB 16
   \   00005D   08           DB 8
   \   00005E   04           DB 4
   \   00005F   02           DB 2
   \   000060   00           DB 0
   \   000061   3E           DB 62
   \   000062   51           DB 81
   \   000063   49           DB 73
   \   000064   45           DB 69
   \   000065   3E           DB 62
   \   000066   00           DB 0
   \   000067   00           DB 0
   \   000068   42           DB 66
   \   000069   7F           DB 127
   \   00006A   40           DB 64
   \   00006B   00           DB 0
   \   00006C   00           DB 0
   \   00006D   42           DB 66
   \   00006E   61           DB 97
   \   00006F   51           DB 81
   \   000070   49           DB 73
   \   000071   46           DB 70
   \   000072   00           DB 0
   \   000073   21           DB 33
   \   000074   41           DB 65
   \   000075   45           DB 69
   \   000076   4B           DB 75
   \   000077   31           DB 49
   \   000078   00           DB 0
   \   000079   18           DB 24
   \   00007A   14           DB 20
   \   00007B   12           DB 18
   \   00007C   7F           DB 127
   \   00007D   10           DB 16
   \   00007E   00           DB 0
   \   00007F   27           DB 39
   \   000080   45           DB 69
   \   000081   45           DB 69
   \   000082   45           DB 69
   \   000083   39           DB 57
   \   000084   00           DB 0
   \   000085   3C           DB 60
   \   000086   4A           DB 74
   \   000087   49           DB 73
   \   000088   49           DB 73
   \   000089   30           DB 48
   \   00008A   00           DB 0
   \   00008B   01           DB 1
   \   00008C   71           DB 113
   \   00008D   09           DB 9
   \   00008E   05           DB 5
   \   00008F   03           DB 3
   \   000090   00           DB 0
   \   000091   36           DB 54
   \   000092   49           DB 73
   \   000093   49           DB 73
   \   000094   49           DB 73
   \   000095   36           DB 54
   \   000096   00           DB 0
   \   000097   06           DB 6
   \   000098   49           DB 73
   \   000099   49           DB 73
   \   00009A   29           DB 41
   \   00009B   1E           DB 30
   \   00009C   00           DB 0
   \   00009D   00           DB 0
   \   00009E   36           DB 54
   \   00009F   36           DB 54
   \   0000A0   00           DB 0
   \   0000A1   00           DB 0
   \   0000A2   00           DB 0
   \   0000A3   00           DB 0
   \   0000A4   56           DB 86
   \   0000A5   36           DB 54
   \   0000A6   00           DB 0
   \   0000A7   00           DB 0
   \   0000A8   00           DB 0
   \   0000A9   08           DB 8
   \   0000AA   14           DB 20
   \   0000AB   22           DB 34
   \   0000AC   41           DB 65
   \   0000AD   00           DB 0
   \   0000AE   00           DB 0
   \   0000AF   14           DB 20
   \   0000B0   14           DB 20
   \   0000B1   14           DB 20
   \   0000B2   14           DB 20
   \   0000B3   14           DB 20
   \   0000B4   00           DB 0
   \   0000B5   00           DB 0
   \   0000B6   41           DB 65
   \   0000B7   22           DB 34
   \   0000B8   14           DB 20
   \   0000B9   08           DB 8
   \   0000BA   00           DB 0
   \   0000BB   02           DB 2
   \   0000BC   01           DB 1
   \   0000BD   51           DB 81
   \   0000BE   09           DB 9
   \   0000BF   06           DB 6
   \   0000C0   00           DB 0
   \   0000C1   32           DB 50
   \   0000C2   49           DB 73
   \   0000C3   59           DB 89
   \   0000C4   51           DB 81
   \   0000C5   3E           DB 62
   \   0000C6   00           DB 0
   \   0000C7   7C           DB 124
   \   0000C8   12           DB 18
   \   0000C9   11           DB 17
   \   0000CA   12           DB 18
   \   0000CB   7C           DB 124
   \   0000CC   00           DB 0
   \   0000CD   7F           DB 127
   \   0000CE   49           DB 73
   \   0000CF   49           DB 73
   \   0000D0   49           DB 73
   \   0000D1   36           DB 54
   \   0000D2   00           DB 0
   \   0000D3   3E           DB 62
   \   0000D4   41           DB 65
   \   0000D5   41           DB 65
   \   0000D6   41           DB 65
   \   0000D7   22           DB 34
   \   0000D8   00           DB 0
   \   0000D9   7F           DB 127
   \   0000DA   41           DB 65
   \   0000DB   41           DB 65
   \   0000DC   22           DB 34
   \   0000DD   1C           DB 28
   \   0000DE   00           DB 0
   \   0000DF   7F           DB 127
   \   0000E0   49           DB 73
   \   0000E1   49           DB 73
   \   0000E2   49           DB 73
   \   0000E3   41           DB 65
   \   0000E4   00           DB 0
   \   0000E5   7F           DB 127
   \   0000E6   09           DB 9
   \   0000E7   09           DB 9
   \   0000E8   09           DB 9
   \   0000E9   01           DB 1
   \   0000EA   00           DB 0
   \   0000EB   3E           DB 62
   \   0000EC   41           DB 65
   \   0000ED   49           DB 73
   \   0000EE   49           DB 73
   \   0000EF   7A           DB 122
   \   0000F0   00           DB 0
   \   0000F1   7F           DB 127
   \   0000F2   08           DB 8
   \   0000F3   08           DB 8
   \   0000F4   08           DB 8
   \   0000F5   7F           DB 127
   \   0000F6   00           DB 0
   \   0000F7   00           DB 0
   \   0000F8   41           DB 65
   \   0000F9   7F           DB 127
   \   0000FA   41           DB 65
   \   0000FB   00           DB 0
   \   0000FC   00           DB 0
   \   0000FD   20           DB 32
   \   0000FE   40           DB 64
   \   0000FF   41           DB 65
   \   000100   3F           DB 63
   \   000101   01           DB 1
   \   000102   00           DB 0
   \   000103   7F           DB 127
   \   000104   08           DB 8
   \   000105   14           DB 20
   \   000106   22           DB 34
   \   000107   41           DB 65
   \   000108   00           DB 0
   \   000109   7F           DB 127
   \   00010A   40           DB 64
   \   00010B   40           DB 64
   \   00010C   40           DB 64
   \   00010D   40           DB 64
   \   00010E   00           DB 0
   \   00010F   7F           DB 127
   \   000110   02           DB 2
   \   000111   0C           DB 12
   \   000112   02           DB 2
   \   000113   7F           DB 127
   \   000114   00           DB 0
   \   000115   7F           DB 127
   \   000116   04           DB 4
   \   000117   08           DB 8
   \   000118   10           DB 16
   \   000119   7F           DB 127
   \   00011A   00           DB 0
   \   00011B   3E           DB 62
   \   00011C   41           DB 65
   \   00011D   41           DB 65
   \   00011E   41           DB 65
   \   00011F   3E           DB 62
   \   000120   00           DB 0
   \   000121   7F           DB 127
   \   000122   09           DB 9
   \   000123   09           DB 9
   \   000124   09           DB 9
   \   000125   06           DB 6
   \   000126   00           DB 0
   \   000127   3E           DB 62
   \   000128   41           DB 65
   \   000129   51           DB 81
   \   00012A   21           DB 33
   \   00012B   5E           DB 94
   \   00012C   00           DB 0
   \   00012D   7F           DB 127
   \   00012E   09           DB 9
   \   00012F   19           DB 25
   \   000130   29           DB 41
   \   000131   46           DB 70
   \   000132   00           DB 0
   \   000133   46           DB 70
   \   000134   49           DB 73
   \   000135   49           DB 73
   \   000136   49           DB 73
   \   000137   31           DB 49
   \   000138   00           DB 0
   \   000139   01           DB 1
   \   00013A   01           DB 1
   \   00013B   7F           DB 127
   \   00013C   01           DB 1
   \   00013D   01           DB 1
   \   00013E   00           DB 0
   \   00013F   3F           DB 63
   \   000140   40           DB 64
   \   000141   40           DB 64
   \   000142   40           DB 64
   \   000143   3F           DB 63
   \   000144   00           DB 0
   \   000145   1F           DB 31
   \   000146   20           DB 32
   \   000147   40           DB 64
   \   000148   20           DB 32
   \   000149   1F           DB 31
   \   00014A   00           DB 0
   \   00014B   3F           DB 63
   \   00014C   40           DB 64
   \   00014D   38           DB 56
   \   00014E   40           DB 64
   \   00014F   3F           DB 63
   \   000150   00           DB 0
   \   000151   63           DB 99
   \   000152   14           DB 20
   \   000153   08           DB 8
   \   000154   14           DB 20
   \   000155   63           DB 99
   \   000156   00           DB 0
   \   000157   07           DB 7
   \   000158   08           DB 8
   \   000159   70           DB 112
   \   00015A   08           DB 8
   \   00015B   07           DB 7
   \   00015C   00           DB 0
   \   00015D   61           DB 97
   \   00015E   51           DB 81
   \   00015F   49           DB 73
   \   000160   45           DB 69
   \   000161   43           DB 67
   \   000162   00           DB 0
   \   000163   00           DB 0
   \   000164   7F           DB 127
   \   000165   41           DB 65
   \   000166   41           DB 65
   \   000167   00           DB 0
   \   000168   00           DB 0
   \   000169   55           DB 85
   \   00016A   2A           DB 42
   \   00016B   55           DB 85
   \   00016C   2A           DB 42
   \   00016D   55           DB 85
   \   00016E   00           DB 0
   \   00016F   00           DB 0
   \   000170   41           DB 65
   \   000171   41           DB 65
   \   000172   7F           DB 127
   \   000173   00           DB 0
   \   000174   00           DB 0
   \   000175   04           DB 4
   \   000176   02           DB 2
   \   000177   01           DB 1
   \   000178   02           DB 2
   \   000179   04           DB 4
   \   00017A   00           DB 0
   \   00017B   40           DB 64
   \   00017C   40           DB 64
   \   00017D   40           DB 64
   \   00017E   40           DB 64
   \   00017F   40           DB 64
   \   000180   00           DB 0
   \   000181   00           DB 0
   \   000182   01           DB 1
   \   000183   02           DB 2
   \   000184   04           DB 4
   \   000185   00           DB 0
   \   000186   00           DB 0
   \   000187   20           DB 32
   \   000188   54           DB 84
   \   000189   54           DB 84
   \   00018A   54           DB 84
   \   00018B   78           DB 120
   \   00018C   00           DB 0
   \   00018D   7F           DB 127
   \   00018E   48           DB 72
   \   00018F   44           DB 68
   \   000190   44           DB 68
   \   000191   38           DB 56
   \   000192   00           DB 0
   \   000193   38           DB 56
   \   000194   44           DB 68
   \   000195   44           DB 68
   \   000196   44           DB 68
   \   000197   20           DB 32
   \   000198   00           DB 0
   \   000199   38           DB 56
   \   00019A   44           DB 68
   \   00019B   44           DB 68
   \   00019C   48           DB 72
   \   00019D   7F           DB 127
   \   00019E   00           DB 0
   \   00019F   38           DB 56
   \   0001A0   54           DB 84
   \   0001A1   54           DB 84
   \   0001A2   54           DB 84
   \   0001A3   18           DB 24
   \   0001A4   00           DB 0
   \   0001A5   08           DB 8
   \   0001A6   7E           DB 126
   \   0001A7   09           DB 9
   \   0001A8   01           DB 1
   \   0001A9   02           DB 2
   \   0001AA   00           DB 0
   \   0001AB   18           DB 24
   \   0001AC   A4           DB 164
   \   0001AD   A4           DB 164
   \   0001AE   A4           DB 164
   \   0001AF   7C           DB 124
   \   0001B0   00           DB 0
   \   0001B1   7F           DB 127
   \   0001B2   08           DB 8
   \   0001B3   04           DB 4
   \   0001B4   04           DB 4
   \   0001B5   78           DB 120
   \   0001B6   00           DB 0
   \   0001B7   00           DB 0
   \   0001B8   44           DB 68
   \   0001B9   7D           DB 125
   \   0001BA   40           DB 64
   \   0001BB   00           DB 0
   \   0001BC   00           DB 0
   \   0001BD   40           DB 64
   \   0001BE   80           DB 128
   \   0001BF   84           DB 132
   \   0001C0   7D           DB 125
   \   0001C1   00           DB 0
   \   0001C2   00           DB 0
   \   0001C3   7F           DB 127
   \   0001C4   10           DB 16
   \   0001C5   28           DB 40
   \   0001C6   44           DB 68
   \   0001C7   00           DB 0
   \   0001C8   00           DB 0
   \   0001C9   00           DB 0
   \   0001CA   41           DB 65
   \   0001CB   7F           DB 127
   \   0001CC   40           DB 64
   \   0001CD   00           DB 0
   \   0001CE   00           DB 0
   \   0001CF   7C           DB 124
   \   0001D0   04           DB 4
   \   0001D1   18           DB 24
   \   0001D2   04           DB 4
   \   0001D3   78           DB 120
   \   0001D4   00           DB 0
   \   0001D5   7C           DB 124
   \   0001D6   08           DB 8
   \   0001D7   04           DB 4
   \   0001D8   04           DB 4
   \   0001D9   78           DB 120
   \   0001DA   00           DB 0
   \   0001DB   38           DB 56
   \   0001DC   44           DB 68
   \   0001DD   44           DB 68
   \   0001DE   44           DB 68
   \   0001DF   38           DB 56
   \   0001E0   00           DB 0
   \   0001E1   FC           DB 252
   \   0001E2   24           DB 36
   \   0001E3   24           DB 36
   \   0001E4   24           DB 36
   \   0001E5   18           DB 24
   \   0001E6   00           DB 0
   \   0001E7   18           DB 24
   \   0001E8   24           DB 36
   \   0001E9   24           DB 36
   \   0001EA   18           DB 24
   \   0001EB   FC           DB 252
   \   0001EC   00           DB 0
   \   0001ED   7C           DB 124
   \   0001EE   08           DB 8
   \   0001EF   04           DB 4
   \   0001F0   04           DB 4
   \   0001F1   08           DB 8
   \   0001F2   00           DB 0
   \   0001F3   48           DB 72
   \   0001F4   54           DB 84
   \   0001F5   54           DB 84
   \   0001F6   54           DB 84
   \   0001F7   20           DB 32
   \   0001F8   00           DB 0
   \   0001F9   04           DB 4
   \   0001FA   3F           DB 63
   \   0001FB   44           DB 68
   \   0001FC   40           DB 64
   \   0001FD   20           DB 32
   \   0001FE   00           DB 0
   \   0001FF   3C           DB 60
   \   000200   40           DB 64
   \   000201   40           DB 64
   \   000202   20           DB 32
   \   000203   7C           DB 124
   \   000204   00           DB 0
   \   000205   1C           DB 28
   \   000206   20           DB 32
   \   000207   40           DB 64
   \   000208   20           DB 32
   \   000209   1C           DB 28
   \   00020A   00           DB 0
   \   00020B   3C           DB 60
   \   00020C   40           DB 64
   \   00020D   30           DB 48
   \   00020E   40           DB 64
   \   00020F   3C           DB 60
   \   000210   00           DB 0
   \   000211   44           DB 68
   \   000212   28           DB 40
   \   000213   10           DB 16
   \   000214   28           DB 40
   \   000215   44           DB 68
   \   000216   00           DB 0
   \   000217   1C           DB 28
   \   000218   A0           DB 160
   \   000219   A0           DB 160
   \   00021A   A0           DB 160
   \   00021B   7C           DB 124
   \   00021C   00           DB 0
   \   00021D   44           DB 68
   \   00021E   64           DB 100
   \   00021F   54           DB 84
   \   000220   4C           DB 76
   \   000221   44           DB 68
   \   000222   14           DB 20
   \   000223   14           DB 20
   \   000224   14           DB 20
   \   000225   14           DB 20
   \   000226   14           DB 20
   \   000227   14           DB 20

   \                                 In  segment XDATA_ROM_C, align 1
   \   unsigned char const __xdata_rom F8X16[1520]
   \                     F8X16:
   \   000000   00           DB 0
   \   000001   00           DB 0
   \   000002   00           DB 0
   \   000003   00           DB 0
   \   000004   00           DB 0
   \   000005   00           DB 0
   \   000006   00           DB 0
   \   000007   00           DB 0
   \   000008   00           DB 0
   \   000009   00           DB 0
   \   00000A   00           DB 0
   \   00000B   00           DB 0
   \   00000C   00           DB 0
   \   00000D   00           DB 0
   \   00000E   00           DB 0
   \   00000F   00           DB 0
   \   000010   00           DB 0
   \   000011   00           DB 0
   \   000012   00           DB 0
   \   000013   F8           DB 248
   \   000014   00           DB 0
   \   000015   00           DB 0
   \   000016   00           DB 0
   \   000017   00           DB 0
   \   000018   00           DB 0
   \   000019   00           DB 0
   \   00001A   00           DB 0
   \   00001B   33           DB 51
   \   00001C   30           DB 48
   \   00001D   00           DB 0
   \   00001E   00           DB 0
   \   00001F   00           DB 0
   \   000020   00           DB 0
   \   000021   10           DB 16
   \   000022   0C           DB 12
   \   000023   06           DB 6
   \   000024   10           DB 16
   \   000025   0C           DB 12
   \   000026   06           DB 6
   \   000027   00           DB 0
   \   000028   00           DB 0
   \   000029   00           DB 0
   \   00002A   00           DB 0
   \   00002B   00           DB 0
   \   00002C   00           DB 0
   \   00002D   00           DB 0
   \   00002E   00           DB 0
   \   00002F   00           DB 0
   \   000030   40           DB 64
   \   000031   C0           DB 192
   \   000032   78           DB 120
   \   000033   40           DB 64
   \   000034   C0           DB 192
   \   000035   78           DB 120
   \   000036   40           DB 64
   \   000037   00           DB 0
   \   000038   04           DB 4
   \   000039   3F           DB 63
   \   00003A   04           DB 4
   \   00003B   04           DB 4
   \   00003C   3F           DB 63
   \   00003D   04           DB 4
   \   00003E   04           DB 4
   \   00003F   00           DB 0
   \   000040   00           DB 0
   \   000041   70           DB 112
   \   000042   88           DB 136
   \   000043   FC           DB 252
   \   000044   08           DB 8
   \   000045   30           DB 48
   \   000046   00           DB 0
   \   000047   00           DB 0
   \   000048   00           DB 0
   \   000049   18           DB 24
   \   00004A   20           DB 32
   \   00004B   FF           DB 255
   \   00004C   21           DB 33
   \   00004D   1E           DB 30
   \   00004E   00           DB 0
   \   00004F   00           DB 0
   \   000050   F0           DB 240
   \   000051   08           DB 8
   \   000052   F0           DB 240
   \   000053   00           DB 0
   \   000054   E0           DB 224
   \   000055   18           DB 24
   \   000056   00           DB 0
   \   000057   00           DB 0
   \   000058   00           DB 0
   \   000059   21           DB 33
   \   00005A   1C           DB 28
   \   00005B   03           DB 3
   \   00005C   1E           DB 30
   \   00005D   21           DB 33
   \   00005E   1E           DB 30
   \   00005F   00           DB 0
   \   000060   00           DB 0
   \   000061   F0           DB 240
   \   000062   08           DB 8
   \   000063   88           DB 136
   \   000064   70           DB 112
   \   000065   00           DB 0
   \   000066   00           DB 0
   \   000067   00           DB 0
   \   000068   1E           DB 30
   \   000069   21           DB 33
   \   00006A   23           DB 35
   \   00006B   24           DB 36
   \   00006C   19           DB 25
   \   00006D   27           DB 39
   \   00006E   21           DB 33
   \   00006F   10           DB 16
   \   000070   10           DB 16
   \   000071   16           DB 22
   \   000072   0E           DB 14
   \   000073   00           DB 0
   \   000074   00           DB 0
   \   000075   00           DB 0
   \   000076   00           DB 0
   \   000077   00           DB 0
   \   000078   00           DB 0
   \   000079   00           DB 0
   \   00007A   00           DB 0
   \   00007B   00           DB 0
   \   00007C   00           DB 0
   \   00007D   00           DB 0
   \   00007E   00           DB 0
   \   00007F   00           DB 0
   \   000080   00           DB 0
   \   000081   00           DB 0
   \   000082   00           DB 0
   \   000083   E0           DB 224
   \   000084   18           DB 24
   \   000085   04           DB 4
   \   000086   02           DB 2
   \   000087   00           DB 0
   \   000088   00           DB 0
   \   000089   00           DB 0
   \   00008A   00           DB 0
   \   00008B   07           DB 7
   \   00008C   18           DB 24
   \   00008D   20           DB 32
   \   00008E   40           DB 64
   \   00008F   00           DB 0
   \   000090   00           DB 0
   \   000091   02           DB 2
   \   000092   04           DB 4
   \   000093   18           DB 24
   \   000094   E0           DB 224
   \   000095   00           DB 0
   \   000096   00           DB 0
   \   000097   00           DB 0
   \   000098   00           DB 0
   \   000099   40           DB 64
   \   00009A   20           DB 32
   \   00009B   18           DB 24
   \   00009C   07           DB 7
   \   00009D   00           DB 0
   \   00009E   00           DB 0
   \   00009F   00           DB 0
   \   0000A0   40           DB 64
   \   0000A1   40           DB 64
   \   0000A2   80           DB 128
   \   0000A3   F0           DB 240
   \   0000A4   80           DB 128
   \   0000A5   40           DB 64
   \   0000A6   40           DB 64
   \   0000A7   00           DB 0
   \   0000A8   02           DB 2
   \   0000A9   02           DB 2
   \   0000AA   01           DB 1
   \   0000AB   0F           DB 15
   \   0000AC   01           DB 1
   \   0000AD   02           DB 2
   \   0000AE   02           DB 2
   \   0000AF   00           DB 0
   \   0000B0   00           DB 0
   \   0000B1   00           DB 0
   \   0000B2   00           DB 0
   \   0000B3   F0           DB 240
   \   0000B4   00           DB 0
   \   0000B5   00           DB 0
   \   0000B6   00           DB 0
   \   0000B7   00           DB 0
   \   0000B8   01           DB 1
   \   0000B9   01           DB 1
   \   0000BA   01           DB 1
   \   0000BB   1F           DB 31
   \   0000BC   01           DB 1
   \   0000BD   01           DB 1
   \   0000BE   01           DB 1
   \   0000BF   00           DB 0
   \   0000C0   00           DB 0
   \   0000C1   00           DB 0
   \   0000C2   00           DB 0
   \   0000C3   00           DB 0
   \   0000C4   00           DB 0
   \   0000C5   00           DB 0
   \   0000C6   00           DB 0
   \   0000C7   00           DB 0
   \   0000C8   80           DB 128
   \   0000C9   B0           DB 176
   \   0000CA   70           DB 112
   \   0000CB   00           DB 0
   \   0000CC   00           DB 0
   \   0000CD   00           DB 0
   \   0000CE   00           DB 0
   \   0000CF   00           DB 0
   \   0000D0   00           DB 0
   \   0000D1   00           DB 0
   \   0000D2   00           DB 0
   \   0000D3   00           DB 0
   \   0000D4   00           DB 0
   \   0000D5   00           DB 0
   \   0000D6   00           DB 0
   \   0000D7   00           DB 0
   \   0000D8   00           DB 0
   \   0000D9   01           DB 1
   \   0000DA   01           DB 1
   \   0000DB   01           DB 1
   \   0000DC   01           DB 1
   \   0000DD   01           DB 1
   \   0000DE   01           DB 1
   \   0000DF   01           DB 1
   \   0000E0   00           DB 0
   \   0000E1   00           DB 0
   \   0000E2   00           DB 0
   \   0000E3   00           DB 0
   \   0000E4   00           DB 0
   \   0000E5   00           DB 0
   \   0000E6   00           DB 0
   \   0000E7   00           DB 0
   \   0000E8   00           DB 0
   \   0000E9   30           DB 48
   \   0000EA   30           DB 48
   \   0000EB   00           DB 0
   \   0000EC   00           DB 0
   \   0000ED   00           DB 0
   \   0000EE   00           DB 0
   \   0000EF   00           DB 0
   \   0000F0   00           DB 0
   \   0000F1   00           DB 0
   \   0000F2   00           DB 0
   \   0000F3   00           DB 0
   \   0000F4   80           DB 128
   \   0000F5   60           DB 96
   \   0000F6   18           DB 24
   \   0000F7   04           DB 4
   \   0000F8   00           DB 0
   \   0000F9   60           DB 96
   \   0000FA   18           DB 24
   \   0000FB   06           DB 6
   \   0000FC   01           DB 1
   \   0000FD   00           DB 0
   \   0000FE   00           DB 0
   \   0000FF   00           DB 0
   \   000100   00           DB 0
   \   000101   E0           DB 224
   \   000102   10           DB 16
   \   000103   08           DB 8
   \   000104   08           DB 8
   \   000105   10           DB 16
   \   000106   E0           DB 224
   \   000107   00           DB 0
   \   000108   00           DB 0
   \   000109   0F           DB 15
   \   00010A   10           DB 16
   \   00010B   20           DB 32
   \   00010C   20           DB 32
   \   00010D   10           DB 16
   \   00010E   0F           DB 15
   \   00010F   00           DB 0
   \   000110   00           DB 0
   \   000111   10           DB 16
   \   000112   10           DB 16
   \   000113   F8           DB 248
   \   000114   00           DB 0
   \   000115   00           DB 0
   \   000116   00           DB 0
   \   000117   00           DB 0
   \   000118   00           DB 0
   \   000119   20           DB 32
   \   00011A   20           DB 32
   \   00011B   3F           DB 63
   \   00011C   20           DB 32
   \   00011D   20           DB 32
   \   00011E   00           DB 0
   \   00011F   00           DB 0
   \   000120   00           DB 0
   \   000121   70           DB 112
   \   000122   08           DB 8
   \   000123   08           DB 8
   \   000124   08           DB 8
   \   000125   88           DB 136
   \   000126   70           DB 112
   \   000127   00           DB 0
   \   000128   00           DB 0
   \   000129   30           DB 48
   \   00012A   28           DB 40
   \   00012B   24           DB 36
   \   00012C   22           DB 34
   \   00012D   21           DB 33
   \   00012E   30           DB 48
   \   00012F   00           DB 0
   \   000130   00           DB 0
   \   000131   30           DB 48
   \   000132   08           DB 8
   \   000133   88           DB 136
   \   000134   88           DB 136
   \   000135   48           DB 72
   \   000136   30           DB 48
   \   000137   00           DB 0
   \   000138   00           DB 0
   \   000139   18           DB 24
   \   00013A   20           DB 32
   \   00013B   20           DB 32
   \   00013C   20           DB 32
   \   00013D   11           DB 17
   \   00013E   0E           DB 14
   \   00013F   00           DB 0
   \   000140   00           DB 0
   \   000141   00           DB 0
   \   000142   C0           DB 192
   \   000143   20           DB 32
   \   000144   10           DB 16
   \   000145   F8           DB 248
   \   000146   00           DB 0
   \   000147   00           DB 0
   \   000148   00           DB 0
   \   000149   07           DB 7
   \   00014A   04           DB 4
   \   00014B   24           DB 36
   \   00014C   24           DB 36
   \   00014D   3F           DB 63
   \   00014E   24           DB 36
   \   00014F   00           DB 0
   \   000150   00           DB 0
   \   000151   F8           DB 248
   \   000152   08           DB 8
   \   000153   88           DB 136
   \   000154   88           DB 136
   \   000155   08           DB 8
   \   000156   08           DB 8
   \   000157   00           DB 0
   \   000158   00           DB 0
   \   000159   19           DB 25
   \   00015A   21           DB 33
   \   00015B   20           DB 32
   \   00015C   20           DB 32
   \   00015D   11           DB 17
   \   00015E   0E           DB 14
   \   00015F   00           DB 0
   \   000160   00           DB 0
   \   000161   E0           DB 224
   \   000162   10           DB 16
   \   000163   88           DB 136
   \   000164   88           DB 136
   \   000165   18           DB 24
   \   000166   00           DB 0
   \   000167   00           DB 0
   \   000168   00           DB 0
   \   000169   0F           DB 15
   \   00016A   11           DB 17
   \   00016B   20           DB 32
   \   00016C   20           DB 32
   \   00016D   11           DB 17
   \   00016E   0E           DB 14
   \   00016F   00           DB 0
   \   000170   00           DB 0
   \   000171   38           DB 56
   \   000172   08           DB 8
   \   000173   08           DB 8
   \   000174   C8           DB 200
   \   000175   38           DB 56
   \   000176   08           DB 8
   \   000177   00           DB 0
   \   000178   00           DB 0
   \   000179   00           DB 0
   \   00017A   00           DB 0
   \   00017B   3F           DB 63
   \   00017C   00           DB 0
   \   00017D   00           DB 0
   \   00017E   00           DB 0
   \   00017F   00           DB 0
   \   000180   00           DB 0
   \   000181   70           DB 112
   \   000182   88           DB 136
   \   000183   08           DB 8
   \   000184   08           DB 8
   \   000185   88           DB 136
   \   000186   70           DB 112
   \   000187   00           DB 0
   \   000188   00           DB 0
   \   000189   1C           DB 28
   \   00018A   22           DB 34
   \   00018B   21           DB 33
   \   00018C   21           DB 33
   \   00018D   22           DB 34
   \   00018E   1C           DB 28
   \   00018F   00           DB 0
   \   000190   00           DB 0
   \   000191   E0           DB 224
   \   000192   10           DB 16
   \   000193   08           DB 8
   \   000194   08           DB 8
   \   000195   10           DB 16
   \   000196   E0           DB 224
   \   000197   00           DB 0
   \   000198   00           DB 0
   \   000199   00           DB 0
   \   00019A   31           DB 49
   \   00019B   22           DB 34
   \   00019C   22           DB 34
   \   00019D   11           DB 17
   \   00019E   0F           DB 15
   \   00019F   00           DB 0
   \   0001A0   00           DB 0
   \   0001A1   00           DB 0
   \   0001A2   00           DB 0
   \   0001A3   C0           DB 192
   \   0001A4   C0           DB 192
   \   0001A5   00           DB 0
   \   0001A6   00           DB 0
   \   0001A7   00           DB 0
   \   0001A8   00           DB 0
   \   0001A9   00           DB 0
   \   0001AA   00           DB 0
   \   0001AB   30           DB 48
   \   0001AC   30           DB 48
   \   0001AD   00           DB 0
   \   0001AE   00           DB 0
   \   0001AF   00           DB 0
   \   0001B0   00           DB 0
   \   0001B1   00           DB 0
   \   0001B2   00           DB 0
   \   0001B3   80           DB 128
   \   0001B4   00           DB 0
   \   0001B5   00           DB 0
   \   0001B6   00           DB 0
   \   0001B7   00           DB 0
   \   0001B8   00           DB 0
   \   0001B9   00           DB 0
   \   0001BA   80           DB 128
   \   0001BB   60           DB 96
   \   0001BC   00           DB 0
   \   0001BD   00           DB 0
   \   0001BE   00           DB 0
   \   0001BF   00           DB 0
   \   0001C0   00           DB 0
   \   0001C1   00           DB 0
   \   0001C2   80           DB 128
   \   0001C3   40           DB 64
   \   0001C4   20           DB 32
   \   0001C5   10           DB 16
   \   0001C6   08           DB 8
   \   0001C7   00           DB 0
   \   0001C8   00           DB 0
   \   0001C9   01           DB 1
   \   0001CA   02           DB 2
   \   0001CB   04           DB 4
   \   0001CC   08           DB 8
   \   0001CD   10           DB 16
   \   0001CE   20           DB 32
   \   0001CF   00           DB 0
   \   0001D0   40           DB 64
   \   0001D1   40           DB 64
   \   0001D2   40           DB 64
   \   0001D3   40           DB 64
   \   0001D4   40           DB 64
   \   0001D5   40           DB 64
   \   0001D6   40           DB 64
   \   0001D7   00           DB 0
   \   0001D8   04           DB 4
   \   0001D9   04           DB 4
   \   0001DA   04           DB 4
   \   0001DB   04           DB 4
   \   0001DC   04           DB 4
   \   0001DD   04           DB 4
   \   0001DE   04           DB 4
   \   0001DF   00           DB 0
   \   0001E0   00           DB 0
   \   0001E1   08           DB 8
   \   0001E2   10           DB 16
   \   0001E3   20           DB 32
   \   0001E4   40           DB 64
   \   0001E5   80           DB 128
   \   0001E6   00           DB 0
   \   0001E7   00           DB 0
   \   0001E8   00           DB 0
   \   0001E9   20           DB 32
   \   0001EA   10           DB 16
   \   0001EB   08           DB 8
   \   0001EC   04           DB 4
   \   0001ED   02           DB 2
   \   0001EE   01           DB 1
   \   0001EF   00           DB 0
   \   0001F0   00           DB 0
   \   0001F1   70           DB 112
   \   0001F2   48           DB 72
   \   0001F3   08           DB 8
   \   0001F4   08           DB 8
   \   0001F5   08           DB 8
   \   0001F6   F0           DB 240
   \   0001F7   00           DB 0
   \   0001F8   00           DB 0
   \   0001F9   00           DB 0
   \   0001FA   00           DB 0
   \   0001FB   30           DB 48
   \   0001FC   36           DB 54
   \   0001FD   01           DB 1
   \   0001FE   00           DB 0
   \   0001FF   00           DB 0
   \   000200   C0           DB 192
   \   000201   30           DB 48
   \   000202   C8           DB 200
   \   000203   28           DB 40
   \   000204   E8           DB 232
   \   000205   10           DB 16
   \   000206   E0           DB 224
   \   000207   00           DB 0
   \   000208   07           DB 7
   \   000209   18           DB 24
   \   00020A   27           DB 39
   \   00020B   24           DB 36
   \   00020C   23           DB 35
   \   00020D   14           DB 20
   \   00020E   0B           DB 11
   \   00020F   00           DB 0
   \   000210   00           DB 0
   \   000211   00           DB 0
   \   000212   C0           DB 192
   \   000213   38           DB 56
   \   000214   E0           DB 224
   \   000215   00           DB 0
   \   000216   00           DB 0
   \   000217   00           DB 0
   \   000218   20           DB 32
   \   000219   3C           DB 60
   \   00021A   23           DB 35
   \   00021B   02           DB 2
   \   00021C   02           DB 2
   \   00021D   27           DB 39
   \   00021E   38           DB 56
   \   00021F   20           DB 32
   \   000220   08           DB 8
   \   000221   F8           DB 248
   \   000222   88           DB 136
   \   000223   88           DB 136
   \   000224   88           DB 136
   \   000225   70           DB 112
   \   000226   00           DB 0
   \   000227   00           DB 0
   \   000228   20           DB 32
   \   000229   3F           DB 63
   \   00022A   20           DB 32
   \   00022B   20           DB 32
   \   00022C   20           DB 32
   \   00022D   11           DB 17
   \   00022E   0E           DB 14
   \   00022F   00           DB 0
   \   000230   C0           DB 192
   \   000231   30           DB 48
   \   000232   08           DB 8
   \   000233   08           DB 8
   \   000234   08           DB 8
   \   000235   08           DB 8
   \   000236   38           DB 56
   \   000237   00           DB 0
   \   000238   07           DB 7
   \   000239   18           DB 24
   \   00023A   20           DB 32
   \   00023B   20           DB 32
   \   00023C   20           DB 32
   \   00023D   10           DB 16
   \   00023E   08           DB 8
   \   00023F   00           DB 0
   \   000240   08           DB 8
   \   000241   F8           DB 248
   \   000242   08           DB 8
   \   000243   08           DB 8
   \   000244   08           DB 8
   \   000245   10           DB 16
   \   000246   E0           DB 224
   \   000247   00           DB 0
   \   000248   20           DB 32
   \   000249   3F           DB 63
   \   00024A   20           DB 32
   \   00024B   20           DB 32
   \   00024C   20           DB 32
   \   00024D   10           DB 16
   \   00024E   0F           DB 15
   \   00024F   00           DB 0
   \   000250   08           DB 8
   \   000251   F8           DB 248
   \   000252   88           DB 136
   \   000253   88           DB 136
   \   000254   E8           DB 232
   \   000255   08           DB 8
   \   000256   10           DB 16
   \   000257   00           DB 0
   \   000258   20           DB 32
   \   000259   3F           DB 63
   \   00025A   20           DB 32
   \   00025B   20           DB 32
   \   00025C   23           DB 35
   \   00025D   20           DB 32
   \   00025E   18           DB 24
   \   00025F   00           DB 0
   \   000260   08           DB 8
   \   000261   F8           DB 248
   \   000262   88           DB 136
   \   000263   88           DB 136
   \   000264   E8           DB 232
   \   000265   08           DB 8
   \   000266   10           DB 16
   \   000267   00           DB 0
   \   000268   20           DB 32
   \   000269   3F           DB 63
   \   00026A   20           DB 32
   \   00026B   00           DB 0
   \   00026C   03           DB 3
   \   00026D   00           DB 0
   \   00026E   00           DB 0
   \   00026F   00           DB 0
   \   000270   C0           DB 192
   \   000271   30           DB 48
   \   000272   08           DB 8
   \   000273   08           DB 8
   \   000274   08           DB 8
   \   000275   38           DB 56
   \   000276   00           DB 0
   \   000277   00           DB 0
   \   000278   07           DB 7
   \   000279   18           DB 24
   \   00027A   20           DB 32
   \   00027B   20           DB 32
   \   00027C   22           DB 34
   \   00027D   1E           DB 30
   \   00027E   02           DB 2
   \   00027F   00           DB 0
   \   000280   08           DB 8
   \   000281   F8           DB 248
   \   000282   08           DB 8
   \   000283   00           DB 0
   \   000284   00           DB 0
   \   000285   08           DB 8
   \   000286   F8           DB 248
   \   000287   08           DB 8
   \   000288   20           DB 32
   \   000289   3F           DB 63
   \   00028A   21           DB 33
   \   00028B   01           DB 1
   \   00028C   01           DB 1
   \   00028D   21           DB 33
   \   00028E   3F           DB 63
   \   00028F   20           DB 32
   \   000290   00           DB 0
   \   000291   08           DB 8
   \   000292   08           DB 8
   \   000293   F8           DB 248
   \   000294   08           DB 8
   \   000295   08           DB 8
   \   000296   00           DB 0
   \   000297   00           DB 0
   \   000298   00           DB 0
   \   000299   20           DB 32
   \   00029A   20           DB 32
   \   00029B   3F           DB 63
   \   00029C   20           DB 32
   \   00029D   20           DB 32
   \   00029E   00           DB 0
   \   00029F   00           DB 0
   \   0002A0   00           DB 0
   \   0002A1   00           DB 0
   \   0002A2   08           DB 8
   \   0002A3   08           DB 8
   \   0002A4   F8           DB 248
   \   0002A5   08           DB 8
   \   0002A6   08           DB 8
   \   0002A7   00           DB 0
   \   0002A8   C0           DB 192
   \   0002A9   80           DB 128
   \   0002AA   80           DB 128
   \   0002AB   80           DB 128
   \   0002AC   7F           DB 127
   \   0002AD   00           DB 0
   \   0002AE   00           DB 0
   \   0002AF   00           DB 0
   \   0002B0   08           DB 8
   \   0002B1   F8           DB 248
   \   0002B2   88           DB 136
   \   0002B3   C0           DB 192
   \   0002B4   28           DB 40
   \   0002B5   18           DB 24
   \   0002B6   08           DB 8
   \   0002B7   00           DB 0
   \   0002B8   20           DB 32
   \   0002B9   3F           DB 63
   \   0002BA   20           DB 32
   \   0002BB   01           DB 1
   \   0002BC   26           DB 38
   \   0002BD   38           DB 56
   \   0002BE   20           DB 32
   \   0002BF   00           DB 0
   \   0002C0   08           DB 8
   \   0002C1   F8           DB 248
   \   0002C2   08           DB 8
   \   0002C3   00           DB 0
   \   0002C4   00           DB 0
   \   0002C5   00           DB 0
   \   0002C6   00           DB 0
   \   0002C7   00           DB 0
   \   0002C8   20           DB 32
   \   0002C9   3F           DB 63
   \   0002CA   20           DB 32
   \   0002CB   20           DB 32
   \   0002CC   20           DB 32
   \   0002CD   20           DB 32
   \   0002CE   30           DB 48
   \   0002CF   00           DB 0
   \   0002D0   08           DB 8
   \   0002D1   F8           DB 248
   \   0002D2   F8           DB 248
   \   0002D3   00           DB 0
   \   0002D4   F8           DB 248
   \   0002D5   F8           DB 248
   \   0002D6   08           DB 8
   \   0002D7   00           DB 0
   \   0002D8   20           DB 32
   \   0002D9   3F           DB 63
   \   0002DA   00           DB 0
   \   0002DB   3F           DB 63
   \   0002DC   00           DB 0
   \   0002DD   3F           DB 63
   \   0002DE   20           DB 32
   \   0002DF   00           DB 0
   \   0002E0   08           DB 8
   \   0002E1   F8           DB 248
   \   0002E2   30           DB 48
   \   0002E3   C0           DB 192
   \   0002E4   00           DB 0
   \   0002E5   08           DB 8
   \   0002E6   F8           DB 248
   \   0002E7   08           DB 8
   \   0002E8   20           DB 32
   \   0002E9   3F           DB 63
   \   0002EA   20           DB 32
   \   0002EB   00           DB 0
   \   0002EC   07           DB 7
   \   0002ED   18           DB 24
   \   0002EE   3F           DB 63
   \   0002EF   00           DB 0
   \   0002F0   E0           DB 224
   \   0002F1   10           DB 16
   \   0002F2   08           DB 8
   \   0002F3   08           DB 8
   \   0002F4   08           DB 8
   \   0002F5   10           DB 16
   \   0002F6   E0           DB 224
   \   0002F7   00           DB 0
   \   0002F8   0F           DB 15
   \   0002F9   10           DB 16
   \   0002FA   20           DB 32
   \   0002FB   20           DB 32
   \   0002FC   20           DB 32
   \   0002FD   10           DB 16
   \   0002FE   0F           DB 15
   \   0002FF   00           DB 0
   \   000300   08           DB 8
   \   000301   F8           DB 248
   \   000302   08           DB 8
   \   000303   08           DB 8
   \   000304   08           DB 8
   \   000305   08           DB 8
   \   000306   F0           DB 240
   \   000307   00           DB 0
   \   000308   20           DB 32
   \   000309   3F           DB 63
   \   00030A   21           DB 33
   \   00030B   01           DB 1
   \   00030C   01           DB 1
   \   00030D   01           DB 1
   \   00030E   00           DB 0
   \   00030F   00           DB 0
   \   000310   E0           DB 224
   \   000311   10           DB 16
   \   000312   08           DB 8
   \   000313   08           DB 8
   \   000314   08           DB 8
   \   000315   10           DB 16
   \   000316   E0           DB 224
   \   000317   00           DB 0
   \   000318   0F           DB 15
   \   000319   18           DB 24
   \   00031A   24           DB 36
   \   00031B   24           DB 36
   \   00031C   38           DB 56
   \   00031D   50           DB 80
   \   00031E   4F           DB 79
   \   00031F   00           DB 0
   \   000320   08           DB 8
   \   000321   F8           DB 248
   \   000322   88           DB 136
   \   000323   88           DB 136
   \   000324   88           DB 136
   \   000325   88           DB 136
   \   000326   70           DB 112
   \   000327   00           DB 0
   \   000328   20           DB 32
   \   000329   3F           DB 63
   \   00032A   20           DB 32
   \   00032B   00           DB 0
   \   00032C   03           DB 3
   \   00032D   0C           DB 12
   \   00032E   30           DB 48
   \   00032F   20           DB 32
   \   000330   00           DB 0
   \   000331   70           DB 112
   \   000332   88           DB 136
   \   000333   08           DB 8
   \   000334   08           DB 8
   \   000335   08           DB 8
   \   000336   38           DB 56
   \   000337   00           DB 0
   \   000338   00           DB 0
   \   000339   38           DB 56
   \   00033A   20           DB 32
   \   00033B   21           DB 33
   \   00033C   21           DB 33
   \   00033D   22           DB 34
   \   00033E   1C           DB 28
   \   00033F   00           DB 0
   \   000340   18           DB 24
   \   000341   08           DB 8
   \   000342   08           DB 8
   \   000343   F8           DB 248
   \   000344   08           DB 8
   \   000345   08           DB 8
   \   000346   18           DB 24
   \   000347   00           DB 0
   \   000348   00           DB 0
   \   000349   00           DB 0
   \   00034A   20           DB 32
   \   00034B   3F           DB 63
   \   00034C   20           DB 32
   \   00034D   00           DB 0
   \   00034E   00           DB 0
   \   00034F   00           DB 0
   \   000350   08           DB 8
   \   000351   F8           DB 248
   \   000352   08           DB 8
   \   000353   00           DB 0
   \   000354   00           DB 0
   \   000355   08           DB 8
   \   000356   F8           DB 248
   \   000357   08           DB 8
   \   000358   00           DB 0
   \   000359   1F           DB 31
   \   00035A   20           DB 32
   \   00035B   20           DB 32
   \   00035C   20           DB 32
   \   00035D   20           DB 32
   \   00035E   1F           DB 31
   \   00035F   00           DB 0
   \   000360   08           DB 8
   \   000361   78           DB 120
   \   000362   88           DB 136
   \   000363   00           DB 0
   \   000364   00           DB 0
   \   000365   C8           DB 200
   \   000366   38           DB 56
   \   000367   08           DB 8
   \   000368   00           DB 0
   \   000369   00           DB 0
   \   00036A   07           DB 7
   \   00036B   38           DB 56
   \   00036C   0E           DB 14
   \   00036D   01           DB 1
   \   00036E   00           DB 0
   \   00036F   00           DB 0
   \   000370   F8           DB 248
   \   000371   08           DB 8
   \   000372   00           DB 0
   \   000373   F8           DB 248
   \   000374   00           DB 0
   \   000375   08           DB 8
   \   000376   F8           DB 248
   \   000377   00           DB 0
   \   000378   03           DB 3
   \   000379   3C           DB 60
   \   00037A   07           DB 7
   \   00037B   00           DB 0
   \   00037C   07           DB 7
   \   00037D   3C           DB 60
   \   00037E   03           DB 3
   \   00037F   00           DB 0
   \   000380   08           DB 8
   \   000381   18           DB 24
   \   000382   68           DB 104
   \   000383   80           DB 128
   \   000384   80           DB 128
   \   000385   68           DB 104
   \   000386   18           DB 24
   \   000387   08           DB 8
   \   000388   20           DB 32
   \   000389   30           DB 48
   \   00038A   2C           DB 44
   \   00038B   03           DB 3
   \   00038C   03           DB 3
   \   00038D   2C           DB 44
   \   00038E   30           DB 48
   \   00038F   20           DB 32
   \   000390   08           DB 8
   \   000391   38           DB 56
   \   000392   C8           DB 200
   \   000393   00           DB 0
   \   000394   C8           DB 200
   \   000395   38           DB 56
   \   000396   08           DB 8
   \   000397   00           DB 0
   \   000398   00           DB 0
   \   000399   00           DB 0
   \   00039A   20           DB 32
   \   00039B   3F           DB 63
   \   00039C   20           DB 32
   \   00039D   00           DB 0
   \   00039E   00           DB 0
   \   00039F   00           DB 0
   \   0003A0   10           DB 16
   \   0003A1   08           DB 8
   \   0003A2   08           DB 8
   \   0003A3   08           DB 8
   \   0003A4   C8           DB 200
   \   0003A5   38           DB 56
   \   0003A6   08           DB 8
   \   0003A7   00           DB 0
   \   0003A8   20           DB 32
   \   0003A9   38           DB 56
   \   0003AA   26           DB 38
   \   0003AB   21           DB 33
   \   0003AC   20           DB 32
   \   0003AD   20           DB 32
   \   0003AE   18           DB 24
   \   0003AF   00           DB 0
   \   0003B0   00           DB 0
   \   0003B1   00           DB 0
   \   0003B2   00           DB 0
   \   0003B3   FE           DB 254
   \   0003B4   02           DB 2
   \   0003B5   02           DB 2
   \   0003B6   02           DB 2
   \   0003B7   00           DB 0
   \   0003B8   00           DB 0
   \   0003B9   00           DB 0
   \   0003BA   00           DB 0
   \   0003BB   7F           DB 127
   \   0003BC   40           DB 64
   \   0003BD   40           DB 64
   \   0003BE   40           DB 64
   \   0003BF   00           DB 0
   \   0003C0   00           DB 0
   \   0003C1   0C           DB 12
   \   0003C2   30           DB 48
   \   0003C3   C0           DB 192
   \   0003C4   00           DB 0
   \   0003C5   00           DB 0
   \   0003C6   00           DB 0
   \   0003C7   00           DB 0
   \   0003C8   00           DB 0
   \   0003C9   00           DB 0
   \   0003CA   00           DB 0
   \   0003CB   01           DB 1
   \   0003CC   06           DB 6
   \   0003CD   38           DB 56
   \   0003CE   C0           DB 192
   \   0003CF   00           DB 0
   \   0003D0   00           DB 0
   \   0003D1   02           DB 2
   \   0003D2   02           DB 2
   \   0003D3   02           DB 2
   \   0003D4   FE           DB 254
   \   0003D5   00           DB 0
   \   0003D6   00           DB 0
   \   0003D7   00           DB 0
   \   0003D8   00           DB 0
   \   0003D9   40           DB 64
   \   0003DA   40           DB 64
   \   0003DB   40           DB 64
   \   0003DC   7F           DB 127
   \   0003DD   00           DB 0
   \   0003DE   00           DB 0
   \   0003DF   00           DB 0
   \   0003E0   00           DB 0
   \   0003E1   00           DB 0
   \   0003E2   04           DB 4
   \   0003E3   02           DB 2
   \   0003E4   02           DB 2
   \   0003E5   02           DB 2
   \   0003E6   04           DB 4
   \   0003E7   00           DB 0
   \   0003E8   00           DB 0
   \   0003E9   00           DB 0
   \   0003EA   00           DB 0
   \   0003EB   00           DB 0
   \   0003EC   00           DB 0
   \   0003ED   00           DB 0
   \   0003EE   00           DB 0
   \   0003EF   00           DB 0
   \   0003F0   00           DB 0
   \   0003F1   00           DB 0
   \   0003F2   00           DB 0
   \   0003F3   00           DB 0
   \   0003F4   00           DB 0
   \   0003F5   00           DB 0
   \   0003F6   00           DB 0
   \   0003F7   00           DB 0
   \   0003F8   80           DB 128
   \   0003F9   80           DB 128
   \   0003FA   80           DB 128
   \   0003FB   80           DB 128
   \   0003FC   80           DB 128
   \   0003FD   80           DB 128
   \   0003FE   80           DB 128
   \   0003FF   80           DB 128
   \   000400   00           DB 0
   \   000401   02           DB 2
   \   000402   02           DB 2
   \   000403   04           DB 4
   \   000404   00           DB 0
   \   000405   00           DB 0
   \   000406   00           DB 0
   \   000407   00           DB 0
   \   000408   00           DB 0
   \   000409   00           DB 0
   \   00040A   00           DB 0
   \   00040B   00           DB 0
   \   00040C   00           DB 0
   \   00040D   00           DB 0
   \   00040E   00           DB 0
   \   00040F   00           DB 0
   \   000410   00           DB 0
   \   000411   00           DB 0
   \   000412   80           DB 128
   \   000413   80           DB 128
   \   000414   80           DB 128
   \   000415   80           DB 128
   \   000416   00           DB 0
   \   000417   00           DB 0
   \   000418   00           DB 0
   \   000419   19           DB 25
   \   00041A   24           DB 36
   \   00041B   22           DB 34
   \   00041C   22           DB 34
   \   00041D   22           DB 34
   \   00041E   3F           DB 63
   \   00041F   20           DB 32
   \   000420   08           DB 8
   \   000421   F8           DB 248
   \   000422   00           DB 0
   \   000423   80           DB 128
   \   000424   80           DB 128
   \   000425   00           DB 0
   \   000426   00           DB 0
   \   000427   00           DB 0
   \   000428   00           DB 0
   \   000429   3F           DB 63
   \   00042A   11           DB 17
   \   00042B   20           DB 32
   \   00042C   20           DB 32
   \   00042D   11           DB 17
   \   00042E   0E           DB 14
   \   00042F   00           DB 0
   \   000430   00           DB 0
   \   000431   00           DB 0
   \   000432   00           DB 0
   \   000433   80           DB 128
   \   000434   80           DB 128
   \   000435   80           DB 128
   \   000436   00           DB 0
   \   000437   00           DB 0
   \   000438   00           DB 0
   \   000439   0E           DB 14
   \   00043A   11           DB 17
   \   00043B   20           DB 32
   \   00043C   20           DB 32
   \   00043D   20           DB 32
   \   00043E   11           DB 17
   \   00043F   00           DB 0
   \   000440   00           DB 0
   \   000441   00           DB 0
   \   000442   00           DB 0
   \   000443   80           DB 128
   \   000444   80           DB 128
   \   000445   88           DB 136
   \   000446   F8           DB 248
   \   000447   00           DB 0
   \   000448   00           DB 0
   \   000449   0E           DB 14
   \   00044A   11           DB 17
   \   00044B   20           DB 32
   \   00044C   20           DB 32
   \   00044D   10           DB 16
   \   00044E   3F           DB 63
   \   00044F   20           DB 32
   \   000450   00           DB 0
   \   000451   00           DB 0
   \   000452   80           DB 128
   \   000453   80           DB 128
   \   000454   80           DB 128
   \   000455   80           DB 128
   \   000456   00           DB 0
   \   000457   00           DB 0
   \   000458   00           DB 0
   \   000459   1F           DB 31
   \   00045A   22           DB 34
   \   00045B   22           DB 34
   \   00045C   22           DB 34
   \   00045D   22           DB 34
   \   00045E   13           DB 19
   \   00045F   00           DB 0
   \   000460   00           DB 0
   \   000461   80           DB 128
   \   000462   80           DB 128
   \   000463   F0           DB 240
   \   000464   88           DB 136
   \   000465   88           DB 136
   \   000466   88           DB 136
   \   000467   18           DB 24
   \   000468   00           DB 0
   \   000469   20           DB 32
   \   00046A   20           DB 32
   \   00046B   3F           DB 63
   \   00046C   20           DB 32
   \   00046D   20           DB 32
   \   00046E   00           DB 0
   \   00046F   00           DB 0
   \   000470   00           DB 0
   \   000471   00           DB 0
   \   000472   80           DB 128
   \   000473   80           DB 128
   \   000474   80           DB 128
   \   000475   80           DB 128
   \   000476   80           DB 128
   \   000477   00           DB 0
   \   000478   00           DB 0
   \   000479   6B           DB 107
   \   00047A   94           DB 148
   \   00047B   94           DB 148
   \   00047C   94           DB 148
   \   00047D   93           DB 147
   \   00047E   60           DB 96
   \   00047F   00           DB 0
   \   000480   08           DB 8
   \   000481   F8           DB 248
   \   000482   00           DB 0
   \   000483   80           DB 128
   \   000484   80           DB 128
   \   000485   80           DB 128
   \   000486   00           DB 0
   \   000487   00           DB 0
   \   000488   20           DB 32
   \   000489   3F           DB 63
   \   00048A   21           DB 33
   \   00048B   00           DB 0
   \   00048C   00           DB 0
   \   00048D   20           DB 32
   \   00048E   3F           DB 63
   \   00048F   20           DB 32
   \   000490   00           DB 0
   \   000491   80           DB 128
   \   000492   98           DB 152
   \   000493   98           DB 152
   \   000494   00           DB 0
   \   000495   00           DB 0
   \   000496   00           DB 0
   \   000497   00           DB 0
   \   000498   00           DB 0
   \   000499   20           DB 32
   \   00049A   20           DB 32
   \   00049B   3F           DB 63
   \   00049C   20           DB 32
   \   00049D   20           DB 32
   \   00049E   00           DB 0
   \   00049F   00           DB 0
   \   0004A0   00           DB 0
   \   0004A1   00           DB 0
   \   0004A2   00           DB 0
   \   0004A3   80           DB 128
   \   0004A4   98           DB 152
   \   0004A5   98           DB 152
   \   0004A6   00           DB 0
   \   0004A7   00           DB 0
   \   0004A8   00           DB 0
   \   0004A9   C0           DB 192
   \   0004AA   80           DB 128
   \   0004AB   80           DB 128
   \   0004AC   80           DB 128
   \   0004AD   7F           DB 127
   \   0004AE   00           DB 0
   \   0004AF   00           DB 0
   \   0004B0   08           DB 8
   \   0004B1   F8           DB 248
   \   0004B2   00           DB 0
   \   0004B3   00           DB 0
   \   0004B4   80           DB 128
   \   0004B5   80           DB 128
   \   0004B6   80           DB 128
   \   0004B7   00           DB 0
   \   0004B8   20           DB 32
   \   0004B9   3F           DB 63
   \   0004BA   24           DB 36
   \   0004BB   02           DB 2
   \   0004BC   2D           DB 45
   \   0004BD   30           DB 48
   \   0004BE   20           DB 32
   \   0004BF   00           DB 0
   \   0004C0   00           DB 0
   \   0004C1   08           DB 8
   \   0004C2   08           DB 8
   \   0004C3   F8           DB 248
   \   0004C4   00           DB 0
   \   0004C5   00           DB 0
   \   0004C6   00           DB 0
   \   0004C7   00           DB 0
   \   0004C8   00           DB 0
   \   0004C9   20           DB 32
   \   0004CA   20           DB 32
   \   0004CB   3F           DB 63
   \   0004CC   20           DB 32
   \   0004CD   20           DB 32
   \   0004CE   00           DB 0
   \   0004CF   00           DB 0
   \   0004D0   80           DB 128
   \   0004D1   80           DB 128
   \   0004D2   80           DB 128
   \   0004D3   80           DB 128
   \   0004D4   80           DB 128
   \   0004D5   80           DB 128
   \   0004D6   80           DB 128
   \   0004D7   00           DB 0
   \   0004D8   20           DB 32
   \   0004D9   3F           DB 63
   \   0004DA   20           DB 32
   \   0004DB   00           DB 0
   \   0004DC   3F           DB 63
   \   0004DD   20           DB 32
   \   0004DE   00           DB 0
   \   0004DF   3F           DB 63
   \   0004E0   80           DB 128
   \   0004E1   80           DB 128
   \   0004E2   00           DB 0
   \   0004E3   80           DB 128
   \   0004E4   80           DB 128
   \   0004E5   80           DB 128
   \   0004E6   00           DB 0
   \   0004E7   00           DB 0
   \   0004E8   20           DB 32
   \   0004E9   3F           DB 63
   \   0004EA   21           DB 33
   \   0004EB   00           DB 0
   \   0004EC   00           DB 0
   \   0004ED   20           DB 32
   \   0004EE   3F           DB 63
   \   0004EF   20           DB 32
   \   0004F0   00           DB 0
   \   0004F1   00           DB 0
   \   0004F2   80           DB 128
   \   0004F3   80           DB 128
   \   0004F4   80           DB 128
   \   0004F5   80           DB 128
   \   0004F6   00           DB 0
   \   0004F7   00           DB 0
   \   0004F8   00           DB 0
   \   0004F9   1F           DB 31
   \   0004FA   20           DB 32
   \   0004FB   20           DB 32
   \   0004FC   20           DB 32
   \   0004FD   20           DB 32
   \   0004FE   1F           DB 31
   \   0004FF   00           DB 0
   \   000500   80           DB 128
   \   000501   80           DB 128
   \   000502   00           DB 0
   \   000503   80           DB 128
   \   000504   80           DB 128
   \   000505   00           DB 0
   \   000506   00           DB 0
   \   000507   00           DB 0
   \   000508   80           DB 128
   \   000509   FF           DB 255
   \   00050A   A1           DB 161
   \   00050B   20           DB 32
   \   00050C   20           DB 32
   \   00050D   11           DB 17
   \   00050E   0E           DB 14
   \   00050F   00           DB 0
   \   000510   00           DB 0
   \   000511   00           DB 0
   \   000512   00           DB 0
   \   000513   80           DB 128
   \   000514   80           DB 128
   \   000515   80           DB 128
   \   000516   80           DB 128
   \   000517   00           DB 0
   \   000518   00           DB 0
   \   000519   0E           DB 14
   \   00051A   11           DB 17
   \   00051B   20           DB 32
   \   00051C   20           DB 32
   \   00051D   A0           DB 160
   \   00051E   FF           DB 255
   \   00051F   80           DB 128
   \   000520   80           DB 128
   \   000521   80           DB 128
   \   000522   80           DB 128
   \   000523   00           DB 0
   \   000524   80           DB 128
   \   000525   80           DB 128
   \   000526   80           DB 128
   \   000527   00           DB 0
   \   000528   20           DB 32
   \   000529   20           DB 32
   \   00052A   3F           DB 63
   \   00052B   21           DB 33
   \   00052C   20           DB 32
   \   00052D   00           DB 0
   \   00052E   01           DB 1
   \   00052F   00           DB 0
   \   000530   00           DB 0
   \   000531   00           DB 0
   \   000532   80           DB 128
   \   000533   80           DB 128
   \   000534   80           DB 128
   \   000535   80           DB 128
   \   000536   80           DB 128
   \   000537   00           DB 0
   \   000538   00           DB 0
   \   000539   33           DB 51
   \   00053A   24           DB 36
   \   00053B   24           DB 36
   \   00053C   24           DB 36
   \   00053D   24           DB 36
   \   00053E   19           DB 25
   \   00053F   00           DB 0
   \   000540   00           DB 0
   \   000541   80           DB 128
   \   000542   80           DB 128
   \   000543   E0           DB 224
   \   000544   80           DB 128
   \   000545   80           DB 128
   \   000546   00           DB 0
   \   000547   00           DB 0
   \   000548   00           DB 0
   \   000549   00           DB 0
   \   00054A   00           DB 0
   \   00054B   1F           DB 31
   \   00054C   20           DB 32
   \   00054D   20           DB 32
   \   00054E   00           DB 0
   \   00054F   00           DB 0
   \   000550   80           DB 128
   \   000551   80           DB 128
   \   000552   00           DB 0
   \   000553   00           DB 0
   \   000554   00           DB 0
   \   000555   80           DB 128
   \   000556   80           DB 128
   \   000557   00           DB 0
   \   000558   00           DB 0
   \   000559   1F           DB 31
   \   00055A   20           DB 32
   \   00055B   20           DB 32
   \   00055C   20           DB 32
   \   00055D   10           DB 16
   \   00055E   3F           DB 63
   \   00055F   20           DB 32
   \   000560   80           DB 128
   \   000561   80           DB 128
   \   000562   80           DB 128
   \   000563   00           DB 0
   \   000564   00           DB 0
   \   000565   80           DB 128
   \   000566   80           DB 128
   \   000567   80           DB 128
   \   000568   00           DB 0
   \   000569   01           DB 1
   \   00056A   0E           DB 14
   \   00056B   30           DB 48
   \   00056C   08           DB 8
   \   00056D   06           DB 6
   \   00056E   01           DB 1
   \   00056F   00           DB 0
   \   000570   80           DB 128
   \   000571   80           DB 128
   \   000572   00           DB 0
   \   000573   80           DB 128
   \   000574   00           DB 0
   \   000575   80           DB 128
   \   000576   80           DB 128
   \   000577   80           DB 128
   \   000578   0F           DB 15
   \   000579   30           DB 48
   \   00057A   0C           DB 12
   \   00057B   03           DB 3
   \   00057C   0C           DB 12
   \   00057D   30           DB 48
   \   00057E   0F           DB 15
   \   00057F   00           DB 0
   \   000580   00           DB 0
   \   000581   80           DB 128
   \   000582   80           DB 128
   \   000583   00           DB 0
   \   000584   80           DB 128
   \   000585   80           DB 128
   \   000586   80           DB 128
   \   000587   00           DB 0
   \   000588   00           DB 0
   \   000589   20           DB 32
   \   00058A   31           DB 49
   \   00058B   2E           DB 46
   \   00058C   0E           DB 14
   \   00058D   31           DB 49
   \   00058E   20           DB 32
   \   00058F   00           DB 0
   \   000590   80           DB 128
   \   000591   80           DB 128
   \   000592   80           DB 128
   \   000593   00           DB 0
   \   000594   00           DB 0
   \   000595   80           DB 128
   \   000596   80           DB 128
   \   000597   80           DB 128
   \   000598   80           DB 128
   \   000599   81           DB 129
   \   00059A   8E           DB 142
   \   00059B   70           DB 112
   \   00059C   18           DB 24
   \   00059D   06           DB 6
   \   00059E   01           DB 1
   \   00059F   00           DB 0
   \   0005A0   00           DB 0
   \   0005A1   80           DB 128
   \   0005A2   80           DB 128
   \   0005A3   80           DB 128
   \   0005A4   80           DB 128
   \   0005A5   80           DB 128
   \   0005A6   80           DB 128
   \   0005A7   00           DB 0
   \   0005A8   00           DB 0
   \   0005A9   21           DB 33
   \   0005AA   30           DB 48
   \   0005AB   2C           DB 44
   \   0005AC   22           DB 34
   \   0005AD   21           DB 33
   \   0005AE   30           DB 48
   \   0005AF   00           DB 0
   \   0005B0   00           DB 0
   \   0005B1   00           DB 0
   \   0005B2   00           DB 0
   \   0005B3   00           DB 0
   \   0005B4   80           DB 128
   \   0005B5   7C           DB 124
   \   0005B6   02           DB 2
   \   0005B7   02           DB 2
   \   0005B8   00           DB 0
   \   0005B9   00           DB 0
   \   0005BA   00           DB 0
   \   0005BB   00           DB 0
   \   0005BC   00           DB 0
   \   0005BD   3F           DB 63
   \   0005BE   40           DB 64
   \   0005BF   40           DB 64
   \   0005C0   00           DB 0
   \   0005C1   00           DB 0
   \   0005C2   00           DB 0
   \   0005C3   00           DB 0
   \   0005C4   FF           DB 255
   \   0005C5   00           DB 0
   \   0005C6   00           DB 0
   \   0005C7   00           DB 0
   \   0005C8   00           DB 0
   \   0005C9   00           DB 0
   \   0005CA   00           DB 0
   \   0005CB   00           DB 0
   \   0005CC   FF           DB 255
   \   0005CD   00           DB 0
   \   0005CE   00           DB 0
   \   0005CF   00           DB 0
   \   0005D0   00           DB 0
   \   0005D1   02           DB 2
   \   0005D2   02           DB 2
   \   0005D3   7C           DB 124
   \   0005D4   80           DB 128
   \   0005D5   00           DB 0
   \   0005D6   00           DB 0
   \   0005D7   00           DB 0
   \   0005D8   00           DB 0
   \   0005D9   40           DB 64
   \   0005DA   40           DB 64
   \   0005DB   3F           DB 63
   \   0005DC   00           DB 0
   \   0005DD   00           DB 0
   \   0005DE   00           DB 0
   \   0005DF   00           DB 0
   \   0005E0   00           DB 0
   \   0005E1   06           DB 6
   \   0005E2   01           DB 1
   \   0005E3   01           DB 1
   \   0005E4   02           DB 2
   \   0005E5   02           DB 2
   \   0005E6   04           DB 4
   \   0005E7   04           DB 4
   \   0005E8   00           DB 0
   \   0005E9   00           DB 0
   \   0005EA   00           DB 0
   \   0005EB   00           DB 0
   \   0005EC   00           DB 0
   \   0005ED   00           DB 0
   \   0005EE   00           DB 0
   \   0005EF   00           DB 0

   \                                 In  segment XDATA_I, align 1, keep-with-next
   \   unsigned char BMP[256]
   \                     BMP:
   \   000000                DS 256
   \   000100                REQUIRE `?<Initializer for BMP>`
   \   000100                REQUIRE __INIT_XDATA_I

   \                                 In  segment XDATA_Z, align 1, keep-with-next
   \   unsigned char BMP1[512]
   \                     BMP1:
   \   000000                DS 512
   \   000200                REQUIRE __INIT_XDATA_Z

   \                                 In  segment XDATA_I, align 1, keep-with-next
   \   unsigned char BMP2[1024]
   \                     BMP2:
   \   000000                DS 1024
   \   000400                REQUIRE `?<Initializer for BMP2>`
   \   000400                REQUIRE __INIT_XDATA_I

   \                                 In  segment XDATA_Z, align 1, keep-with-next
   \   unsigned char g_LcdBuff[8][128]
   \                     g_LcdBuff:
   \   000000                DS 1024
   \   000400                REQUIRE __INIT_XDATA_Z

   \                                 In  segment BANKED_CODE, align 1, keep-with-next
   \   __banked_func __xdata_reentrant void DelayMS(unsigned int)
   \                     DelayMS:
   \   000000                ; Saved register size: 0
   \   000000                ; Auto size: 0
   \   000000   7800         MOV     R0,#0x0
   \   000002   7900         MOV     R1,#0x0
   \   000004   8008         SJMP    ??DelayMS_0
   \                     ??DelayMS_1:
   \   000006   E8           MOV     A,R0
   \   000007   2401         ADD     A,#0x1
   \   000009   08           INC     R0
   \   00000A   E9           MOV     A,R1
   \   00000B   3400         ADDC    A,#0x0
   \   00000D   F9           MOV     R1,A
   \                     ??DelayMS_0:
   \   00000E   C3           CLR     C
   \   00000F   E8           MOV     A,R0
   \   000010   9A           SUBB    A,R2
   \   000011   E9           MOV     A,R1
   \   000012   9B           SUBB    A,R3
   \   000013   40F1         JC      ??DelayMS_1
   \   000015   02....       LJMP    ?BRET

   \                                 In  segment BANKED_CODE, align 1, keep-with-next
   \   __banked_func __xdata_reentrant void LCD_DLY_ms(unsigned int)
   \                     LCD_DLY_ms:
   \   000000                ; Saved register size: 0
   \   000000                ; Auto size: 0
   \   000000   801C         SJMP    ??LCD_DLY_ms_0
   \                     ??LCD_DLY_ms_1:
   \   000002   7808         MOV     R0,#0x8
   \   000004   7907         MOV     R1,#0x7
   \                     ??LCD_DLY_ms_2:
   \   000006   E8           MOV     A,R0
   \   000007   FC           MOV     R4,A
   \   000008   E9           MOV     A,R1
   \   000009   FD           MOV     R5,A
   \   00000A   EC           MOV     A,R4
   \   00000B   24FF         ADD     A,#-0x1
   \   00000D   18           DEC     R0
   \   00000E   ED           MOV     A,R5
   \   00000F   34FF         ADDC    A,#-0x1
   \   000011   F9           MOV     R1,A
   \   000012   EC           MOV     A,R4
   \   000013   4D           ORL     A,R5
   \   000014   70F0         JNZ     ??LCD_DLY_ms_2
   \   000016   EA           MOV     A,R2
   \   000017   24FF         ADD     A,#-0x1
   \   000019   1A           DEC     R2
   \   00001A   EB           MOV     A,R3
   \   00001B   34FF         ADDC    A,#-0x1
   \   00001D   FB           MOV     R3,A
   \                     ??LCD_DLY_ms_0:
   \   00001E   EA           MOV     A,R2
   \   00001F   4B           ORL     A,R3
   \   000020   70E0         JNZ     ??LCD_DLY_ms_1
   \   000022   02....       LJMP    ?BRET

   \                                 In  segment BANKED_CODE, align 1, keep-with-next
   \   __banked_func __xdata_reentrant void LCD_WrDat(unsigned char)
   \                     LCD_WrDat:
   \   000000                ; Saved register size: 0
   \   000000                ; Auto size: 0
   \   000000   D280         SETB    0x80.0
   \   000002   7808         MOV     R0,#0x8
   \                     ??LCD_WrDat_0:
   \   000004   C294         CLR     0x90.4
   \   000006   E9           MOV     A,R1
   \   000007   A2E7         MOV     C,0xE0 /* A   */.7
   \   000009   4004         JC      ??LCD_WrDat_1
   \   00000B   C295         CLR     0x90.5
   \   00000D   8002         SJMP    ??LCD_WrDat_2
   \                     ??LCD_WrDat_1:
   \   00000F   D295         SETB    0x90.5
   \                     ??LCD_WrDat_2:
   \   000011   D294         SETB    0x90.4
   \   000013   C3           CLR     C
   \   000014   33           RLC     A
   \   000015   F9           MOV     R1,A
   \   000016   18           DEC     R0
   \   000017   E8           MOV     A,R0
   \   000018   70EA         JNZ     ??LCD_WrDat_0
   \   00001A   02....       LJMP    ?BRET
   \   00001D                REQUIRE _A_P0
   \   00001D                REQUIRE _A_P1

   \                                 In  segment BANKED_CODE, align 1, keep-with-next
   \   __banked_func __xdata_reentrant void LCD_WrCmd(unsigned char)
   \                     LCD_WrCmd:
   \   000000                ; Saved register size: 0
   \   000000                ; Auto size: 0
   \   000000   C280         CLR     0x80.0
   \   000002   7808         MOV     R0,#0x8
   \                     ??LCD_WrCmd_0:
   \   000004   C294         CLR     0x90.4
   \   000006   E9           MOV     A,R1
   \   000007   A2E7         MOV     C,0xE0 /* A   */.7
   \   000009   4004         JC      ??LCD_WrCmd_1
   \   00000B   C295         CLR     0x90.5
   \   00000D   8002         SJMP    ??LCD_WrCmd_2
   \                     ??LCD_WrCmd_1:
   \   00000F   D295         SETB    0x90.5
   \                     ??LCD_WrCmd_2:
   \   000011   D294         SETB    0x90.4
   \   000013   C3           CLR     C
   \   000014   33           RLC     A
   \   000015   F9           MOV     R1,A
   \   000016   18           DEC     R0
   \   000017   E8           MOV     A,R0
   \   000018   70EA         JNZ     ??LCD_WrCmd_0
   \   00001A   02....       LJMP    ?BRET
   \   00001D                REQUIRE _A_P0
   \   00001D                REQUIRE _A_P1

   \                                 In  segment BANKED_CODE, align 1, keep-with-next
   \   __banked_func __xdata_reentrant void LCD_Set_Pos(unsigned char, unsigned char)
   \                     LCD_Set_Pos:
   \   000000   74F7         MOV     A,#-0x9
   \   000002   12....       LCALL   ?BANKED_ENTER_XDATA
   \   000005                ; Saved register size: 9
   \   000005                ; Auto size: 0
   \   000005   E9           MOV     A,R1
   \   000006   FE           MOV     R6,A
   \   000007   EA           MOV     A,R2
   \   000008   FF           MOV     R7,A
   \   000009                ; Setup parameters for call to function LCD_WrCmd
   \   000009   74B0         MOV     A,#-0x50
   \   00000B   2F           ADD     A,R7
   \   00000C   F9           MOV     R1,A
   \   00000D   12....       LCALL   ??LCD_WrCmd?relay
   \   000010                ; Setup parameters for call to function LCD_WrCmd
   \   000010   EE           MOV     A,R6
   \   000011   C4           SWAP    A
   \   000012   540F         ANL     A,#0xf
   \   000014   4410         ORL     A,#0x10
   \   000016   F9           MOV     R1,A
   \   000017   12....       LCALL   ??LCD_WrCmd?relay
   \   00001A                ; Setup parameters for call to function LCD_WrCmd
   \   00001A   740F         MOV     A,#0xf
   \   00001C   5E           ANL     A,R6
   \   00001D   4401         ORL     A,#0x1
   \   00001F   F9           MOV     R1,A
   \   000020   12....       LCALL   ??LCD_WrCmd?relay
   \   000023                REQUIRE ?Subroutine0
   \   000023                ; // Fall through to label ?Subroutine0

   \                                 In  segment BANKED_CODE, align 1, keep-with-next
   \                     ?Subroutine0:
   \   000000   7F01         MOV     R7,#0x1
   \   000002   02....       LJMP    ?BANKED_LEAVE_XDATA

   \                                 In  segment BANKED_CODE, align 1, keep-with-next
   \   __banked_func __xdata_reentrant void LCD_Fill(unsigned char)
   \                     LCD_Fill:
   \   000000   74F7         MOV     A,#-0x9
   \   000002   12....       LCALL   ?BANKED_ENTER_XDATA
   \   000005                ; Saved register size: 9
   \   000005                ; Auto size: 0
   \   000005   E9           MOV     A,R1
   \   000006   FE           MOV     R6,A
   \   000007   75..00       MOV     ?V0 + 0,#0x0
   \                     ??LCD_Fill_0:
   \   00000A                ; Setup parameters for call to function LCD_WrCmd
   \   00000A   74B0         MOV     A,#-0x50
   \   00000C   25..         ADD     A,?V0 + 0
   \   00000E   12....       LCALL   ?Subroutine5 & 0xFFFF
   \                     ??CrossCallReturnLabel_2:
   \   000011   7F80         MOV     R7,#-0x80
   \                     ??LCD_Fill_1:
   \   000013                ; Setup parameters for call to function LCD_WrDat
   \   000013   EE           MOV     A,R6
   \   000014   F9           MOV     R1,A
   \   000015   12....       LCALL   ??LCD_WrDat?relay
   \   000018   1F           DEC     R7
   \   000019   EF           MOV     A,R7
   \   00001A   70F7         JNZ     ??LCD_Fill_1
   \   00001C   05..         INC     ?V0 + 0
   \   00001E   E5..         MOV     A,?V0 + 0
   \   000020   C3           CLR     C
   \   000021   9408         SUBB    A,#0x8
   \   000023   40E5         JC      ??LCD_Fill_0
   \   000025   80..         SJMP    ?Subroutine0

   \                                 In  segment BANKED_CODE, align 1, keep-with-next
   \                     ?Subroutine5:
   \   000000   F9           MOV     R1,A
   \   000001   12....       LCALL   ??LCD_WrCmd?relay
   \   000004                ; Setup parameters for call to function LCD_WrCmd
   \   000004                ; Setup parameters for call to function LCD_WrCmd
   \   000004   7901         MOV     R1,#0x1
   \   000006   12....       LCALL   ??LCD_WrCmd?relay
   \   000009                ; Setup parameters for call to function LCD_WrCmd
   \   000009                ; Setup parameters for call to function LCD_WrCmd
   \   000009   7910         MOV     R1,#0x10
   \   00000B   12....       LCALL   ??LCD_WrCmd?relay
   \   00000E   22           RET

   \                                 In  segment BANKED_CODE, align 1, keep-with-next
   \   __banked_func __xdata_reentrant void LCD_CLS(void)
   \                     LCD_CLS:
   \   000000   74F7         MOV     A,#-0x9
   \   000002   12....       LCALL   ?BANKED_ENTER_XDATA
   \   000005                ; Saved register size: 9
   \   000005                ; Auto size: 0
   \   000005   7F00         MOV     R7,#0x0
   \                     ??LCD_CLS_0:
   \   000007                ; Setup parameters for call to function LCD_WrCmd
   \   000007   74B0         MOV     A,#-0x50
   \   000009   2F           ADD     A,R7
   \   00000A   12....       LCALL   ?Subroutine5 & 0xFFFF
   \                     ??CrossCallReturnLabel_3:
   \   00000D   7E80         MOV     R6,#-0x80
   \                     ??LCD_CLS_1:
   \   00000F                ; Setup parameters for call to function LCD_WrDat
   \   00000F   7900         MOV     R1,#0x0
   \   000011   12....       LCALL   ??LCD_WrDat?relay
   \   000014   1E           DEC     R6
   \   000015   EE           MOV     A,R6
   \   000016   70F7         JNZ     ??LCD_CLS_1
   \   000018   0F           INC     R7
   \   000019   EF           MOV     A,R7
   \   00001A   C3           CLR     C
   \   00001B   9408         SUBB    A,#0x8
   \   00001D   40E8         JC      ??LCD_CLS_0
   \   00001F   80..         SJMP    ?Subroutine0

   \                                 In  segment BANKED_CODE, align 1, keep-with-next
   \   __banked_func __xdata_reentrant void LCD_Init(void)
   \                     LCD_Init:
   \   000000   C082         PUSH    DPL
   \   000002   C083         PUSH    DPH
   \   000004                ; Saved register size: 2
   \   000004                ; Auto size: 0
   \   000004   53F3FE       ANL     0xf3,#0xfe
   \   000007   43FD01       ORL     0xfd,#0x1
   \   00000A   53F48F       ANL     0xf4,#0x8f
   \   00000D   43FE70       ORL     0xfe,#0x70
   \   000010   D294         SETB    0x90.4
   \   000012   C296         CLR     0x90.6
   \   000014                ; Setup parameters for call to function LCD_DLY_ms
   \   000014   7A32         MOV     R2,#0x32
   \   000016   7B00         MOV     R3,#0x0
   \   000018   12....       LCALL   ??LCD_DLY_ms?relay
   \   00001B   D296         SETB    0x90.6
   \   00001D                ; Setup parameters for call to function LCD_WrCmd
   \   00001D   79AE         MOV     R1,#-0x52
   \   00001F   12....       LCALL   ?Subroutine9 & 0xFFFF
   \                     ??CrossCallReturnLabel_8:
   \   000022                ; Setup parameters for call to function LCD_WrCmd
   \   000022   7910         MOV     R1,#0x10
   \   000024   12....       LCALL   ?Subroutine10 & 0xFFFF
   \                     ??CrossCallReturnLabel_10:
   \   000027                ; Setup parameters for call to function LCD_WrCmd
   \   000027   7981         MOV     R1,#-0x7f
   \   000029   12....       LCALL   ??LCD_WrCmd?relay
   \   00002C                ; Setup parameters for call to function LCD_WrCmd
   \   00002C   79CF         MOV     R1,#-0x31
   \   00002E   12....       LCALL   ??LCD_WrCmd?relay
   \   000031                ; Setup parameters for call to function LCD_WrCmd
   \   000031   79A1         MOV     R1,#-0x5f
   \   000033   12....       LCALL   ??LCD_WrCmd?relay
   \   000036                ; Setup parameters for call to function LCD_WrCmd
   \   000036   79C8         MOV     R1,#-0x38
   \   000038   12....       LCALL   ?Subroutine11 & 0xFFFF
   \                     ??CrossCallReturnLabel_12:
   \   00003B                ; Setup parameters for call to function LCD_WrCmd
   \   00003B   79A8         MOV     R1,#-0x58
   \   00003D   12....       LCALL   ??LCD_WrCmd?relay
   \   000040                ; Setup parameters for call to function LCD_WrCmd
   \   000040   793F         MOV     R1,#0x3f
   \   000042   12....       LCALL   ??LCD_WrCmd?relay
   \   000045                ; Setup parameters for call to function LCD_WrCmd
   \   000045   79D3         MOV     R1,#-0x2d
   \   000047   12....       LCALL   ?Subroutine9 & 0xFFFF
   \                     ??CrossCallReturnLabel_9:
   \   00004A                ; Setup parameters for call to function LCD_WrCmd
   \   00004A   79D5         MOV     R1,#-0x2b
   \   00004C   12....       LCALL   ??LCD_WrCmd?relay
   \   00004F                ; Setup parameters for call to function LCD_WrCmd
   \   00004F   7980         MOV     R1,#-0x80
   \   000051   12....       LCALL   ??LCD_WrCmd?relay
   \   000054                ; Setup parameters for call to function LCD_WrCmd
   \   000054   79D9         MOV     R1,#-0x27
   \   000056   12....       LCALL   ??LCD_WrCmd?relay
   \   000059                ; Setup parameters for call to function LCD_WrCmd
   \   000059   79F1         MOV     R1,#-0xf
   \   00005B   12....       LCALL   ??LCD_WrCmd?relay
   \   00005E                ; Setup parameters for call to function LCD_WrCmd
   \   00005E   79DA         MOV     R1,#-0x26
   \   000060   12....       LCALL   ??LCD_WrCmd?relay
   \   000063                ; Setup parameters for call to function LCD_WrCmd
   \   000063   7912         MOV     R1,#0x12
   \   000065   12....       LCALL   ??LCD_WrCmd?relay
   \   000068                ; Setup parameters for call to function LCD_WrCmd
   \   000068   79DB         MOV     R1,#-0x25
   \   00006A   12....       LCALL   ?Subroutine10 & 0xFFFF
   \                     ??CrossCallReturnLabel_11:
   \   00006D                ; Setup parameters for call to function LCD_WrCmd
   \   00006D   7920         MOV     R1,#0x20
   \   00006F   12....       LCALL   ??LCD_WrCmd?relay
   \   000072                ; Setup parameters for call to function LCD_WrCmd
   \   000072   7902         MOV     R1,#0x2
   \   000074   12....       LCALL   ??LCD_WrCmd?relay
   \   000077                ; Setup parameters for call to function LCD_WrCmd
   \   000077   798D         MOV     R1,#-0x73
   \   000079   12....       LCALL   ??LCD_WrCmd?relay
   \   00007C                ; Setup parameters for call to function LCD_WrCmd
   \   00007C   7914         MOV     R1,#0x14
   \   00007E   12....       LCALL   ??LCD_WrCmd?relay
   \   000081                ; Setup parameters for call to function LCD_WrCmd
   \   000081   79A4         MOV     R1,#-0x5c
   \   000083   12....       LCALL   ?Subroutine11 & 0xFFFF
   \                     ??CrossCallReturnLabel_13:
   \   000086                ; Setup parameters for call to function LCD_WrCmd
   \   000086   79AF         MOV     R1,#-0x51
   \   000088   12....       LCALL   ??LCD_WrCmd?relay
   \   00008B                ; Setup parameters for call to function LCD_Fill
   \   00008B   79FF         MOV     R1,#-0x1
   \   00008D   12....       LCALL   ??LCD_Fill?relay
   \   000090                ; Setup parameters for call to function LCD_Set_Pos
   \   000090   7A00         MOV     R2,#0x0
   \   000092   7900         MOV     R1,#0x0
   \   000094   12....       LCALL   ??LCD_Set_Pos?relay
   \   000097   D083         POP     DPH
   \   000099   D082         POP     DPL
   \   00009B   02....       LJMP    ?BRET
   \   00009E                REQUIRE P0SEL
   \   00009E                REQUIRE P0DIR
   \   00009E                REQUIRE P1SEL
   \   00009E                REQUIRE P1DIR
   \   00009E                REQUIRE _A_P1

   \                                 In  segment BANKED_CODE, align 1, keep-with-next
   \                     ?Subroutine11:
   \   000000   12....       LCALL   ??LCD_WrCmd?relay
   \   000003                ; Setup parameters for call to function LCD_WrCmd
   \   000003                ; Setup parameters for call to function LCD_WrCmd
   \   000003   79A6         MOV     R1,#-0x5a
   \   000005   12....       LCALL   ??LCD_WrCmd?relay
   \   000008   22           RET

   \                                 In  segment BANKED_CODE, align 1, keep-with-next
   \                     ?Subroutine10:
   \   000000   12....       LCALL   ??LCD_WrCmd?relay
   \   000003                ; Setup parameters for call to function LCD_WrCmd
   \   000003                ; Setup parameters for call to function LCD_WrCmd
   \   000003   7940         MOV     R1,#0x40
   \   000005   12....       LCALL   ??LCD_WrCmd?relay
   \   000008   22           RET

   \                                 In  segment BANKED_CODE, align 1, keep-with-next
   \                     ?Subroutine9:
   \   000000   12....       LCALL   ??LCD_WrCmd?relay
   \   000003                ; Setup parameters for call to function LCD_WrCmd
   \   000003                ; Setup parameters for call to function LCD_WrCmd
   \   000003   7900         MOV     R1,#0x0
   \   000005   12....       LCALL   ??LCD_WrCmd?relay
   \   000008   22           RET

   \                                 In  segment BANKED_CODE, align 1, keep-with-next
   \   __banked_func __xdata_reentrant void LCD_P6x8Str(unsigned char, unsigned char, unsigned char *)
   \                     LCD_P6x8Str:
   \   000000   74F1         MOV     A,#-0xf
   \   000002   12....       LCALL   ?BANKED_ENTER_XDATA
   \   000005                ; Saved register size: 15
   \   000005                ; Auto size: 0
   \   000005   89..         MOV     ?V0 + 0,R1
   \   000007   8A..         MOV     ?V0 + 1,R2
   \   000009   EC           MOV     A,R4
   \   00000A   FE           MOV     R6,A
   \   00000B   ED           MOV     A,R5
   \   00000C   FF           MOV     R7,A
   \   00000D   75..00       MOV     ?V0 + 4,#0x0
   \   000010   804C         SJMP    ??LCD_P6x8Str_0
   \                     ??LCD_P6x8Str_1:
   \   000012   24E0         ADD     A,#-0x20
   \   000014   F5..         MOV     ?V0 + 6,A
   \   000016   E5..         MOV     A,?V0 + 0
   \   000018   C3           CLR     C
   \   000019   947F         SUBB    A,#0x7f
   \   00001B   4005         JC      ??LCD_P6x8Str_2
   \   00001D   75..00       MOV     ?V0 + 0,#0x0
   \   000020   05..         INC     ?V0 + 1
   \                     ??LCD_P6x8Str_2:
   \   000022                ; Setup parameters for call to function LCD_Set_Pos
   \   000022   AA..         MOV     R2,?V0 + 1
   \   000024   A9..         MOV     R1,?V0 + 0
   \   000026   12....       LCALL   ??LCD_Set_Pos?relay
   \   000029   75..00       MOV     ?V0 + 5,#0x0
   \                     ??LCD_P6x8Str_3:
   \   00002C                ; Setup parameters for call to function LCD_WrDat
   \   00002C   85....       MOV     ?V0 + 2,?V0 + 5
   \   00002F   E5..         MOV     A,?V0 + 6
   \   000031   75F006       MOV     B,#0x6
   \   000034   A4           MUL     AB
   \   000035   F8           MOV     R0,A
   \   000036   A9F0         MOV     R1,B
   \   000038   74..         MOV     A,#F6x8 & 0xff
   \   00003A   28           ADD     A,R0
   \   00003B   F8           MOV     R0,A
   \   00003C   74..         MOV     A,#(F6x8 >> 8) & 0xff
   \   00003E   39           ADDC    A,R1
   \   00003F   F9           MOV     R1,A
   \   000040   E8           MOV     A,R0
   \   000041   25..         ADD     A,?V0 + 2
   \   000043   F582         MOV     DPL,A
   \   000045   E9           MOV     A,R1
   \   000046   12....       LCALL   ??Subroutine23_0 & 0xFFFF
   \                     ??CrossCallReturnLabel_46:
   \   000049   F9           MOV     R1,A
   \   00004A   12....       LCALL   ??LCD_WrDat?relay
   \   00004D   05..         INC     ?V0 + 5
   \   00004F   E5..         MOV     A,?V0 + 5
   \   000051   C3           CLR     C
   \   000052   9406         SUBB    A,#0x6
   \   000054   40D6         JC      ??LCD_P6x8Str_3
   \   000056   7406         MOV     A,#0x6
   \   000058   25..         ADD     A,?V0 + 0
   \   00005A   F5..         MOV     ?V0 + 0,A
   \   00005C   05..         INC     ?V0 + 4
   \                     ??LCD_P6x8Str_0:
   \   00005E   85....       MOV     ?V0 + 2,?V0 + 4
   \   000061   12....       LCALL   ?Subroutine8 & 0xFFFF
   \                     ??CrossCallReturnLabel_48:
   \   000064   70AC         JNZ     ??LCD_P6x8Str_1
   \   000066   7F07         MOV     R7,#0x7
   \   000068   02....       LJMP    ?BANKED_LEAVE_XDATA

   \                                 In  segment BANKED_CODE, align 1, keep-with-next
   \                     ?Subroutine8:
   \   000000   EE           MOV     A,R6
   \   000001   25..         ADD     A,?V0 + 2
   \   000003   F582         MOV     DPL,A
   \   000005   EF           MOV     A,R7
   \   000006                REQUIRE ??Subroutine23_0
   \   000006                ; // Fall through to label ??Subroutine23_0

   \                                 In  segment BANKED_CODE, align 1, keep-with-next
   \                     ??Subroutine23_0:
   \   000000   3400         ADDC    A,#0x0
   \   000002   F583         MOV     DPH,A
   \   000004   E0           MOVX    A,@DPTR
   \   000005   22           RET

   \                                 In  segment BANKED_CODE, align 1, keep-with-next
   \   __banked_func __xdata_reentrant void LCD_P8x16Str(unsigned char, unsigned char, unsigned char *)
   \                     LCD_P8x16Str:
   \   000000   74EF         MOV     A,#-0x11
   \   000002   12....       LCALL   ?BANKED_ENTER_XDATA
   \   000005                ; Saved register size: 17
   \   000005                ; Auto size: 0
   \   000005   89..         MOV     ?V0 + 0,R1
   \   000007   8A..         MOV     ?V0 + 1,R2
   \   000009   EC           MOV     A,R4
   \   00000A   FE           MOV     R6,A
   \   00000B   ED           MOV     A,R5
   \   00000C   FF           MOV     R7,A
   \   00000D   75..00       MOV     ?V0 + 7,#0x0
   \   000010   8060         SJMP    ??LCD_P8x16Str_0
   \                     ??LCD_P8x16Str_1:
   \   000012   24E0         ADD     A,#-0x20
   \   000014   F5..         MOV     ?V0 + 8,A
   \   000016   E5..         MOV     A,?V0 + 0
   \   000018   C3           CLR     C
   \   000019   9479         SUBB    A,#0x79
   \   00001B   4005         JC      ??LCD_P8x16Str_2
   \   00001D   75..00       MOV     ?V0 + 0,#0x0
   \   000020   05..         INC     ?V0 + 1
   \                     ??LCD_P8x16Str_2:
   \   000022                ; Setup parameters for call to function LCD_Set_Pos
   \   000022   AA..         MOV     R2,?V0 + 1
   \   000024   A9..         MOV     R1,?V0 + 0
   \   000026   12....       LCALL   ??LCD_Set_Pos?relay
   \   000029   75..00       MOV     ?V0 + 6,#0x0
   \                     ??LCD_P8x16Str_3:
   \   00002C                ; Setup parameters for call to function LCD_WrDat
   \   00002C   85....       MOV     ?V0 + 4,?V0 + 8
   \   00002F   75..00       MOV     ?V0 + 5,#0x0
   \   000032   7404         MOV     A,#0x4
   \   000034   78..         MOV     R0,#?V0 + 4
   \   000036   12....       LCALL   ?S_SHL
   \   000039   12....       LCALL   ?Subroutine16 & 0xFFFF
   \                     ??CrossCallReturnLabel_27:
   \   00003C   74..         MOV     A,#F8X16 & 0xff
   \   00003E   28           ADD     A,R0
   \   00003F   F582         MOV     DPL,A
   \   000041   74..         MOV     A,#(F8X16 >> 8) & 0xff
   \   000043   12....       LCALL   ?Subroutine6 & 0xFFFF
   \                     ??CrossCallReturnLabel_4:
   \   000046   40E4         JC      ??LCD_P8x16Str_3
   \   000048                ; Setup parameters for call to function LCD_Set_Pos
   \   000048   12....       LCALL   ?Subroutine15 & 0xFFFF
   \                     ??CrossCallReturnLabel_25:
   \   00004B   75..00       MOV     ?V0 + 6,#0x0
   \                     ??LCD_P8x16Str_4:
   \   00004E                ; Setup parameters for call to function LCD_WrDat
   \   00004E   85....       MOV     ?V0 + 4,?V0 + 8
   \   000051   75..00       MOV     ?V0 + 5,#0x0
   \   000054   7404         MOV     A,#0x4
   \   000056   78..         MOV     R0,#?V0 + 4
   \   000058   12....       LCALL   ?S_SHL
   \   00005B   12....       LCALL   ?Subroutine16 & 0xFFFF
   \                     ??CrossCallReturnLabel_28:
   \   00005E   74..         MOV     A,#(F8X16 + 8) & 0xff
   \   000060   28           ADD     A,R0
   \   000061   F582         MOV     DPL,A
   \   000063   74..         MOV     A,#((F8X16 + 8) >> 8) & 0xff
   \   000065   12....       LCALL   ?Subroutine6 & 0xFFFF
   \                     ??CrossCallReturnLabel_5:
   \   000068   40E4         JC      ??LCD_P8x16Str_4
   \   00006A   7408         MOV     A,#0x8
   \   00006C   25..         ADD     A,?V0 + 0
   \   00006E   F5..         MOV     ?V0 + 0,A
   \   000070   05..         INC     ?V0 + 7
   \                     ??LCD_P8x16Str_0:
   \   000072   85....       MOV     ?V0 + 2,?V0 + 7
   \   000075   12....       LCALL   ?Subroutine8 & 0xFFFF
   \                     ??CrossCallReturnLabel_49:
   \   000078   7098         JNZ     ??LCD_P8x16Str_1
   \   00007A   7F09         MOV     R7,#0x9
   \   00007C   02....       LJMP    ?BANKED_LEAVE_XDATA

   \                                 In  segment BANKED_CODE, align 1, keep-with-next
   \                     ?Subroutine16:
   \   000000   85....       MOV     ?V0 + 2,?V0 + 6
   \   000003   E5..         MOV     A,?V0 + 4
   \   000005   25..         ADD     A,?V0 + 2
   \   000007   F8           MOV     R0,A
   \   000008   E5..         MOV     A,?V0 + 5
   \   00000A   3400         ADDC    A,#0x0
   \   00000C   F9           MOV     R1,A
   \   00000D   22           RET

   \                                 In  segment BANKED_CODE, align 1, keep-with-next
   \                     ?Subroutine6:
   \   000000   39           ADDC    A,R1
   \   000001   12....       LCALL   ?Subroutine20 & 0xFFFF
   \                     ??CrossCallReturnLabel_40:
   \   000004   05..         INC     ?V0 + 6
   \   000006   E5..         MOV     A,?V0 + 6
   \   000008   C3           CLR     C
   \   000009   9408         SUBB    A,#0x8
   \   00000B   22           RET

   \                                 In  segment BANKED_CODE, align 1, keep-with-next
   \                     ?Subroutine15:
   \   000000   7401         MOV     A,#0x1
   \   000002   25..         ADD     A,?V0 + 1
   \   000004   FA           MOV     R2,A
   \   000005   A9..         MOV     R1,?V0 + 0
   \   000007   12....       LCALL   ??LCD_Set_Pos?relay
   \   00000A   22           RET

   \                                 In  segment BANKED_CODE, align 1, keep-with-next
   \                     ?Subroutine20:
   \   000000   F583         MOV     DPH,A
   \   000002   E0           MOVX    A,@DPTR
   \   000003   F9           MOV     R1,A
   \   000004   12....       LCALL   ??LCD_WrDat?relay
   \   000007   22           RET

   \                                 In  segment BANKED_CODE, align 1, keep-with-next
   \   __banked_func __xdata_reentrant void LCD_P16x16Ch(unsigned char, unsigned char, unsigned char)
   \                     LCD_P16x16Ch:
   \   000000   74F3         MOV     A,#-0xd
   \   000002   12....       LCALL   ?BANKED_ENTER_XDATA
   \   000005                ; Saved register size: 13
   \   000005                ; Auto size: 0
   \   000005   89..         MOV     ?V0 + 0,R1
   \   000007   8A..         MOV     ?V0 + 1,R2
   \   000009   8B..         MOV     ?V0 + 2,R3
   \   00000B   75..00       MOV     ?V0 + 3,#0x0
   \   00000E   7405         MOV     A,#0x5
   \   000010   78..         MOV     R0,#?V0 + 2
   \   000012   12....       LCALL   ?S_SHL
   \   000015   AE..         MOV     R6,?V0 + 2
   \   000017   AF..         MOV     R7,?V0 + 3
   \   000019                ; Setup parameters for call to function LCD_Set_Pos
   \   000019   12....       LCALL   ??LCD_Set_Pos?relay
   \   00001C   75..10       MOV     ?V0 + 2,#0x10
   \                     ??LCD_P16x16Ch_0:
   \   00001F                ; Setup parameters for call to function LCD_WrDat
   \   00001F   12....       LCALL   ?Subroutine4 & 0xFFFF
   \                     ??CrossCallReturnLabel_0:
   \   000022   70FB         JNZ     ??LCD_P16x16Ch_0
   \   000024                ; Setup parameters for call to function LCD_Set_Pos
   \   000024   12....       LCALL   ?Subroutine15 & 0xFFFF
   \                     ??CrossCallReturnLabel_26:
   \   000027   75..10       MOV     ?V0 + 2,#0x10
   \                     ??LCD_P16x16Ch_1:
   \   00002A                ; Setup parameters for call to function LCD_WrDat
   \   00002A   12....       LCALL   ?Subroutine4 & 0xFFFF
   \                     ??CrossCallReturnLabel_1:
   \   00002D   70FB         JNZ     ??LCD_P16x16Ch_1
   \   00002F   7F05         MOV     R7,#0x5
   \   000031   02....       LJMP    ?BANKED_LEAVE_XDATA

   \                                 In  segment BANKED_CODE, align 1, keep-with-next
   \                     ?Subroutine4:
   \   000000   74..         MOV     A,#F16x16 & 0xff
   \   000002   2E           ADD     A,R6
   \   000003   F582         MOV     DPL,A
   \   000005   74..         MOV     A,#(F16x16 >> 8) & 0xff
   \   000007   3F           ADDC    A,R7
   \   000008   12....       LCALL   ?Subroutine20 & 0xFFFF
   \                     ??CrossCallReturnLabel_41:
   \   00000B   EE           MOV     A,R6
   \   00000C   2401         ADD     A,#0x1
   \   00000E   0E           INC     R6
   \   00000F   EF           MOV     A,R7
   \   000010   3400         ADDC    A,#0x0
   \   000012   FF           MOV     R7,A
   \   000013   15..         DEC     ?V0 + 2
   \   000015   E5..         MOV     A,?V0 + 2
   \   000017   22           RET

   \                                 In  segment BANKED_CODE, align 1, keep-with-next
   \   __banked_func __xdata_reentrant void Draw_BMP(unsigned char, unsigned char, unsigned char, unsigned char, unsigned char *)
   \                     Draw_BMP:
   \   000000   74F0         MOV     A,#-0x10
   \   000002   12....       LCALL   ?BANKED_ENTER_XDATA
   \   000005                ; Saved register size: 16
   \   000005                ; Auto size: 0
   \   000005   89..         MOV     ?V0 + 3,R1
   \   000007   8B..         MOV     ?V0 + 6,R3
   \   000009   8C..         MOV     ?V0 + 7,R4
   \   00000B   7410         MOV     A,#0x10
   \   00000D   12....       LCALL   ?XSTACK_DISP0_8
   \   000010   E0           MOVX    A,@DPTR
   \   000011   F8           MOV     R0,A
   \   000012   A3           INC     DPTR
   \   000013   E0           MOVX    A,@DPTR
   \   000014   F9           MOV     R1,A
   \   000015   E8           MOV     A,R0
   \   000016   FE           MOV     R6,A
   \   000017   E9           MOV     A,R1
   \   000018   FF           MOV     R7,A
   \   000019   75..00       MOV     ?V0 + 0,#0x0
   \   00001C   75..00       MOV     ?V0 + 1,#0x0
   \   00001F   8A..         MOV     ?V0 + 2,R2
   \   000021   8022         SJMP    ??Draw_BMP_0
   \                     ??Draw_BMP_1:
   \   000023                ; Setup parameters for call to function LCD_WrDat
   \   000023   EE           MOV     A,R6
   \   000024   25..         ADD     A,?V0 + 0
   \   000026   F582         MOV     DPL,A
   \   000028   EF           MOV     A,R7
   \   000029   35..         ADDC    A,?V0 + 1
   \   00002B   12....       LCALL   ?Subroutine20 & 0xFFFF
   \                     ??CrossCallReturnLabel_42:
   \   00002E   E5..         MOV     A,?V0 + 0
   \   000030   2401         ADD     A,#0x1
   \   000032   F5..         MOV     ?V0 + 0,A
   \   000034   E5..         MOV     A,?V0 + 1
   \   000036   3400         ADDC    A,#0x0
   \   000038   F5..         MOV     ?V0 + 1,A
   \   00003A   05..         INC     ?V0 + 4
   \                     ??Draw_BMP_2:
   \   00003C   E5..         MOV     A,?V0 + 4
   \   00003E   C3           CLR     C
   \   00003F   95..         SUBB    A,?V0 + 6
   \   000041   40E0         JC      ??Draw_BMP_1
   \   000043   05..         INC     ?V0 + 2
   \                     ??Draw_BMP_0:
   \   000045   E5..         MOV     A,?V0 + 2
   \   000047   C3           CLR     C
   \   000048   95..         SUBB    A,?V0 + 7
   \   00004A   500C         JNC     ??Draw_BMP_3
   \   00004C                ; Setup parameters for call to function LCD_Set_Pos
   \   00004C   AA..         MOV     R2,?V0 + 2
   \   00004E   A9..         MOV     R1,?V0 + 3
   \   000050   12....       LCALL   ??LCD_Set_Pos?relay
   \   000053   85....       MOV     ?V0 + 4,?V0 + 3
   \   000056   80E4         SJMP    ??Draw_BMP_2
   \                     ??Draw_BMP_3:
   \   000058                REQUIRE ?Subroutine1
   \   000058                ; // Fall through to label ?Subroutine1

   \                                 In  segment BANKED_CODE, align 1, keep-with-next
   \                     ?Subroutine1:
   \   000000   7F08         MOV     R7,#0x8
   \   000002   02....       LJMP    ?BANKED_LEAVE_XDATA

   \                                 In  segment BANKED_CODE, align 1, keep-with-next
   \   __banked_func __xdata_reentrant void LCD_Clear(void)
   \                     LCD_Clear:
   \   000000   74F6         MOV     A,#-0xa
   \   000002   12....       LCALL   ?BANKED_ENTER_XDATA
   \   000005                ; Saved register size: 10
   \   000005                ; Auto size: 0
   \   000005                ; Setup parameters for call to function memset
   \   000005   75..00       MOV     ?V0 + 0,#0x0
   \   000008   75..04       MOV     ?V0 + 1,#0x4
   \   00000B   78..         MOV     R0,#?V0 + 0
   \   00000D   12....       LCALL   ?PUSH_XSTACK_I_TWO
   \   000010   7C00         MOV     R4,#0x0
   \   000012   7D00         MOV     R5,#0x0
   \   000014   7A..         MOV     R2,#g_LcdBuff & 0xff
   \   000016   7B..         MOV     R3,#(g_LcdBuff >> 8) & 0xff
   \   000018   12....       LCALL   ??memset?relay
   \   00001B   7402         MOV     A,#0x2
   \   00001D                REQUIRE ?Subroutine2
   \   00001D                ; // Fall through to label ?Subroutine2

   \                                 In  segment BANKED_CODE, align 1, keep-with-next
   \                     ?Subroutine2:
   \   000000   12....       LCALL   ?DEALLOC_XSTACK8
   \   000003                REQUIRE ??Subroutine22_0
   \   000003                ; // Fall through to label ??Subroutine22_0

   \                                 In  segment BANKED_CODE, align 1, keep-with-next
   \                     ??Subroutine22_0:
   \   000000   7F02         MOV     R7,#0x2
   \   000002   02....       LJMP    ?BANKED_LEAVE_XDATA
      7          #include "SG90.h"
      8          #include "out.h"
      9          #include "OnBoard.h"
     10          #include "stdio.h"
     11          #include "string.h"
     12          
     13          #define NUM_LED_1 1
     14          #define NUM_LED_2 2
     15          
     16          #define LEDNUM  2

   \                                 In  segment XDATA_I, align 1, keep-with-next
     17          uint8 ledIdList[LEDNUM]={NUM_LED_1,NUM_LED_2};
   \                     ledIdList:
   \   000000                DS 2
   \   000002                REQUIRE `?<Initializer for ledIdList>`
   \   000002                REQUIRE __INIT_XDATA_I
     18          
     19          #define NUM_IN_CMD_LEDDEVICE 1
     20          #define NUM_OUT_CMD_LEDDEVICE 2
     21          

   \                                 In  segment XDATA_Z, align 1, keep-with-next
     22          static unsigned char buffer[8];
   \                     buffer:
   \   000000                DS 8
   \   000008                REQUIRE __INIT_XDATA_Z

   \                                 In  segment XDATA_ROM_C, align 1
     23          const cId_t ledDeviceInputCommandList[NUM_IN_CMD_LEDDEVICE]=
   \                     ledDeviceInputCommandList:
   \   000000   0200         DW 2
     24          {TOGGLE_LED_CMD_ID};

   \                                 In  segment XDATA_ROM_C, align 1
     25          const cId_t ledDeviceOutputCommandList[NUM_OUT_CMD_LEDDEVICE]=
   \                     ledDeviceOutputCommandList:
   \   000000   0100         DW 1
   \   000002   0300         DW 3
     26          {LEDJOINNET_CMD_ID,HEART_BEAT_CMD_ID};

   \                                 In  segment XDATA_ROM_C, align 1
     27          const SimpleDescriptionFormat_t zb_SimpleDesc=
   \                     zb_SimpleDesc:
   \   000000   01           DB 1
   \   000001   0105         DW 1281
   \   000003   0200         DW 2
   \   000005   00           DB 0
   \   000006   01           DB 1
   \   000007   ....         DW ledDeviceInputCommandList
   \   000009   02           DB 2
   \   00000A   ....         DW ledDeviceOutputCommandList
     28          {
     29            ENDPOINT_ID_SMARTHOME,
     30            PROFILE_ID_SMARTHOME,
     31            DEVICE_ID_LEDDEVICE,
     32            DEVIDE_VERSION_ID,
     33            0,
     34            NUM_IN_CMD_LEDDEVICE,
     35            (cId_t*)ledDeviceInputCommandList,
     36            NUM_OUT_CMD_LEDDEVICE,
     37            (cId_t*)ledDeviceOutputCommandList  
     38          };
     39          /***********
     40          
     41          handle:
     42          status:ZSUCCESS
     43          ************/

   \                                 In  segment BANKED_CODE, align 1, keep-with-next
     44          void zb_SendDataConfirm( uint8 handle, uint8 status )
   \                     zb_SendDataConfirm:
     45          {
   \   000000                ; Saved register size: 0
   \   000000                ; Auto size: 0
     46            
     47          }
   \   000000   02....       LJMP    ?BRET
     48          
     49          /***********
     50          
     51          ************/

   \                                 In  segment BANKED_CODE, align 1, keep-with-next
     52          void zb_ReceiveDataIndication( uint16 source, uint16 command, 
   \                     zb_ReceiveDataIndication:
     53                                        uint16 len, uint8 *pData  )
     54          {
   \   000000   74F0         MOV     A,#-0x10
   \   000002   12....       LCALL   ?BANKED_ENTER_XDATA
   \   000005                ; Saved register size: 16
   \   000005                ; Auto size: 1
   \   000005   74FF         MOV     A,#-0x1
   \   000007   12....       LCALL   ?ALLOC_XSTACK8
   \   00000A   7413         MOV     A,#0x13
   \   00000C   12....       LCALL   ?XSTACK_DISP0_8
   \   00000F   E0           MOVX    A,@DPTR
   \   000010   F8           MOV     R0,A
   \   000011   A3           INC     DPTR
   \   000012   E0           MOVX    A,@DPTR
   \   000013   F9           MOV     R1,A
     55            if(command==TOGGLE_LED_CMD_ID)
   \   000014   7402         MOV     A,#0x2
   \   000016   6C           XRL     A,R4
   \   000017   7001         JNZ     ??zb_ReceiveDataIndication_0
   \   000019   ED           MOV     A,R5
   \                     ??zb_ReceiveDataIndication_0:
   \   00001A   6003         JZ      $+5
   \   00001C   02....       LJMP    ??zb_ReceiveDataIndication_1 & 0xFFFF
     56            {
     57              uint8 led_num=pData[0];
   \   00001F   8882         MOV     DPL,R0
   \   000021   8983         MOV     DPH,R1
   \   000023   E0           MOVX    A,@DPTR
   \   000024   FA           MOV     R2,A
     58              uint8 led_status=pData[1];
   \   000025   A3           INC     DPTR
   \   000026   E0           MOVX    A,@DPTR
   \   000027   FB           MOV     R3,A
     59              uint8 unit=pData[2];
   \   000028   8882         MOV     DPL,R0
   \   00002A   8983         MOV     DPH,R1
   \   00002C   A3           INC     DPTR
   \   00002D   A3           INC     DPTR
   \   00002E   E0           MOVX    A,@DPTR
   \   00002F   F5..         MOV     ?V0 + 3,A
     60              uint8 ten=pData[3];
   \   000031   8882         MOV     DPL,R0
   \   000033   8983         MOV     DPH,R1
   \   000035   A3           INC     DPTR
   \   000036   A3           INC     DPTR
   \   000037   A3           INC     DPTR
   \   000038   E0           MOVX    A,@DPTR
   \   000039   F5..         MOV     ?V0 + 2,A
     61              uint8 hundred=pData[4];
   \   00003B   8882         MOV     DPL,R0
   \   00003D   8983         MOV     DPH,R1
   \   00003F   A3           INC     DPTR
   \   000040   A3           INC     DPTR
   \   000041   A3           INC     DPTR
   \   000042   A3           INC     DPTR
   \   000043   E0           MOVX    A,@DPTR
   \   000044   F5..         MOV     ?V0 + 1,A
     62              uint8 unit1=pData[5];
   \   000046   8882         MOV     DPL,R0
   \   000048   8983         MOV     DPH,R1
   \   00004A   A3           INC     DPTR
   \   00004B   A3           INC     DPTR
   \   00004C   A3           INC     DPTR
   \   00004D   A3           INC     DPTR
   \   00004E   A3           INC     DPTR
   \   00004F   E0           MOVX    A,@DPTR
   \   000050   F5..         MOV     ?V0 + 4,A
     63              uint8 ten1=pData[6];
   \   000052   8882         MOV     DPL,R0
   \   000054   8983         MOV     DPH,R1
   \   000056   A3           INC     DPTR
   \   000057   A3           INC     DPTR
   \   000058   A3           INC     DPTR
   \   000059   A3           INC     DPTR
   \   00005A   A3           INC     DPTR
   \   00005B   A3           INC     DPTR
   \   00005C   E0           MOVX    A,@DPTR
   \   00005D   F5..         MOV     ?V0 + 0,A
     64              
     65              if(led_num==NUM_LED_1)
   \   00005F   7401         MOV     A,#0x1
   \   000061   6A           XRL     A,R2
   \   000062   6003         JZ      $+5
   \   000064   02....       LJMP    ??zb_ReceiveDataIndication_2 & 0xFFFF
     66              {
     67                if(led_status==1)
   \   000067   7401         MOV     A,#0x1
   \   000069   6B           XRL     A,R3
   \   00006A   7007         JNZ     ??zb_ReceiveDataIndication_3
     68                  HalLedSet(HAL_LED_1,HAL_LED_MODE_ON);
   \   00006C                ; Setup parameters for call to function HalLedSet
   \   00006C   7A01         MOV     R2,#0x1
   \                     ??zb_ReceiveDataIndication_4:
   \   00006E   7901         MOV     R1,#0x1
   \   000070   02....       LJMP    ??zb_ReceiveDataIndication_5 & 0xFFFF
     69                else if(led_status==0)
   \                     ??zb_ReceiveDataIndication_3:
   \   000073   EB           MOV     A,R3
   \   000074   7004         JNZ     ??zb_ReceiveDataIndication_6
     70                  HalLedSet(HAL_LED_1,HAL_LED_MODE_OFF);
   \   000076                ; Setup parameters for call to function HalLedSet
   \   000076   7A00         MOV     R2,#0x0
   \   000078   80F4         SJMP    ??zb_ReceiveDataIndication_4
     71                else if(led_status==2)
   \                     ??zb_ReceiveDataIndication_6:
   \   00007A   7402         MOV     A,#0x2
   \   00007C   6B           XRL     A,R3
   \   00007D   6003         JZ      $+5
   \   00007F   02....       LJMP    ??zb_ReceiveDataIndication_7 & 0xFFFF
     72                {
     73                  LCD_P8x16Str(8,0, "ID:");
   \   000082                ; Setup parameters for call to function LCD_P8x16Str
   \   000082   12....       LCALL   ?Subroutine13 & 0xFFFF
     74                  LCD_P8x16Str(33,0,buffer);    
     75                  memset(buffer,0,8); 
   \                     ??CrossCallReturnLabel_21:
   \   000085                ; Setup parameters for call to function memset
   \   000085   75..08       MOV     ?V0 + 6,#0x8
   \   000088   75..00       MOV     ?V0 + 7,#0x0
   \   00008B   78..         MOV     R0,#?V0 + 6
   \   00008D   12....       LCALL   ?PUSH_XSTACK_I_TWO
   \   000090   7C00         MOV     R4,#0x0
   \   000092   7D00         MOV     R5,#0x0
   \   000094   7A..         MOV     R2,#buffer & 0xff
   \   000096   7B..         MOV     R3,#(buffer >> 8) & 0xff
   \   000098   12....       LCALL   ??memset?relay
   \   00009B   7402         MOV     A,#0x2
   \   00009D   12....       LCALL   ?DEALLOC_XSTACK8
     76                  for(int i=0; i<2; i++) 
   \   0000A0   7E00         MOV     R6,#0x0
   \   0000A2   7F00         MOV     R7,#0x0
     77                  {
     78                    LCD_P16x16Ch(16*i+8, 3, i);   
   \                     ??zb_ReceiveDataIndication_8:
   \   0000A4                ; Setup parameters for call to function LCD_P16x16Ch
   \   0000A4   12....       LCALL   ?Subroutine3 & 0xFFFF
     79                  }
   \                     ??CrossCallReturnLabel_50:
   \   0000A7   9402         SUBB    A,#0x2
   \   0000A9   12....       LCALL   ?Subroutine17 & 0xFFFF
   \                     ??CrossCallReturnLabel_29:
   \   0000AC   40F6         JC      ??zb_ReceiveDataIndication_8
     80                  LCD_P8x16Str(40,3, ":");
   \   0000AE                ; Setup parameters for call to function LCD_P8x16Str
   \   0000AE   7C..         MOV     R4,#`?<Constant ":">` & 0xff
   \   0000B0   7D..         MOV     R5,#(`?<Constant ":">` >> 8) & 0xff
   \   0000B2   7A03         MOV     R2,#0x3
   \   0000B4   7928         MOV     R1,#0x28
   \   0000B6   12....       LCALL   ??LCD_P8x16Str?relay
     81                  unsigned char buffe[1];
     82                  sprintf((char *)buffe,"%d",unit);
   \   0000B9                ; Setup parameters for call to function sprintf
   \   0000B9   85....       MOV     ?V0 + 6,?V0 + 3
   \   0000BC   78..         MOV     R0,#?V0 + 6
   \   0000BE   12....       LCALL   ?PUSH_XSTACK_I_TWO
   \   0000C1   7C..         MOV     R4,#`?<Constant "%d">` & 0xff
   \   0000C3   7D..         MOV     R5,#(`?<Constant "%d">` >> 8) & 0xff
   \   0000C5   7402         MOV     A,#0x2
   \   0000C7   12....       LCALL   ?XSTACK_DISP0_8
   \   0000CA   12....       LCALL   ?Subroutine18 & 0xFFFF
   \                     ??CrossCallReturnLabel_33:
   \   0000CD   12....       LCALL   ?DEALLOC_XSTACK8
     83                  if(unit!=10)
   \   0000D0   740A         MOV     A,#0xa
   \   0000D2   65..         XRL     A,?V0 + 3
   \   0000D4   600C         JZ      ??zb_ReceiveDataIndication_9
     84                    LCD_P8x16Str(64,3,buffe);
   \   0000D6                ; Setup parameters for call to function LCD_P8x16Str
   \   0000D6   85..82       MOV     DPL,?XSP + 0
   \   0000D9   85..83       MOV     DPH,?XSP + 1
   \   0000DC   AC82         MOV     R4,DPL
   \   0000DE   AD83         MOV     R5,DPH
   \   0000E0   8004         SJMP    ??zb_ReceiveDataIndication_10
     85                  else
     86                    LCD_P8x16Str(64,3,"0");
   \                     ??zb_ReceiveDataIndication_9:
   \   0000E2                ; Setup parameters for call to function LCD_P8x16Str
   \   0000E2   7C..         MOV     R4,#`?<Constant "0">` & 0xff
   \   0000E4   7D..         MOV     R5,#(`?<Constant "0">` >> 8) & 0xff
   \                     ??zb_ReceiveDataIndication_10:
   \   0000E6   7A03         MOV     R2,#0x3
   \   0000E8   7940         MOV     R1,#0x40
   \   0000EA   12....       LCALL   ??LCD_P8x16Str?relay
     87                  sprintf((char *)buffe,"%d",ten);
   \   0000ED                ; Setup parameters for call to function sprintf
   \   0000ED   85....       MOV     ?V0 + 6,?V0 + 2
   \   0000F0   78..         MOV     R0,#?V0 + 6
   \   0000F2   12....       LCALL   ?PUSH_XSTACK_I_TWO
   \   0000F5   7C..         MOV     R4,#`?<Constant "%d">` & 0xff
   \   0000F7   7D..         MOV     R5,#(`?<Constant "%d">` >> 8) & 0xff
   \   0000F9   7402         MOV     A,#0x2
   \   0000FB   12....       LCALL   ?XSTACK_DISP0_8
   \   0000FE   12....       LCALL   ?Subroutine18 & 0xFFFF
   \                     ??CrossCallReturnLabel_34:
   \   000101   12....       LCALL   ?DEALLOC_XSTACK8
     88                  if(ten!=10)
   \   000104   740A         MOV     A,#0xa
   \   000106   65..         XRL     A,?V0 + 2
   \   000108   600C         JZ      ??zb_ReceiveDataIndication_11
     89                    LCD_P8x16Str(56,3,buffe);
   \   00010A                ; Setup parameters for call to function LCD_P8x16Str
   \   00010A   85..82       MOV     DPL,?XSP + 0
   \   00010D   85..83       MOV     DPH,?XSP + 1
   \   000110   AC82         MOV     R4,DPL
   \   000112   AD83         MOV     R5,DPH
   \   000114   8004         SJMP    ??zb_ReceiveDataIndication_12
     90                  else
     91                    LCD_P8x16Str(56,3,"0");
   \                     ??zb_ReceiveDataIndication_11:
   \   000116                ; Setup parameters for call to function LCD_P8x16Str
   \   000116   7C..         MOV     R4,#`?<Constant "0">` & 0xff
   \   000118   7D..         MOV     R5,#(`?<Constant "0">` >> 8) & 0xff
   \                     ??zb_ReceiveDataIndication_12:
   \   00011A   7A03         MOV     R2,#0x3
   \   00011C   7938         MOV     R1,#0x38
   \   00011E   12....       LCALL   ??LCD_P8x16Str?relay
     92                  sprintf((char *)buffe,"%d",hundred);
   \   000121                ; Setup parameters for call to function sprintf
   \   000121   85....       MOV     ?V0 + 2,?V0 + 1
   \   000124   75..00       MOV     ?V0 + 3,#0x0
   \   000127   78..         MOV     R0,#?V0 + 2
   \   000129   12....       LCALL   ?PUSH_XSTACK_I_TWO
   \   00012C   7C..         MOV     R4,#`?<Constant "%d">` & 0xff
   \   00012E   7D..         MOV     R5,#(`?<Constant "%d">` >> 8) & 0xff
   \   000130   7402         MOV     A,#0x2
   \   000132   12....       LCALL   ?XSTACK_DISP0_8
   \   000135   12....       LCALL   ?Subroutine18 & 0xFFFF
   \                     ??CrossCallReturnLabel_35:
   \   000138   12....       LCALL   ?DEALLOC_XSTACK8
     93                  if(hundred!=10)
   \   00013B   740A         MOV     A,#0xa
   \   00013D   65..         XRL     A,?V0 + 1
   \   00013F   600C         JZ      ??zb_ReceiveDataIndication_13
     94                    LCD_P8x16Str(48,3,buffe);
   \   000141                ; Setup parameters for call to function LCD_P8x16Str
   \   000141   85..82       MOV     DPL,?XSP + 0
   \   000144   85..83       MOV     DPH,?XSP + 1
   \   000147   AC82         MOV     R4,DPL
   \   000149   AD83         MOV     R5,DPH
   \   00014B   8004         SJMP    ??zb_ReceiveDataIndication_14
     95                  else
     96                    LCD_P8x16Str(48,3,"0");
   \                     ??zb_ReceiveDataIndication_13:
   \   00014D                ; Setup parameters for call to function LCD_P8x16Str
   \   00014D   7C..         MOV     R4,#`?<Constant "0">` & 0xff
   \   00014F   7D..         MOV     R5,#(`?<Constant "0">` >> 8) & 0xff
   \                     ??zb_ReceiveDataIndication_14:
   \   000151   7A03         MOV     R2,#0x3
   \   000153   7930         MOV     R1,#0x30
   \   000155   12....       LCALL   ??LCD_P8x16Str?relay
     97                  LCD_P16x16Ch(72, 3, 4);
   \   000158                ; Setup parameters for call to function LCD_P16x16Ch
   \   000158   7B04         MOV     R3,#0x4
   \   00015A   7A03         MOV     R2,#0x3
   \   00015C   7948         MOV     R1,#0x48
   \   00015E   12....       LCALL   ??LCD_P16x16Ch?relay
     98                  for(int j=0,k=5;k<9;j++,k++)
   \   000161   75..00       MOV     ?V0 + 2,#0x0
   \   000164   7E05         MOV     R6,#0x5
   \   000166   7F00         MOV     R7,#0x0
     99                  {
    100                    LCD_P16x16Ch(16*j+8, 6, k);
   \                     ??zb_ReceiveDataIndication_15:
   \   000168                ; Setup parameters for call to function LCD_P16x16Ch
   \   000168   EE           MOV     A,R6
   \   000169   FB           MOV     R3,A
   \   00016A   7A06         MOV     R2,#0x6
   \   00016C   E5..         MOV     A,?V0 + 2
   \   00016E   12....       LCALL   ?Subroutine19 & 0xFFFF
    101                  }
   \                     ??CrossCallReturnLabel_38:
   \   000171   E5..         MOV     A,?V0 + 2
   \   000173   04           INC     A
   \   000174   F5..         MOV     ?V0 + 2,A
   \   000176   12....       LCALL   ??Subroutine24_0 & 0xFFFF
   \                     ??CrossCallReturnLabel_52:
   \   000179   9409         SUBB    A,#0x9
   \   00017B   12....       LCALL   ?Subroutine17 & 0xFFFF
   \                     ??CrossCallReturnLabel_30:
   \   00017E   40E8         JC      ??zb_ReceiveDataIndication_15
    102                  LCD_P8x16Str(72,6, ":");
   \   000180                ; Setup parameters for call to function LCD_P8x16Str
   \   000180   7C..         MOV     R4,#`?<Constant ":">` & 0xff
   \   000182   7D..         MOV     R5,#(`?<Constant ":">` >> 8) & 0xff
   \   000184   7A06         MOV     R2,#0x6
   \   000186   7948         MOV     R1,#0x48
   \   000188   12....       LCALL   ??LCD_P8x16Str?relay
    103                  sprintf((char *)buffe,"%d",unit1);
   \   00018B                ; Setup parameters for call to function sprintf
   \   00018B   85....       MOV     ?V0 + 2,?V0 + 4
   \   00018E   78..         MOV     R0,#?V0 + 2
   \   000190   12....       LCALL   ?PUSH_XSTACK_I_TWO
   \   000193   7C..         MOV     R4,#`?<Constant "%d">` & 0xff
   \   000195   7D..         MOV     R5,#(`?<Constant "%d">` >> 8) & 0xff
   \   000197   7402         MOV     A,#0x2
   \   000199   12....       LCALL   ?XSTACK_DISP0_8
   \   00019C   12....       LCALL   ?Subroutine18 & 0xFFFF
   \                     ??CrossCallReturnLabel_36:
   \   00019F   12....       LCALL   ?DEALLOC_XSTACK8
    104                  if(unit1!=10)
   \   0001A2   740A         MOV     A,#0xa
   \   0001A4   65..         XRL     A,?V0 + 4
   \   0001A6   600C         JZ      ??zb_ReceiveDataIndication_16
    105                    LCD_P8x16Str(88,6,buffe);
   \   0001A8                ; Setup parameters for call to function LCD_P8x16Str
   \   0001A8   85..82       MOV     DPL,?XSP + 0
   \   0001AB   85..83       MOV     DPH,?XSP + 1
   \   0001AE   AC82         MOV     R4,DPL
   \   0001B0   AD83         MOV     R5,DPH
   \   0001B2   8004         SJMP    ??zb_ReceiveDataIndication_17
    106                  else
    107                    LCD_P8x16Str(88,6,"0");
   \                     ??zb_ReceiveDataIndication_16:
   \   0001B4                ; Setup parameters for call to function LCD_P8x16Str
   \   0001B4   7C..         MOV     R4,#`?<Constant "0">` & 0xff
   \   0001B6   7D..         MOV     R5,#(`?<Constant "0">` >> 8) & 0xff
   \                     ??zb_ReceiveDataIndication_17:
   \   0001B8   7A06         MOV     R2,#0x6
   \   0001BA   7958         MOV     R1,#0x58
   \   0001BC   12....       LCALL   ??LCD_P8x16Str?relay
    108                  sprintf((char *)buffe,"%d",ten1);
   \   0001BF                ; Setup parameters for call to function sprintf
   \   0001BF   85....       MOV     ?V0 + 2,?V0 + 0
   \   0001C2   78..         MOV     R0,#?V0 + 2
   \   0001C4   12....       LCALL   ?PUSH_XSTACK_I_TWO
   \   0001C7   7C..         MOV     R4,#`?<Constant "%d">` & 0xff
   \   0001C9   7D..         MOV     R5,#(`?<Constant "%d">` >> 8) & 0xff
   \   0001CB   7402         MOV     A,#0x2
   \   0001CD   12....       LCALL   ?XSTACK_DISP0_8
   \   0001D0   12....       LCALL   ?Subroutine18 & 0xFFFF
   \                     ??CrossCallReturnLabel_37:
   \   0001D3   12....       LCALL   ?DEALLOC_XSTACK8
    109                  if(ten1!=10)
   \   0001D6   740A         MOV     A,#0xa
   \   0001D8   65..         XRL     A,?V0 + 0
   \   0001DA   600C         JZ      ??zb_ReceiveDataIndication_18
    110                    LCD_P8x16Str(80,6,buffe);
   \   0001DC                ; Setup parameters for call to function LCD_P8x16Str
   \   0001DC   85..82       MOV     DPL,?XSP + 0
   \   0001DF   85..83       MOV     DPH,?XSP + 1
   \   0001E2   AC82         MOV     R4,DPL
   \   0001E4   AD83         MOV     R5,DPH
   \   0001E6   8004         SJMP    ??zb_ReceiveDataIndication_19
    111                  else
    112                    LCD_P8x16Str(80,6,"0");
   \                     ??zb_ReceiveDataIndication_18:
   \   0001E8                ; Setup parameters for call to function LCD_P8x16Str
   \   0001E8   7C..         MOV     R4,#`?<Constant "0">` & 0xff
   \   0001EA   7D..         MOV     R5,#(`?<Constant "0">` >> 8) & 0xff
   \                     ??zb_ReceiveDataIndication_19:
   \   0001EC   7A06         MOV     R2,#0x6
   \   0001EE   7950         MOV     R1,#0x50
   \   0001F0   12....       LCALL   ??LCD_P8x16Str?relay
    113                  LCD_P16x16Ch(96, 6, 9);
   \   0001F3                ; Setup parameters for call to function LCD_P16x16Ch
   \   0001F3   7B09         MOV     R3,#0x9
   \   0001F5   7A06         MOV     R2,#0x6
   \   0001F7   7960         MOV     R1,#0x60
   \   0001F9   12....       LCALL   ??LCD_P16x16Ch?relay
    114                  SG90start(); 
   \   0001FC                ; Setup parameters for call to function SG90start
   \   0001FC   12....       LCALL   ??SG90start?relay
   \   0001FF   803E         SJMP    ??zb_ReceiveDataIndication_20
    115                  LCD_CLS(); 
    116                }
    117                else if(led_status==3)
   \                     ??zb_ReceiveDataIndication_7:
   \   000201   7403         MOV     A,#0x3
   \   000203   6B           XRL     A,R3
   \   000204   703E         JNZ     ??zb_ReceiveDataIndication_21
    118                {
    119                  LCD_P8x16Str(8,0, "ID:");
   \   000206                ; Setup parameters for call to function LCD_P8x16Str
   \   000206   12....       LCALL   ?Subroutine13 & 0xFFFF
    120                  LCD_P8x16Str(33,0,buffer);    
    121                  memset(buffer,0,8); 
   \                     ??CrossCallReturnLabel_22:
   \   000209                ; Setup parameters for call to function memset
   \   000209   75..08       MOV     ?V0 + 0,#0x8
   \   00020C   75..00       MOV     ?V0 + 1,#0x0
   \   00020F   78..         MOV     R0,#?V0 + 0
   \   000211   12....       LCALL   ?PUSH_XSTACK_I_TWO
   \   000214   7C00         MOV     R4,#0x0
   \   000216   7D00         MOV     R5,#0x0
   \   000218   7A..         MOV     R2,#buffer & 0xff
   \   00021A   7B..         MOV     R3,#(buffer >> 8) & 0xff
   \   00021C   12....       LCALL   ??memset?relay
   \   00021F   7402         MOV     A,#0x2
   \   000221   12....       LCALL   ?DEALLOC_XSTACK8
    122                  for(int i=0; i<4; i++) 
   \   000224   7E00         MOV     R6,#0x0
   \   000226   7F00         MOV     R7,#0x0
    123                  {
    124                    LCD_P16x16Ch(16*i+8, 3, i);   
   \                     ??zb_ReceiveDataIndication_22:
   \   000228                ; Setup parameters for call to function LCD_P16x16Ch
   \   000228   12....       LCALL   ?Subroutine3 & 0xFFFF
    125                  }
   \                     ??CrossCallReturnLabel_51:
   \   00022B   9404         SUBB    A,#0x4
   \   00022D   12....       LCALL   ?Subroutine17 & 0xFFFF
   \                     ??CrossCallReturnLabel_31:
   \   000230   40F6         JC      ??zb_ReceiveDataIndication_22
    126                  for(int a=0;a<100;a++)
   \   000232   7E64         MOV     R6,#0x64
    127                  {
    128                    MicroWait(10000);
   \                     ??zb_ReceiveDataIndication_23:
   \   000234                ; Setup parameters for call to function Onboard_wait
   \   000234   7A10         MOV     R2,#0x10
   \   000236   7B27         MOV     R3,#0x27
   \   000238   12....       LCALL   ??Onboard_wait?relay
    129                  }
   \   00023B   1E           DEC     R6
   \   00023C   EE           MOV     A,R6
   \   00023D   70F5         JNZ     ??zb_ReceiveDataIndication_23
    130                  LCD_CLS(); 
   \                     ??zb_ReceiveDataIndication_20:
   \   00023F                ; Setup parameters for call to function LCD_CLS
   \   00023F   12....       LCALL   ??LCD_CLS?relay
   \   000242   8047         SJMP    ??zb_ReceiveDataIndication_1
    131                }
    132                else if(led_status==4)
   \                     ??zb_ReceiveDataIndication_21:
   \   000244   7404         MOV     A,#0x4
   \   000246   6B           XRL     A,R3
   \   000247   7042         JNZ     ??zb_ReceiveDataIndication_1
    133                {
    134                  Draw_BMP(0,0,127,7,BMP2);
   \   000249                ; Setup parameters for call to function Draw_BMP
   \   000249   75....       MOV     ?V0 + 0,#BMP2 & 0xff
   \   00024C   75....       MOV     ?V0 + 1,#(BMP2 >> 8) & 0xff
   \   00024F   78..         MOV     R0,#?V0 + 0
   \   000251   12....       LCALL   ?PUSH_XSTACK_I_TWO
   \   000254   7C07         MOV     R4,#0x7
   \   000256   7B7F         MOV     R3,#0x7f
   \   000258   7A00         MOV     R2,#0x0
   \   00025A   7900         MOV     R1,#0x0
   \   00025C   12....       LCALL   ??Draw_BMP?relay
   \   00025F   7402         MOV     A,#0x2
   \   000261   12....       LCALL   ?DEALLOC_XSTACK8
    135                  for(int a=0;a<100;a++)
   \   000264   7E64         MOV     R6,#0x64
    136                  {
    137                    MicroWait(10000);
   \                     ??zb_ReceiveDataIndication_24:
   \   000266                ; Setup parameters for call to function Onboard_wait
   \   000266   7A10         MOV     R2,#0x10
   \   000268   7B27         MOV     R3,#0x27
   \   00026A   12....       LCALL   ??Onboard_wait?relay
    138                  }
   \   00026D   1E           DEC     R6
   \   00026E   EE           MOV     A,R6
   \   00026F   60CE         JZ      ??zb_ReceiveDataIndication_20
   \   000271   80F3         SJMP    ??zb_ReceiveDataIndication_24
    139                  LCD_CLS(); 
    140                }
    141              }
    142              else if(led_num==NUM_LED_2)
   \                     ??zb_ReceiveDataIndication_2:
   \   000273   7402         MOV     A,#0x2
   \   000275   6A           XRL     A,R2
   \   000276   7013         JNZ     ??zb_ReceiveDataIndication_1
    143              {
    144                if(led_status==1)
   \   000278   7401         MOV     A,#0x1
   \   00027A   6B           XRL     A,R3
   \   00027B   7004         JNZ     ??zb_ReceiveDataIndication_25
    145                  HalLedSet(HAL_LED_2,HAL_LED_MODE_ON);
   \   00027D                ; Setup parameters for call to function HalLedSet
   \   00027D   7A01         MOV     R2,#0x1
   \   00027F   8005         SJMP    ??zb_ReceiveDataIndication_26
    146                else if(led_status==0)
   \                     ??zb_ReceiveDataIndication_25:
   \   000281   EB           MOV     A,R3
   \   000282   7007         JNZ     ??zb_ReceiveDataIndication_1
    147                  HalLedSet(HAL_LED_2,HAL_LED_MODE_OFF);
   \   000284                ; Setup parameters for call to function HalLedSet
   \   000284   7A00         MOV     R2,#0x0
   \                     ??zb_ReceiveDataIndication_26:
   \   000286   7902         MOV     R1,#0x2
   \                     ??zb_ReceiveDataIndication_5:
   \   000288   12....       LCALL   ??HalLedSet?relay
    148              }
    149            }
    150          }
   \                     ??zb_ReceiveDataIndication_1:
   \   00028B   7401         MOV     A,#0x1
   \   00028D   12....       LCALL   ?DEALLOC_XSTACK8
   \   000290   02....       LJMP    ?Subroutine1 & 0xFFFF

   \                                 In  segment BANKED_CODE, align 1, keep-with-next
   \                     ?Subroutine18:
   \   000000   AA82         MOV     R2,DPL
   \   000002   AB83         MOV     R3,DPH
   \   000004   12....       LCALL   ??sprintf?relay
   \   000007   7402         MOV     A,#0x2
   \   000009   22           RET

   \                                 In  segment BANKED_CODE, align 1, keep-with-next
   \                     ?Subroutine13:
   \   000000   7C..         MOV     R4,#`?<Constant "ID:">` & 0xff
   \   000002   7D..         MOV     R5,#(`?<Constant "ID:">` >> 8) & 0xff
   \   000004   7A00         MOV     R2,#0x0
   \   000006   7908         MOV     R1,#0x8
   \   000008   12....       LCALL   ??LCD_P8x16Str?relay
   \   00000B                ; Setup parameters for call to function LCD_P8x16Str
   \   00000B                ; Setup parameters for call to function LCD_P8x16Str
   \   00000B   7C..         MOV     R4,#buffer & 0xff
   \   00000D   7D..         MOV     R5,#(buffer >> 8) & 0xff
   \   00000F   7A00         MOV     R2,#0x0
   \   000011   7921         MOV     R1,#0x21
   \   000013   12....       LCALL   ??LCD_P8x16Str?relay
   \   000016   22           RET

   \                                 In  segment BANKED_CODE, align 1, keep-with-next
   \                     ?Subroutine17:
   \   000000   EF           MOV     A,R7
   \   000001   9400         SUBB    A,#0x0
   \   000003   A2D2         MOV     C,0xD0 /* PSW */.2
   \   000005   65D0         XRL     A,PSW
   \   000007   33           RLC     A
   \   000008   22           RET

   \                                 In  segment BANKED_CODE, align 1, keep-with-next
   \                     ?Subroutine3:
   \   000000   EE           MOV     A,R6
   \   000001   FB           MOV     R3,A
   \   000002   7A03         MOV     R2,#0x3
   \   000004   12....       LCALL   ?Subroutine19 & 0xFFFF
   \                     ??CrossCallReturnLabel_39:
   \   000007                REQUIRE ??Subroutine24_0
   \   000007                ; // Fall through to label ??Subroutine24_0

   \                                 In  segment BANKED_CODE, align 1, keep-with-next
   \                     ??Subroutine24_0:
   \   000000   EE           MOV     A,R6
   \   000001   2401         ADD     A,#0x1
   \   000003   0E           INC     R6
   \   000004   EF           MOV     A,R7
   \   000005   3400         ADDC    A,#0x0
   \   000007   FF           MOV     R7,A
   \   000008   C3           CLR     C
   \   000009   EE           MOV     A,R6
   \   00000A   22           RET

   \                                 In  segment BANKED_CODE, align 1, keep-with-next
   \                     ?Subroutine19:
   \   000000   C4           SWAP    A
   \   000001   54F0         ANL     A,#0xf0
   \   000003   2408         ADD     A,#0x8
   \   000005   F9           MOV     R1,A
   \   000006   12....       LCALL   ??LCD_P16x16Ch?relay
   \   000009   22           RET
    151          
    152          

   \                                 In  segment BANKED_CODE, align 1, keep-with-next
    153          void zb_AllowBindConfirm( uint16 source )
   \                     zb_AllowBindConfirm:
    154          {
   \   000000                ; Saved register size: 0
   \   000000                ; Auto size: 0
    155          }
   \   000000   02....       LJMP    ?BRET
    156          

   \                                 In  segment BANKED_CODE, align 1, keep-with-next
    157          void zb_HandleKeys( uint8 shift, uint8 keys )
   \                     zb_HandleKeys:
    158          {
   \   000000                ; Saved register size: 0
   \   000000                ; Auto size: 0
    159            
    160          }
   \   000000   02....       LJMP    ?BRET
    161          

   \                                 In  segment BANKED_CODE, align 1, keep-with-next
    162          void zb_BindConfirm( uint16 commandId, uint8 status )
   \                     zb_BindConfirm:
    163          {
   \   000000                ; Saved register size: 0
   \   000000                ; Auto size: 0
    164          }
   \   000000   02....       LJMP    ?BRET
    165          

   \                                 In  segment BANKED_CODE, align 1, keep-with-next
    166          void zb_StartConfirm( uint8 status )
   \                     zb_StartConfirm:
    167          {
   \   000000   74F6         MOV     A,#-0xa
   \   000002   12....       LCALL   ?BANKED_ENTER_XDATA
   \   000005                ; Saved register size: 10
   \   000005                ; Auto size: 0
   \   000005   E9           MOV     A,R1
    168            if(status==ZSUCCESS)
   \   000006   7052         JNZ     ??zb_StartConfirm_0
    169            {
    170              //ledID
    171              zb_SendDataRequest(0X0,LEDJOINNET_CMD_ID,
    172                                 LEDNUM,ledIdList,0,FALSE,AF_DEFAULT_RADIUS);
   \   000008                ; Setup parameters for call to function zb_SendDataRequest
   \   000008   75..1E       MOV     ?V0 + 0,#0x1e
   \   00000B   78..         MOV     R0,#?V0 + 0
   \   00000D   12....       LCALL   ?PUSH_XSTACK_I_ONE
   \   000010   75..00       MOV     ?V0 + 0,#0x0
   \   000013   78..         MOV     R0,#?V0 + 0
   \   000015   12....       LCALL   ?PUSH_XSTACK_I_ONE
   \   000018   78..         MOV     R0,#?V0 + 0
   \   00001A   12....       LCALL   ?PUSH_XSTACK_I_ONE
   \   00001D   75....       MOV     ?V0 + 0,#ledIdList & 0xff
   \   000020   75....       MOV     ?V0 + 1,#(ledIdList >> 8) & 0xff
   \   000023   78..         MOV     R0,#?V0 + 0
   \   000025   12....       LCALL   ?PUSH_XSTACK_I_TWO
   \   000028   7902         MOV     R1,#0x2
   \   00002A   7C01         MOV     R4,#0x1
   \   00002C   7D00         MOV     R5,#0x0
   \   00002E   7A00         MOV     R2,#0x0
   \   000030   7B00         MOV     R3,#0x0
   \   000032   12....       LCALL   ??zb_SendDataRequest?relay
   \   000035   7405         MOV     A,#0x5
   \   000037   12....       LCALL   ?DEALLOC_XSTACK8
    173              osal_start_timerEx(sapi_TaskID,TIMER_TIMEOUT_EVT,60000);
   \   00003A                ; Setup parameters for call to function osal_start_timerEx
   \   00003A   7C60         MOV     R4,#0x60
   \   00003C   7DEA         MOV     R5,#-0x16
   \   00003E   7A01         MOV     R2,#0x1
   \   000040   12....       LCALL   ?Subroutine14 & 0xFFFF
    174              osal_start_timerEx(sapi_TaskID,RC522_PERIOD_EVT,2000);
   \                     ??CrossCallReturnLabel_23:
   \   000043   7A03         MOV     R2,#0x3
   \   000045   12....       LCALL   ?Subroutine14 & 0xFFFF
    175              HalLedBlink(HAL_LED_ALL,5,50,2000);
   \                     ??CrossCallReturnLabel_24:
   \   000048   7B32         MOV     R3,#0x32
   \   00004A   7A05         MOV     R2,#0x5
   \   00004C   790F         MOV     R1,#0xf
   \   00004E   12....       LCALL   ??HalLedBlink?relay
    176              
    177              IC_Init();
   \   000051                ; Setup parameters for call to function IC_Init
   \   000051   12....       LCALL   ??IC_Init?relay
    178              LCD_Init(); //oled  
   \   000054                ; Setup parameters for call to function LCD_Init
   \   000054   12....       LCALL   ??LCD_Init?relay
    179              LCD_CLS(); //
   \   000057                ; Setup parameters for call to function LCD_CLS
   \   000057   12....       LCALL   ??LCD_CLS?relay
    180            }
    181          }
   \                     ??zb_StartConfirm_0:
   \   00005A   02....       LJMP    ??Subroutine22_0 & 0xFFFF

   \                                 In  segment BANKED_CODE, align 1, keep-with-next
   \                     ?Subroutine14:
   \   000000   12....       LCALL   ?Subroutine21 & 0xFFFF
   \                     ??CrossCallReturnLabel_43:
   \   000003                ; Setup parameters for call to function osal_start_timerEx
   \   000003                ; Setup parameters for call to function HalLedBlink
   \   000003   7CD0         MOV     R4,#-0x30
   \   000005   7D07         MOV     R5,#0x7
   \   000007   22           RET

   \                                 In  segment BANKED_CODE, align 1, keep-with-next
   \                     ?Subroutine21:
   \   000000   7B00         MOV     R3,#0x0
   \   000002   90....       MOV     DPTR,#sapi_TaskID
   \   000005   E0           MOVX    A,@DPTR
   \   000006   F9           MOV     R1,A
   \   000007   12....       LCALL   ??osal_start_timerEx?relay
   \   00000A   22           RET
    182          

   \                                 In  segment BANKED_CODE, align 1, keep-with-next
    183          void zb_HandleOsalEvent( uint16 event )
   \                     zb_HandleOsalEvent:
    184          {
   \   000000   74F6         MOV     A,#-0xa
   \   000002   12....       LCALL   ?BANKED_ENTER_XDATA
   \   000005                ; Saved register size: 10
   \   000005                ; Auto size: 28
   \   000005   74E4         MOV     A,#-0x1c
   \   000007   12....       LCALL   ?ALLOC_XSTACK8
   \   00000A   EA           MOV     A,R2
   \   00000B   FE           MOV     R6,A
    185            if(event&TIMER_TIMEOUT_EVT)
   \   00000C   A2E0         MOV     C,0xE0 /* A   */.0
   \   00000E   5038         JNC     ??zb_HandleOsalEvent_0
    186            {
    187              osal_start_timerEx(sapi_TaskID,TIMER_TIMEOUT_EVT,60000);
   \   000010                ; Setup parameters for call to function osal_start_timerEx
   \   000010   7C60         MOV     R4,#0x60
   \   000012   7DEA         MOV     R5,#-0x16
   \   000014   7A01         MOV     R2,#0x1
   \   000016   12....       LCALL   ?Subroutine21 & 0xFFFF
    188              zb_SendDataRequest(0X0,HEART_BEAT_CMD_ID,
    189                                 0,NULL,0,FALSE,AF_DEFAULT_RADIUS); 
   \                     ??CrossCallReturnLabel_44:
   \   000019                ; Setup parameters for call to function zb_SendDataRequest
   \   000019   75..1E       MOV     ?V0 + 0,#0x1e
   \   00001C   78..         MOV     R0,#?V0 + 0
   \   00001E   12....       LCALL   ?PUSH_XSTACK_I_ONE
   \   000021   75..00       MOV     ?V0 + 0,#0x0
   \   000024   78..         MOV     R0,#?V0 + 0
   \   000026   12....       LCALL   ?PUSH_XSTACK_I_ONE
   \   000029   78..         MOV     R0,#?V0 + 0
   \   00002B   12....       LCALL   ?PUSH_XSTACK_I_ONE
   \   00002E   E4           CLR     A
   \   00002F   F5..         MOV     ?V0 + 1,A
   \   000031   78..         MOV     R0,#?V0 + 0
   \   000033   12....       LCALL   ?PUSH_XSTACK_I_TWO
   \   000036   7900         MOV     R1,#0x0
   \   000038   7C03         MOV     R4,#0x3
   \   00003A   7D00         MOV     R5,#0x0
   \   00003C   7A00         MOV     R2,#0x0
   \   00003E   7B00         MOV     R3,#0x0
   \   000040   12....       LCALL   ??zb_SendDataRequest?relay
   \   000043   7405         MOV     A,#0x5
   \   000045   12....       LCALL   ?DEALLOC_XSTACK8
    190            }
    191            
    192            if(event&RC522_PERIOD_EVT)
   \                     ??zb_HandleOsalEvent_0:
   \   000048   EE           MOV     A,R6
   \   000049   5403         ANL     A,#0x3
   \   00004B   7003         JNZ     $+5
   \   00004D   02....       LJMP    ??zb_HandleOsalEvent_1 & 0xFFFF
    193            {
    194              osal_start_timerEx(sapi_TaskID,RC522_PERIOD_EVT,2000);
   \   000050                ; Setup parameters for call to function osal_start_timerEx
   \   000050   7CD0         MOV     R4,#-0x30
   \   000052   7D07         MOV     R5,#0x7
   \   000054   7A03         MOV     R2,#0x3
   \   000056   12....       LCALL   ?Subroutine21 & 0xFFFF
    195              unsigned char asc_16[16]={'0','1','2','3','4','5','6','7','8','9','A','B','C','D','E','F'},i;
   \                     ??CrossCallReturnLabel_45:
   \   000059   740C         MOV     A,#0xc
   \   00005B   12....       LCALL   ?XSTACK_DISP0_8
   \   00005E   AC82         MOV     R4,DPL
   \   000060   AD83         MOV     R5,DPH
   \   000062   7583..       MOV     DPH,#(`?<Constant {48, 49, 50, 51, 52, 53, 54, 55, 56` >> 8) & 0xff
   \   000065   7582..       MOV     DPL,#`?<Constant {48, 49, 50, 51, 52, 53, 54, 55, 56` & 0xff
   \   000068   7410         MOV     A,#0x10
   \   00006A   12....       LCALL   ?MOVE_LONG8_XDATA_XDATA
    196              unsigned char Card_Id[8]; //32
    197              
    198              unsigned int lightvalue;
    199              unsigned int AvgValue;
    200              unsigned char value[2];
    201              for(int j=0,k=10;k<13;j++,k++)
   \   00006D   F5..         MOV     ?V0 + 0,A
   \   00006F   7E0A         MOV     R6,#0xa
   \   000071   FF           MOV     R7,A
    202              {
    203                LCD_P16x16Ch(24*j+32, 3, k);
   \                     ??zb_HandleOsalEvent_2:
   \   000072                ; Setup parameters for call to function LCD_P16x16Ch
   \   000072   EE           MOV     A,R6
   \   000073   FB           MOV     R3,A
   \   000074   7A03         MOV     R2,#0x3
   \   000076   75F018       MOV     B,#0x18
   \   000079   E5..         MOV     A,?V0 + 0
   \   00007B   A4           MUL     AB
   \   00007C   2420         ADD     A,#0x20
   \   00007E   F9           MOV     R1,A
   \   00007F   12....       LCALL   ??LCD_P16x16Ch?relay
    204              }
   \   000082   E5..         MOV     A,?V0 + 0
   \   000084   04           INC     A
   \   000085   F5..         MOV     ?V0 + 0,A
   \   000087   12....       LCALL   ??Subroutine24_0 & 0xFFFF
   \                     ??CrossCallReturnLabel_53:
   \   00008A   940D         SUBB    A,#0xd
   \   00008C   12....       LCALL   ?Subroutine17 & 0xFFFF
   \                     ??CrossCallReturnLabel_32:
   \   00008F   40E1         JC      ??zb_HandleOsalEvent_2
    205              if(IC_Test()==1)
   \   000091                ; Setup parameters for call to function IC_Test
   \   000091   12....       LCALL   ??IC_Test?relay
   \   000094   E9           MOV     A,R1
   \   000095   6401         XRL     A,#0x1
   \   000097   6003         JZ      $+5
   \   000099   02....       LJMP    ??zb_HandleOsalEvent_3 & 0xFFFF
    206              {   
    207                LCD_CLS(); 
   \   00009C                ; Setup parameters for call to function LCD_CLS
   \   00009C   12....       LCALL   ??LCD_CLS?relay
    208                //16ASC IC
    209                for(i=0;i<4;i++)
   \   00009F   7C00         MOV     R4,#0x0
    210                {
    211                  Card_Id[i*2]=asc_16[qq[i]/16];
   \                     ??zb_HandleOsalEvent_4:
   \   0000A1   8C82         MOV     DPL,R4
   \   0000A3   AA82         MOV     R2,DPL
   \   0000A5   EA           MOV     A,R2
   \   0000A6   C3           CLR     C
   \   0000A7   33           RLC     A
   \   0000A8   F8           MOV     R0,A
   \   0000A9   E4           CLR     A
   \   0000AA   33           RLC     A
   \   0000AB   F9           MOV     R1,A
   \   0000AC   7404         MOV     A,#0x4
   \   0000AE   12....       LCALL   ?XSTACK_DISP0_8
   \   0000B1   E582         MOV     A,DPL
   \   0000B3   28           ADD     A,R0
   \   0000B4   F8           MOV     R0,A
   \   0000B5   E583         MOV     A,DPH
   \   0000B7   39           ADDC    A,R1
   \   0000B8   F9           MOV     R1,A
   \   0000B9   74..         MOV     A,#qq & 0xff
   \   0000BB   2A           ADD     A,R2
   \   0000BC   F582         MOV     DPL,A
   \   0000BE   74..         MOV     A,#(qq >> 8) & 0xff
   \   0000C0   12....       LCALL   ??Subroutine23_0 & 0xFFFF
   \                     ??CrossCallReturnLabel_47:
   \   0000C3   FD           MOV     R5,A
   \   0000C4   C4           SWAP    A
   \   0000C5   540F         ANL     A,#0xf
   \   0000C7   FA           MOV     R2,A
   \   0000C8   740C         MOV     A,#0xc
   \   0000CA   12....       LCALL   ?XSTACK_DISP0_8
   \   0000CD   12....       LCALL   ?Subroutine7 & 0xFFFF
   \                     ??CrossCallReturnLabel_6:
   \   0000D0   F0           MOVX    @DPTR,A
    212                  Card_Id[i*2+1]=asc_16[qq[i]%16];        
   \   0000D1   740F         MOV     A,#0xf
   \   0000D3   5D           ANL     A,R5
   \   0000D4   FA           MOV     R2,A
   \   0000D5   740C         MOV     A,#0xc
   \   0000D7   12....       LCALL   ?XSTACK_DISP0_8
   \   0000DA   12....       LCALL   ?Subroutine7 & 0xFFFF
    213                }
   \                     ??CrossCallReturnLabel_7:
   \   0000DD   A3           INC     DPTR
   \   0000DE   F0           MOVX    @DPTR,A
   \   0000DF   0C           INC     R4
   \   0000E0   EC           MOV     A,R4
   \   0000E1   C3           CLR     C
   \   0000E2   9404         SUBB    A,#0x4
   \   0000E4   40BB         JC      ??zb_HandleOsalEvent_4
    214                sprintf((char *)buffer,"%c%c%c%c%c%c%c%c",Card_Id[0],Card_Id[1],Card_Id[2],Card_Id[3],Card_Id[4],Card_Id[5],Card_Id[6],Card_Id[7]); 
   \   0000E6                ; Setup parameters for call to function sprintf
   \   0000E6   740B         MOV     A,#0xb
   \   0000E8   12....       LCALL   ?XSTACK_DISP0_8
   \   0000EB   E0           MOVX    A,@DPTR
   \   0000EC   F5..         MOV     ?V0 + 0,A
   \   0000EE   75..00       MOV     ?V0 + 1,#0x0
   \   0000F1   78..         MOV     R0,#?V0 + 0
   \   0000F3   12....       LCALL   ?PUSH_XSTACK_I_TWO
   \   0000F6   740C         MOV     A,#0xc
   \   0000F8   12....       LCALL   ?XSTACK_DISP0_8
   \   0000FB   12....       LCALL   ?Subroutine12 & 0xFFFF
   \                     ??CrossCallReturnLabel_14:
   \   0000FE   12....       LCALL   ?PUSH_XSTACK_I_TWO
   \   000101   740D         MOV     A,#0xd
   \   000103   12....       LCALL   ?XSTACK_DISP0_8
   \   000106   12....       LCALL   ?Subroutine12 & 0xFFFF
   \                     ??CrossCallReturnLabel_15:
   \   000109   12....       LCALL   ?PUSH_XSTACK_I_TWO
   \   00010C   740E         MOV     A,#0xe
   \   00010E   12....       LCALL   ?XSTACK_DISP0_8
   \   000111   12....       LCALL   ?Subroutine12 & 0xFFFF
   \                     ??CrossCallReturnLabel_16:
   \   000114   12....       LCALL   ?PUSH_XSTACK_I_TWO
   \   000117   740F         MOV     A,#0xf
   \   000119   12....       LCALL   ?XSTACK_DISP0_8
   \   00011C   12....       LCALL   ?Subroutine12 & 0xFFFF
   \                     ??CrossCallReturnLabel_17:
   \   00011F   12....       LCALL   ?PUSH_XSTACK_I_TWO
   \   000122   7410         MOV     A,#0x10
   \   000124   12....       LCALL   ?XSTACK_DISP0_8
   \   000127   12....       LCALL   ?Subroutine12 & 0xFFFF
   \                     ??CrossCallReturnLabel_18:
   \   00012A   12....       LCALL   ?PUSH_XSTACK_I_TWO
   \   00012D   7411         MOV     A,#0x11
   \   00012F   12....       LCALL   ?XSTACK_DISP0_8
   \   000132   12....       LCALL   ?Subroutine12 & 0xFFFF
   \                     ??CrossCallReturnLabel_19:
   \   000135   12....       LCALL   ?PUSH_XSTACK_I_TWO
   \   000138   7412         MOV     A,#0x12
   \   00013A   12....       LCALL   ?XSTACK_DISP0_8
   \   00013D   12....       LCALL   ?Subroutine12 & 0xFFFF
   \                     ??CrossCallReturnLabel_20:
   \   000140   12....       LCALL   ?PUSH_XSTACK_I_TWO
   \   000143   7C..         MOV     R4,#`?<Constant "%c%c%c%c%c%c%c%c">` & 0xff
   \   000145   7D..         MOV     R5,#(`?<Constant "%c%c%c%c%c%c%c%c">` >> 8) & 0xff
   \   000147   7A..         MOV     R2,#buffer & 0xff
   \   000149   7B..         MOV     R3,#(buffer >> 8) & 0xff
   \   00014B   12....       LCALL   ??sprintf?relay
   \   00014E   7410         MOV     A,#0x10
   \   000150   12....       LCALL   ?DEALLOC_XSTACK8
    215                zb_SendDataRequest(0X0,RC522VALUE_CMD_ID,8,Card_Id,0,FALSE,AF_DEFAULT_RADIUS);
   \   000153                ; Setup parameters for call to function zb_SendDataRequest
   \   000153   75..1E       MOV     ?V0 + 0,#0x1e
   \   000156   78..         MOV     R0,#?V0 + 0
   \   000158   12....       LCALL   ?PUSH_XSTACK_I_ONE
   \   00015B   75..00       MOV     ?V0 + 0,#0x0
   \   00015E   78..         MOV     R0,#?V0 + 0
   \   000160   12....       LCALL   ?PUSH_XSTACK_I_ONE
   \   000163   78..         MOV     R0,#?V0 + 0
   \   000165   12....       LCALL   ?PUSH_XSTACK_I_ONE
   \   000168   7407         MOV     A,#0x7
   \   00016A   12....       LCALL   ?XSTACK_DISP0_8
   \   00016D   8582..       MOV     ?V0 + 0,DPL
   \   000170   8583..       MOV     ?V0 + 1,DPH
   \   000173   78..         MOV     R0,#?V0 + 0
   \   000175   12....       LCALL   ?PUSH_XSTACK_I_TWO
   \   000178   7908         MOV     R1,#0x8
   \   00017A   7C05         MOV     R4,#0x5
   \   00017C   7D00         MOV     R5,#0x0
   \   00017E   7A00         MOV     R2,#0x0
   \   000180   7B00         MOV     R3,#0x0
   \   000182   12....       LCALL   ??zb_SendDataRequest?relay
   \   000185   7405         MOV     A,#0x5
   \   000187   12....       LCALL   ?DEALLOC_XSTACK8
    216              }
    217              
    218              Get_ADCValue(&lightvalue);
   \                     ??zb_HandleOsalEvent_3:
   \   00018A                ; Setup parameters for call to function Get_ADCValue
   \   00018A   7402         MOV     A,#0x2
   \   00018C   12....       LCALL   ?XSTACK_DISP0_8
   \   00018F   AA82         MOV     R2,DPL
   \   000191   AB83         MOV     R3,DPH
   \   000193   12....       LCALL   ??Get_ADCValue?relay
    219              value[0]=lightvalue&0xff;
   \   000196   7402         MOV     A,#0x2
   \   000198   12....       LCALL   ?XSTACK_DISP0_8
   \   00019B   E0           MOVX    A,@DPTR
   \   00019C   85..82       MOV     DPL,?XSP + 0
   \   00019F   85..83       MOV     DPH,?XSP + 1
   \   0001A2   F0           MOVX    @DPTR,A
    220              value[1]=(lightvalue>>8)&0xff;
   \   0001A3   7402         MOV     A,#0x2
   \   0001A5   12....       LCALL   ?XSTACK_DISP0_8
   \   0001A8   A3           INC     DPTR
   \   0001A9   E0           MOVX    A,@DPTR
   \   0001AA   F9           MOV     R1,A
   \   0001AB   7401         MOV     A,#0x1
   \   0001AD   12....       LCALL   ?XSTACK_DISP0_8
   \   0001B0   E9           MOV     A,R1
   \   0001B1   F0           MOVX    @DPTR,A
    221              AvgValue = value[0] | ((unsigned int)value[1] << 8);
    222              
    223              if(AvgValue==32763)
   \   0001B2   85..82       MOV     DPL,?XSP + 0
   \   0001B5   85..83       MOV     DPH,?XSP + 1
   \   0001B8   E0           MOVX    A,@DPTR
   \   0001B9   F8           MOV     R0,A
   \   0001BA   74FB         MOV     A,#-0x5
   \   0001BC   68           XRL     A,R0
   \   0001BD   7003         JNZ     ??zb_HandleOsalEvent_5
   \   0001BF   747F         MOV     A,#0x7f
   \   0001C1   69           XRL     A,R1
   \                     ??zb_HandleOsalEvent_5:
   \   0001C2   700B         JNZ     ??zb_HandleOsalEvent_6
    224              {
    225                HalLedSet(HAL_LED_1,HAL_LED_MODE_ON);
   \   0001C4                ; Setup parameters for call to function HalLedSet
   \   0001C4   7A01         MOV     R2,#0x1
   \   0001C6   7901         MOV     R1,#0x1
   \   0001C8   12....       LCALL   ??HalLedSet?relay
    226                HalLedSet(HAL_LED_2,HAL_LED_MODE_ON);
   \   0001CB                ; Setup parameters for call to function HalLedSet
   \   0001CB   7A01         MOV     R2,#0x1
   \   0001CD   8009         SJMP    ??zb_HandleOsalEvent_7
    227              }
    228              else
    229              {
    230                HalLedSet(HAL_LED_1,HAL_LED_MODE_OFF);
   \                     ??zb_HandleOsalEvent_6:
   \   0001CF                ; Setup parameters for call to function HalLedSet
   \   0001CF   7A00         MOV     R2,#0x0
   \   0001D1   7901         MOV     R1,#0x1
   \   0001D3   12....       LCALL   ??HalLedSet?relay
    231                HalLedSet(HAL_LED_2,HAL_LED_MODE_OFF);
   \   0001D6                ; Setup parameters for call to function HalLedSet
   \   0001D6   7A00         MOV     R2,#0x0
   \                     ??zb_HandleOsalEvent_7:
   \   0001D8   7902         MOV     R1,#0x2
   \   0001DA   12....       LCALL   ??HalLedSet?relay
    232              }
    233            }
    234          }
   \                     ??zb_HandleOsalEvent_1:
   \   0001DD   741C         MOV     A,#0x1c
   \   0001DF   02....       LJMP    ?Subroutine2 & 0xFFFF

   \                                 In  segment BANKED_CODE, align 1, keep-with-next
   \                     ?Subroutine12:
   \   000000   E0           MOVX    A,@DPTR
   \   000001   F5..         MOV     ?V0 + 0,A
   \   000003   78..         MOV     R0,#?V0 + 0
   \   000005   22           RET

   \                                 In  segment BANKED_CODE, align 1, keep-with-next
   \                     ?Subroutine7:
   \   000000   E582         MOV     A,DPL
   \   000002   2A           ADD     A,R2
   \   000003   F582         MOV     DPL,A
   \   000005   E583         MOV     A,DPH
   \   000007   3400         ADDC    A,#0x0
   \   000009   F583         MOV     DPH,A
   \   00000B   E0           MOVX    A,@DPTR
   \   00000C   8882         MOV     DPL,R0
   \   00000E   8983         MOV     DPH,R1
   \   000010   22           RET
    235          

   \                                 In  segment BANKED_CODE, align 1, keep-with-next
    236          void zb_FindDeviceConfirm( uint8 searchType, 
   \                     zb_FindDeviceConfirm:
    237                                    uint8 *searchKey, uint8 *result )
    238          {
   \   000000                ; Saved register size: 0
   \   000000                ; Auto size: 0
    239            
    240          }
   \   000000   02....       LJMP    ?BRET

   \                                 In  segment XDATA_ID, align 1, keep-with-next
   \                     `?<Initializer for F16x16>`:
   \   000000   80           DB 128
   \   000001   80           DB 128
   \   000002   40           DB 64
   \   000003   20           DB 32
   \   000004   50           DB 80
   \   000005   48           DB 72
   \   000006   44           DB 68
   \   000007   C3           DB 195
   \   000008   44           DB 68
   \   000009   48           DB 72
   \   00000A   50           DB 80
   \   00000B   20           DB 32
   \   00000C   40           DB 64
   \   00000D   80           DB 128
   \   00000E   80           DB 128
   \   00000F   00           DB 0
   \   000010   00           DB 0
   \   000011   40           DB 64
   \   000012   22           DB 34
   \   000013   1A           DB 26
   \   000014   02           DB 2
   \   000015   42           DB 66
   \   000016   82           DB 130
   \   000017   7F           DB 127
   \   000018   02           DB 2
   \   000019   02           DB 2
   \   00001A   02           DB 2
   \   00001B   0A           DB 10
   \   00001C   12           DB 18
   \   00001D   60           DB 96
   \   00001E   00           DB 0
   \   00001F   00           DB 0
   \   000020   00           DB 0
   \   000021   8C           DB 140
   \   000022   44           DB 68
   \   000023   B5           DB 181
   \   000024   26           DB 38
   \   000025   A4           DB 164
   \   000026   64           DB 100
   \   000027   0C           DB 12
   \   000028   02           DB 2
   \   000029   F2           DB 242
   \   00002A   1A           DB 26
   \   00002B   D6           DB 214
   \   00002C   12           DB 18
   \   00002D   F2           DB 242
   \   00002E   02           DB 2
   \   00002F   00           DB 0
   \   000030   10           DB 16
   \   000031   08           DB 8
   \   000032   FC           DB 252
   \   000033   4A           DB 74
   \   000034   49           DB 73
   \   000035   4A           DB 74
   \   000036   FC           DB 252
   \   000037   08           DB 8
   \   000038   80           DB 128
   \   000039   4F           DB 79
   \   00003A   30           DB 48
   \   00003B   0F           DB 15
   \   00003C   10           DB 16
   \   00003D   2F           DB 47
   \   00003E   C0           DB 192
   \   00003F   00           DB 0
   \   000040   00           DB 0
   \   000041   02           DB 2
   \   000042   02           DB 2
   \   000043   02           DB 2
   \   000044   02           DB 2
   \   000045   82           DB 130
   \   000046   42           DB 66
   \   000047   F2           DB 242
   \   000048   0E           DB 14
   \   000049   42           DB 66
   \   00004A   82           DB 130
   \   00004B   02           DB 2
   \   00004C   02           DB 2
   \   00004D   02           DB 2
   \   00004E   00           DB 0
   \   00004F   00           DB 0
   \   000050   10           DB 16
   \   000051   08           DB 8
   \   000052   04           DB 4
   \   000053   02           DB 2
   \   000054   01           DB 1
   \   000055   00           DB 0
   \   000056   00           DB 0
   \   000057   FF           DB 255
   \   000058   00           DB 0
   \   000059   00           DB 0
   \   00005A   00           DB 0
   \   00005B   01           DB 1
   \   00005C   02           DB 2
   \   00005D   0C           DB 12
   \   00005E   00           DB 0
   \   00005F   00           DB 0
   \   000060   00           DB 0
   \   000061   00           DB 0
   \   000062   00           DB 0
   \   000063   7E           DB 126
   \   000064   42           DB 66
   \   000065   42           DB 66
   \   000066   42           DB 66
   \   000067   C2           DB 194
   \   000068   42           DB 66
   \   000069   42           DB 66
   \   00006A   42           DB 66
   \   00006B   7E           DB 126
   \   00006C   00           DB 0
   \   00006D   00           DB 0
   \   00006E   00           DB 0
   \   00006F   00           DB 0
   \   000070   80           DB 128
   \   000071   40           DB 64
   \   000072   30           DB 48
   \   000073   0E           DB 14
   \   000074   10           DB 16
   \   000075   20           DB 32
   \   000076   40           DB 64
   \   000077   7F           DB 127
   \   000078   44           DB 68
   \   000079   44           DB 68
   \   00007A   44           DB 68
   \   00007B   44           DB 68
   \   00007C   44           DB 68
   \   00007D   40           DB 64
   \   00007E   40           DB 64
   \   00007F   00           DB 0
   \   000080   20           DB 32
   \   000081   20           DB 32
   \   000082   22           DB 34
   \   000083   22           DB 34
   \   000084   22           DB 34
   \   000085   E2           DB 226
   \   000086   22           DB 34
   \   000087   22           DB 34
   \   000088   22           DB 34
   \   000089   E2           DB 226
   \   00008A   22           DB 34
   \   00008B   22           DB 34
   \   00008C   22           DB 34
   \   00008D   20           DB 32
   \   00008E   20           DB 32
   \   00008F   00           DB 0
   \   000090   80           DB 128
   \   000091   40           DB 64
   \   000092   20           DB 32
   \   000093   10           DB 16
   \   000094   0C           DB 12
   \   000095   03           DB 3
   \   000096   00           DB 0
   \   000097   00           DB 0
   \   000098   00           DB 0
   \   000099   3F           DB 63
   \   00009A   40           DB 64
   \   00009B   40           DB 64
   \   00009C   40           DB 64
   \   00009D   40           DB 64
   \   00009E   78           DB 120
   \   00009F   00           DB 0
   \   0000A0   00           DB 0
   \   0000A1   10           DB 16
   \   0000A2   10           DB 16
   \   0000A3   10           DB 16
   \   0000A4   10           DB 16
   \   0000A5   D0           DB 208
   \   0000A6   30           DB 48
   \   0000A7   FF           DB 255
   \   0000A8   30           DB 48
   \   0000A9   D0           DB 208
   \   0000AA   10           DB 16
   \   0000AB   10           DB 16
   \   0000AC   10           DB 16
   \   0000AD   10           DB 16
   \   0000AE   00           DB 0
   \   0000AF   00           DB 0
   \   0000B0   10           DB 16
   \   0000B1   08           DB 8
   \   0000B2   04           DB 4
   \   0000B3   02           DB 2
   \   0000B4   09           DB 9
   \   0000B5   08           DB 8
   \   0000B6   08           DB 8
   \   0000B7   FF           DB 255
   \   0000B8   08           DB 8
   \   0000B9   08           DB 8
   \   0000BA   09           DB 9
   \   0000BB   02           DB 2
   \   0000BC   04           DB 4
   \   0000BD   08           DB 8
   \   0000BE   10           DB 16
   \   0000BF   00           DB 0
   \   0000C0   00           DB 0
   \   0000C1   00           DB 0
   \   0000C2   00           DB 0
   \   0000C3   FE           DB 254
   \   0000C4   22           DB 34
   \   0000C5   22           DB 34
   \   0000C6   22           DB 34
   \   0000C7   22           DB 34
   \   0000C8   22           DB 34
   \   0000C9   22           DB 34
   \   0000CA   22           DB 34
   \   0000CB   22           DB 34
   \   0000CC   FE           DB 254
   \   0000CD   00           DB 0
   \   0000CE   00           DB 0
   \   0000CF   00           DB 0
   \   0000D0   80           DB 128
   \   0000D1   40           DB 64
   \   0000D2   30           DB 48
   \   0000D3   0F           DB 15
   \   0000D4   02           DB 2
   \   0000D5   02           DB 2
   \   0000D6   02           DB 2
   \   0000D7   02           DB 2
   \   0000D8   02           DB 2
   \   0000D9   02           DB 2
   \   0000DA   42           DB 66
   \   0000DB   82           DB 130
   \   0000DC   7F           DB 127
   \   0000DD   00           DB 0
   \   0000DE   00           DB 0
   \   0000DF   00           DB 0
   \   0000E0   10           DB 16
   \   0000E1   60           DB 96
   \   0000E2   02           DB 2
   \   0000E3   0C           DB 12
   \   0000E4   C0           DB 192
   \   0000E5   00           DB 0
   \   0000E6   E2           DB 226
   \   0000E7   2C           DB 44
   \   0000E8   20           DB 32
   \   0000E9   3F           DB 63
   \   0000EA   20           DB 32
   \   0000EB   28           DB 40
   \   0000EC   E6           DB 230
   \   0000ED   00           DB 0
   \   0000EE   00           DB 0
   \   0000EF   00           DB 0
   \   0000F0   04           DB 4
   \   0000F1   04           DB 4
   \   0000F2   7C           DB 124
   \   0000F3   03           DB 3
   \   0000F4   00           DB 0
   \   0000F5   00           DB 0
   \   0000F6   FF           DB 255
   \   0000F7   09           DB 9
   \   0000F8   09           DB 9
   \   0000F9   09           DB 9
   \   0000FA   49           DB 73
   \   0000FB   89           DB 137
   \   0000FC   7F           DB 127
   \   0000FD   00           DB 0
   \   0000FE   00           DB 0
   \   0000FF   00           DB 0
   \   000100   00           DB 0
   \   000101   02           DB 2
   \   000102   3A           DB 58
   \   000103   AA           DB 170
   \   000104   6A           DB 106
   \   000105   3F           DB 63
   \   000106   2A           DB 42
   \   000107   2A           DB 42
   \   000108   2A           DB 42
   \   000109   FF           DB 255
   \   00010A   2A           DB 42
   \   00010B   AA           DB 170
   \   00010C   2E           DB 46
   \   00010D   E0           DB 224
   \   00010E   00           DB 0
   \   00010F   00           DB 0
   \   000110   00           DB 0
   \   000111   02           DB 2
   \   000112   81           DB 129
   \   000113   9E           DB 158
   \   000114   42           DB 66
   \   000115   42           DB 66
   \   000116   22           DB 34
   \   000117   1A           DB 26
   \   000118   22           DB 34
   \   000119   22           DB 34
   \   00011A   42           DB 66
   \   00011B   5E           DB 94
   \   00011C   81           DB 129
   \   00011D   00           DB 0
   \   00011E   00           DB 0
   \   00011F   00           DB 0
   \   000120   00           DB 0
   \   000121   02           DB 2
   \   000122   0C           DB 12
   \   000123   80           DB 128
   \   000124   60           DB 96
   \   000125   80           DB 128
   \   000126   40           DB 64
   \   000127   30           DB 48
   \   000128   0F           DB 15
   \   000129   C8           DB 200
   \   00012A   08           DB 8
   \   00012B   08           DB 8
   \   00012C   28           DB 40
   \   00012D   18           DB 24
   \   00012E   00           DB 0
   \   00012F   00           DB 0
   \   000130   02           DB 2
   \   000131   02           DB 2
   \   000132   7E           DB 126
   \   000133   01           DB 1
   \   000134   80           DB 128
   \   000135   40           DB 64
   \   000136   20           DB 32
   \   000137   18           DB 24
   \   000138   06           DB 6
   \   000139   01           DB 1
   \   00013A   06           DB 6
   \   00013B   18           DB 24
   \   00013C   20           DB 32
   \   00013D   40           DB 64
   \   00013E   80           DB 128
   \   00013F   00           DB 0
   \   000140   40           DB 64
   \   000141   42           DB 66
   \   000142   CC           DB 204
   \   000143   00           DB 0
   \   000144   00           DB 0
   \   000145   44           DB 68
   \   000146   54           DB 84
   \   000147   54           DB 84
   \   000148   54           DB 84
   \   000149   7F           DB 127
   \   00014A   54           DB 84
   \   00014B   54           DB 84
   \   00014C   54           DB 84
   \   00014D   44           DB 68
   \   00014E   40           DB 64
   \   00014F   00           DB 0
   \   000150   00           DB 0
   \   000151   00           DB 0
   \   000152   7F           DB 127
   \   000153   20           DB 32
   \   000154   10           DB 16
   \   000155   00           DB 0
   \   000156   FF           DB 255
   \   000157   15           DB 21
   \   000158   15           DB 21
   \   000159   15           DB 21
   \   00015A   55           DB 85
   \   00015B   95           DB 149
   \   00015C   7F           DB 127
   \   00015D   00           DB 0
   \   00015E   00           DB 0
   \   00015F   00           DB 0
   \   000160   00           DB 0
   \   000161   00           DB 0
   \   000162   FE           DB 254
   \   000163   12           DB 18
   \   000164   12           DB 18
   \   000165   12           DB 18
   \   000166   F2           DB 242
   \   000167   12           DB 18
   \   000168   12           DB 18
   \   000169   1E           DB 30
   \   00016A   00           DB 0
   \   00016B   F0           DB 240
   \   00016C   00           DB 0
   \   00016D   00           DB 0
   \   00016E   FF           DB 255
   \   00016F   00           DB 0
   \   000170   10           DB 16
   \   000171   0E           DB 14
   \   000172   01           DB 1
   \   000173   3F           DB 63
   \   000174   01           DB 1
   \   000175   01           DB 1
   \   000176   FF           DB 255
   \   000177   11           DB 17
   \   000178   21           DB 33
   \   000179   1F           DB 31
   \   00017A   00           DB 0
   \   00017B   0F           DB 15
   \   00017C   40           DB 64
   \   00017D   80           DB 128
   \   00017E   7F           DB 127
   \   00017F   00           DB 0
   \   000180   40           DB 64
   \   000181   40           DB 64
   \   000182   40           DB 64
   \   000183   40           DB 64
   \   000184   40           DB 64
   \   000185   40           DB 64
   \   000186   FF           DB 255
   \   000187   44           DB 68
   \   000188   44           DB 68
   \   000189   44           DB 68
   \   00018A   44           DB 68
   \   00018B   44           DB 68
   \   00018C   44           DB 68
   \   00018D   40           DB 64
   \   00018E   40           DB 64
   \   00018F   00           DB 0
   \   000190   00           DB 0
   \   000191   00           DB 0
   \   000192   00           DB 0
   \   000193   00           DB 0
   \   000194   00           DB 0
   \   000195   00           DB 0
   \   000196   FF           DB 255
   \   000197   00           DB 0
   \   000198   00           DB 0
   \   000199   02           DB 2
   \   00019A   04           DB 4
   \   00019B   08           DB 8
   \   00019C   10           DB 16
   \   00019D   00           DB 0
   \   00019E   00           DB 0
   \   00019F   00           DB 0

   \                                 In  segment XDATA_ID, align 1, keep-with-next
   \                     `?<Initializer for BMP>`:
   \   000000   00           DB 0
   \   000001   00           DB 0
   \   000002   00           DB 0
   \   000003   00           DB 0
   \   000004   00           DB 0
   \   000005   00           DB 0
   \   000006   00           DB 0
   \   000007   00           DB 0
   \   000008   00           DB 0
   \   000009   00           DB 0
   \   00000A   00           DB 0
   \   00000B   00           DB 0
   \   00000C   00           DB 0
   \   00000D   00           DB 0
   \   00000E   00           DB 0
   \   00000F   00           DB 0
   \   000010   00           DB 0
   \   000011   00           DB 0
   \   000012   00           DB 0
   \   000013   00           DB 0
   \   000014   00           DB 0
   \   000015   00           DB 0
   \   000016   00           DB 0
   \   000017   00           DB 0
   \   000018   00           DB 0
   \   000019   00           DB 0
   \   00001A   00           DB 0
   \   00001B   00           DB 0
   \   00001C   00           DB 0
   \   00001D   78           DB 120
   \   00001E   F8           DB 248
   \   00001F   F8           DB 248
   \   000020   F8           DB 248
   \   000021   F0           DB 240
   \   000022   60           DB 96
   \   000023   00           DB 0
   \   000024   00           DB 0
   \   000025   00           DB 0
   \   000026   00           DB 0
   \   000027   00           DB 0
   \   000028   00           DB 0
   \   000029   00           DB 0
   \   00002A   00           DB 0
   \   00002B   00           DB 0
   \   00002C   00           DB 0
   \   00002D   00           DB 0
   \   00002E   00           DB 0
   \   00002F   00           DB 0
   \   000030   00           DB 0
   \   000031   00           DB 0
   \   000032   00           DB 0
   \   000033   00           DB 0
   \   000034   00           DB 0
   \   000035   00           DB 0
   \   000036   00           DB 0
   \   000037   00           DB 0
   \   000038   00           DB 0
   \   000039   00           DB 0
   \   00003A   00           DB 0
   \   00003B   00           DB 0
   \   00003C   00           DB 0
   \   00003D   00           DB 0
   \   00003E   00           DB 0
   \   00003F   00           DB 0
   \   000040   00           DB 0
   \   000041   00           DB 0
   \   000042   00           DB 0
   \   000043   00           DB 0
   \   000044   00           DB 0
   \   000045   00           DB 0
   \   000046   00           DB 0
   \   000047   00           DB 0
   \   000048   00           DB 0
   \   000049   00           DB 0
   \   00004A   00           DB 0
   \   00004B   00           DB 0
   \   00004C   00           DB 0
   \   00004D   00           DB 0
   \   00004E   00           DB 0
   \   00004F   00           DB 0
   \   000050   00           DB 0
   \   000051   00           DB 0
   \   000052   00           DB 0
   \   000053   00           DB 0
   \   000054   00           DB 0
   \   000055   00           DB 0
   \   000056   00           DB 0
   \   000057   C0           DB 192
   \   000058   E0           DB 224
   \   000059   F0           DB 240
   \   00005A   38           DB 56
   \   00005B   1C           DB 28
   \   00005C   0E           DB 14
   \   00005D   FE           DB 254
   \   00005E   FE           DB 254
   \   00005F   FF           DB 255
   \   000060   FF           DB 255
   \   000061   FE           DB 254
   \   000062   FE           DB 254
   \   000063   1C           DB 28
   \   000064   38           DB 56
   \   000065   70           DB 112
   \   000066   38           DB 56
   \   000067   1F           DB 31
   \   000068   0F           DB 15
   \   000069   07           DB 7
   \   00006A   00           DB 0
   \   00006B   00           DB 0
   \   00006C   00           DB 0
   \   00006D   00           DB 0
   \   00006E   00           DB 0
   \   00006F   00           DB 0
   \   000070   00           DB 0
   \   000071   00           DB 0
   \   000072   00           DB 0
   \   000073   00           DB 0
   \   000074   00           DB 0
   \   000075   00           DB 0
   \   000076   00           DB 0
   \   000077   00           DB 0
   \   000078   00           DB 0
   \   000079   00           DB 0
   \   00007A   00           DB 0
   \   00007B   00           DB 0
   \   00007C   00           DB 0
   \   00007D   00           DB 0
   \   00007E   00           DB 0
   \   00007F   00           DB 0
   \   000080   00           DB 0
   \   000081   00           DB 0
   \   000082   00           DB 0
   \   000083   00           DB 0
   \   000084   00           DB 0
   \   000085   00           DB 0
   \   000086   00           DB 0
   \   000087   00           DB 0
   \   000088   00           DB 0
   \   000089   00           DB 0
   \   00008A   00           DB 0
   \   00008B   00           DB 0
   \   00008C   00           DB 0
   \   00008D   00           DB 0
   \   00008E   00           DB 0
   \   00008F   00           DB 0
   \   000090   00           DB 0
   \   000091   00           DB 0
   \   000092   00           DB 0
   \   000093   00           DB 0
   \   000094   00           DB 0
   \   000095   00           DB 0
   \   000096   80           DB 128
   \   000097   81           DB 129
   \   000098   C1           DB 193
   \   000099   E1           DB 225
   \   00009A   70           DB 112
   \   00009B   38           DB 56
   \   00009C   1C           DB 28
   \   00009D   0F           DB 15
   \   00009E   07           DB 7
   \   00009F   03           DB 3
   \   0000A0   07           DB 7
   \   0000A1   0F           DB 15
   \   0000A2   1F           DB 31
   \   0000A3   38           DB 56
   \   0000A4   F0           DB 240
   \   0000A5   E0           DB 224
   \   0000A6   C0           DB 192
   \   0000A7   00           DB 0
   \   0000A8   00           DB 0
   \   0000A9   00           DB 0
   \   0000AA   00           DB 0
   \   0000AB   00           DB 0
   \   0000AC   00           DB 0
   \   0000AD   00           DB 0
   \   0000AE   00           DB 0
   \   0000AF   00           DB 0
   \   0000B0   00           DB 0
   \   0000B1   00           DB 0
   \   0000B2   00           DB 0
   \   0000B3   00           DB 0
   \   0000B4   00           DB 0
   \   0000B5   00           DB 0
   \   0000B6   00           DB 0
   \   0000B7   00           DB 0
   \   0000B8   00           DB 0
   \   0000B9   00           DB 0
   \   0000BA   00           DB 0
   \   0000BB   00           DB 0
   \   0000BC   00           DB 0
   \   0000BD   00           DB 0
   \   0000BE   00           DB 0
   \   0000BF   00           DB 0
   \   0000C0   00           DB 0
   \   0000C1   00           DB 0
   \   0000C2   00           DB 0
   \   0000C3   00           DB 0
   \   0000C4   00           DB 0
   \   0000C5   00           DB 0
   \   0000C6   00           DB 0
   \   0000C7   00           DB 0
   \   0000C8   00           DB 0
   \   0000C9   00           DB 0
   \   0000CA   00           DB 0
   \   0000CB   00           DB 0
   \   0000CC   00           DB 0
   \   0000CD   00           DB 0
   \   0000CE   00           DB 0
   \   0000CF   00           DB 0
   \   0000D0   00           DB 0
   \   0000D1   00           DB 0
   \   0000D2   00           DB 0
   \   0000D3   00           DB 0
   \   0000D4   00           DB 0
   \   0000D5   00           DB 0
   \   0000D6   0F           DB 15
   \   0000D7   07           DB 7
   \   0000D8   01           DB 1
   \   0000D9   00           DB 0
   \   0000DA   00           DB 0
   \   0000DB   00           DB 0
   \   0000DC   00           DB 0
   \   0000DD   00           DB 0
   \   0000DE   00           DB 0
   \   0000DF   00           DB 0
   \   0000E0   00           DB 0
   \   0000E1   00           DB 0
   \   0000E2   00           DB 0
   \   0000E3   00           DB 0
   \   0000E4   07           DB 7
   \   0000E5   07           DB 7
   \   0000E6   07           DB 7
   \   0000E7   06           DB 6
   \   0000E8   04           DB 4
   \   0000E9   00           DB 0
   \   0000EA   00           DB 0
   \   0000EB   00           DB 0
   \   0000EC   00           DB 0
   \   0000ED   00           DB 0
   \   0000EE   00           DB 0
   \   0000EF   00           DB 0
   \   0000F0   00           DB 0
   \   0000F1   00           DB 0
   \   0000F2   00           DB 0
   \   0000F3   00           DB 0
   \   0000F4   00           DB 0
   \   0000F5   00           DB 0
   \   0000F6   00           DB 0
   \   0000F7   00           DB 0
   \   0000F8   00           DB 0
   \   0000F9   00           DB 0
   \   0000FA   00           DB 0
   \   0000FB   00           DB 0
   \   0000FC   00           DB 0
   \   0000FD   00           DB 0
   \   0000FE   00           DB 0
   \   0000FF   00           DB 0

   \                                 In  segment XDATA_ID, align 1, keep-with-next
   \                     `?<Initializer for BMP2>`:
   \   000000   00           DB 0
   \   000001   00           DB 0
   \   000002   00           DB 0
   \   000003   00           DB 0
   \   000004   00           DB 0
   \   000005   00           DB 0
   \   000006   00           DB 0
   \   000007   00           DB 0
   \   000008   00           DB 0
   \   000009   00           DB 0
   \   00000A   00           DB 0
   \   00000B   00           DB 0
   \   00000C   00           DB 0
   \   00000D   00           DB 0
   \   00000E   00           DB 0
   \   00000F   00           DB 0
   \   000010   00           DB 0
   \   000011   00           DB 0
   \   000012   00           DB 0
   \   000013   00           DB 0
   \   000014   00           DB 0
   \   000015   00           DB 0
   \   000016   00           DB 0
   \   000017   00           DB 0
   \   000018   00           DB 0
   \   000019   00           DB 0
   \   00001A   00           DB 0
   \   00001B   00           DB 0
   \   00001C   00           DB 0
   \   00001D   00           DB 0
   \   00001E   00           DB 0
   \   00001F   00           DB 0
   \   000020   00           DB 0
   \   000021   00           DB 0
   \   000022   00           DB 0
   \   000023   00           DB 0
   \   000024   00           DB 0
   \   000025   00           DB 0
   \   000026   00           DB 0
   \   000027   00           DB 0
   \   000028   00           DB 0
   \   000029   00           DB 0
   \   00002A   00           DB 0
   \   00002B   00           DB 0
   \   00002C   00           DB 0
   \   00002D   00           DB 0
   \   00002E   00           DB 0
   \   00002F   00           DB 0
   \   000030   00           DB 0
   \   000031   00           DB 0
   \   000032   00           DB 0
   \   000033   00           DB 0
   \   000034   00           DB 0
   \   000035   00           DB 0
   \   000036   00           DB 0
   \   000037   00           DB 0
   \   000038   00           DB 0
   \   000039   00           DB 0
   \   00003A   00           DB 0
   \   00003B   00           DB 0
   \   00003C   00           DB 0
   \   00003D   00           DB 0
   \   00003E   00           DB 0
   \   00003F   00           DB 0
   \   000040   00           DB 0
   \   000041   00           DB 0
   \   000042   00           DB 0
   \   000043   00           DB 0
   \   000044   00           DB 0
   \   000045   00           DB 0
   \   000046   00           DB 0
   \   000047   00           DB 0
   \   000048   00           DB 0
   \   000049   00           DB 0
   \   00004A   00           DB 0
   \   00004B   00           DB 0
   \   00004C   00           DB 0
   \   00004D   00           DB 0
   \   00004E   00           DB 0
   \   00004F   00           DB 0
   \   000050   00           DB 0
   \   000051   00           DB 0
   \   000052   00           DB 0
   \   000053   00           DB 0
   \   000054   00           DB 0
   \   000055   00           DB 0
   \   000056   00           DB 0
   \   000057   00           DB 0
   \   000058   00           DB 0
   \   000059   00           DB 0
   \   00005A   00           DB 0
   \   00005B   00           DB 0
   \   00005C   00           DB 0
   \   00005D   00           DB 0
   \   00005E   00           DB 0
   \   00005F   00           DB 0
   \   000060   00           DB 0
   \   000061   00           DB 0
   \   000062   00           DB 0
   \   000063   00           DB 0
   \   000064   00           DB 0
   \   000065   00           DB 0
   \   000066   00           DB 0
   \   000067   00           DB 0
   \   000068   00           DB 0
   \   000069   00           DB 0
   \   00006A   00           DB 0
   \   00006B   00           DB 0
   \   00006C   00           DB 0
   \   00006D   00           DB 0
   \   00006E   00           DB 0
   \   00006F   00           DB 0
   \   000070   00           DB 0
   \   000071   00           DB 0
   \   000072   00           DB 0
   \   000073   00           DB 0
   \   000074   00           DB 0
   \   000075   00           DB 0
   \   000076   00           DB 0
   \   000077   00           DB 0
   \   000078   00           DB 0
   \   000079   00           DB 0
   \   00007A   00           DB 0
   \   00007B   00           DB 0
   \   00007C   00           DB 0
   \   00007D   00           DB 0
   \   00007E   00           DB 0
   \   00007F   00           DB 0
   \   000080   00           DB 0
   \   000081   00           DB 0
   \   000082   00           DB 0
   \   000083   00           DB 0
   \   000084   00           DB 0
   \   000085   00           DB 0
   \   000086   00           DB 0
   \   000087   00           DB 0
   \   000088   00           DB 0
   \   000089   00           DB 0
   \   00008A   00           DB 0
   \   00008B   00           DB 0
   \   00008C   00           DB 0
   \   00008D   00           DB 0
   \   00008E   00           DB 0
   \   00008F   00           DB 0
   \   000090   00           DB 0
   \   000091   00           DB 0
   \   000092   00           DB 0
   \   000093   00           DB 0
   \   000094   00           DB 0
   \   000095   00           DB 0
   \   000096   00           DB 0
   \   000097   00           DB 0
   \   000098   00           DB 0
   \   000099   00           DB 0
   \   00009A   00           DB 0
   \   00009B   00           DB 0
   \   00009C   00           DB 0
   \   00009D   00           DB 0
   \   00009E   00           DB 0
   \   00009F   00           DB 0
   \   0000A0   00           DB 0
   \   0000A1   00           DB 0
   \   0000A2   00           DB 0
   \   0000A3   00           DB 0
   \   0000A4   00           DB 0
   \   0000A5   00           DB 0
   \   0000A6   00           DB 0
   \   0000A7   00           DB 0
   \   0000A8   00           DB 0
   \   0000A9   00           DB 0
   \   0000AA   00           DB 0
   \   0000AB   00           DB 0
   \   0000AC   00           DB 0
   \   0000AD   00           DB 0
   \   0000AE   00           DB 0
   \   0000AF   00           DB 0
   \   0000B0   00           DB 0
   \   0000B1   00           DB 0
   \   0000B2   00           DB 0
   \   0000B3   00           DB 0
   \   0000B4   00           DB 0
   \   0000B5   80           DB 128
   \   0000B6   C0           DB 192
   \   0000B7   C0           DB 192
   \   0000B8   C0           DB 192
   \   0000B9   C0           DB 192
   \   0000BA   C0           DB 192
   \   0000BB   C0           DB 192
   \   0000BC   C0           DB 192
   \   0000BD   C0           DB 192
   \   0000BE   C0           DB 192
   \   0000BF   C0           DB 192
   \   0000C0   C0           DB 192
   \   0000C1   C0           DB 192
   \   0000C2   C0           DB 192
   \   0000C3   C0           DB 192
   \   0000C4   C0           DB 192
   \   0000C5   C0           DB 192
   \   0000C6   C0           DB 192
   \   0000C7   C0           DB 192
   \   0000C8   C0           DB 192
   \   0000C9   C0           DB 192
   \   0000CA   80           DB 128
   \   0000CB   00           DB 0
   \   0000CC   00           DB 0
   \   0000CD   00           DB 0
   \   0000CE   00           DB 0
   \   0000CF   00           DB 0
   \   0000D0   00           DB 0
   \   0000D1   00           DB 0
   \   0000D2   00           DB 0
   \   0000D3   00           DB 0
   \   0000D4   00           DB 0
   \   0000D5   00           DB 0
   \   0000D6   00           DB 0
   \   0000D7   00           DB 0
   \   0000D8   00           DB 0
   \   0000D9   00           DB 0
   \   0000DA   00           DB 0
   \   0000DB   00           DB 0
   \   0000DC   00           DB 0
   \   0000DD   00           DB 0
   \   0000DE   00           DB 0
   \   0000DF   00           DB 0
   \   0000E0   00           DB 0
   \   0000E1   00           DB 0
   \   0000E2   00           DB 0
   \   0000E3   00           DB 0
   \   0000E4   00           DB 0
   \   0000E5   00           DB 0
   \   0000E6   00           DB 0
   \   0000E7   00           DB 0
   \   0000E8   00           DB 0
   \   0000E9   00           DB 0
   \   0000EA   00           DB 0
   \   0000EB   00           DB 0
   \   0000EC   00           DB 0
   \   0000ED   00           DB 0
   \   0000EE   00           DB 0
   \   0000EF   00           DB 0
   \   0000F0   00           DB 0
   \   0000F1   00           DB 0
   \   0000F2   00           DB 0
   \   0000F3   00           DB 0
   \   0000F4   00           DB 0
   \   0000F5   00           DB 0
   \   0000F6   00           DB 0
   \   0000F7   00           DB 0
   \   0000F8   00           DB 0
   \   0000F9   00           DB 0
   \   0000FA   00           DB 0
   \   0000FB   00           DB 0
   \   0000FC   00           DB 0
   \   0000FD   00           DB 0
   \   0000FE   00           DB 0
   \   0000FF   00           DB 0
   \   000100   00           DB 0
   \   000101   00           DB 0
   \   000102   00           DB 0
   \   000103   00           DB 0
   \   000104   00           DB 0
   \   000105   00           DB 0
   \   000106   00           DB 0
   \   000107   00           DB 0
   \   000108   00           DB 0
   \   000109   00           DB 0
   \   00010A   00           DB 0
   \   00010B   00           DB 0
   \   00010C   00           DB 0
   \   00010D   00           DB 0
   \   00010E   00           DB 0
   \   00010F   00           DB 0
   \   000110   00           DB 0
   \   000111   00           DB 0
   \   000112   00           DB 0
   \   000113   00           DB 0
   \   000114   00           DB 0
   \   000115   00           DB 0
   \   000116   00           DB 0
   \   000117   00           DB 0
   \   000118   00           DB 0
   \   000119   00           DB 0
   \   00011A   00           DB 0
   \   00011B   00           DB 0
   \   00011C   00           DB 0
   \   00011D   00           DB 0
   \   00011E   00           DB 0
   \   00011F   00           DB 0
   \   000120   00           DB 0
   \   000121   00           DB 0
   \   000122   00           DB 0
   \   000123   00           DB 0
   \   000124   00           DB 0
   \   000125   00           DB 0
   \   000126   00           DB 0
   \   000127   00           DB 0
   \   000128   00           DB 0
   \   000129   00           DB 0
   \   00012A   00           DB 0
   \   00012B   00           DB 0
   \   00012C   00           DB 0
   \   00012D   00           DB 0
   \   00012E   C0           DB 192
   \   00012F   E0           DB 224
   \   000130   70           DB 112
   \   000131   38           DB 56
   \   000132   1C           DB 28
   \   000133   0E           DB 14
   \   000134   07           DB 7
   \   000135   63           DB 99
   \   000136   E1           DB 225
   \   000137   C0           DB 192
   \   000138   80           DB 128
   \   000139   00           DB 0
   \   00013A   00           DB 0
   \   00013B   00           DB 0
   \   00013C   00           DB 0
   \   00013D   00           DB 0
   \   00013E   00           DB 0
   \   00013F   00           DB 0
   \   000140   00           DB 0
   \   000141   00           DB 0
   \   000142   00           DB 0
   \   000143   00           DB 0
   \   000144   00           DB 0
   \   000145   00           DB 0
   \   000146   00           DB 0
   \   000147   80           DB 128
   \   000148   C0           DB 192
   \   000149   E1           DB 225
   \   00014A   63           DB 99
   \   00014B   07           DB 7
   \   00014C   0E           DB 14
   \   00014D   1C           DB 28
   \   00014E   38           DB 56
   \   00014F   70           DB 112
   \   000150   E0           DB 224
   \   000151   C0           DB 192
   \   000152   00           DB 0
   \   000153   00           DB 0
   \   000154   00           DB 0
   \   000155   00           DB 0
   \   000156   00           DB 0
   \   000157   00           DB 0
   \   000158   00           DB 0
   \   000159   00           DB 0
   \   00015A   00           DB 0
   \   00015B   00           DB 0
   \   00015C   00           DB 0
   \   00015D   00           DB 0
   \   00015E   00           DB 0
   \   00015F   00           DB 0
   \   000160   00           DB 0
   \   000161   00           DB 0
   \   000162   00           DB 0
   \   000163   00           DB 0
   \   000164   00           DB 0
   \   000165   00           DB 0
   \   000166   00           DB 0
   \   000167   00           DB 0
   \   000168   00           DB 0
   \   000169   00           DB 0
   \   00016A   00           DB 0
   \   00016B   00           DB 0
   \   00016C   00           DB 0
   \   00016D   00           DB 0
   \   00016E   00           DB 0
   \   00016F   00           DB 0
   \   000170   00           DB 0
   \   000171   00           DB 0
   \   000172   00           DB 0
   \   000173   00           DB 0
   \   000174   00           DB 0
   \   000175   00           DB 0
   \   000176   00           DB 0
   \   000177   00           DB 0
   \   000178   00           DB 0
   \   000179   00           DB 0
   \   00017A   00           DB 0
   \   00017B   00           DB 0
   \   00017C   00           DB 0
   \   00017D   00           DB 0
   \   00017E   00           DB 0
   \   00017F   00           DB 0
   \   000180   00           DB 0
   \   000181   00           DB 0
   \   000182   00           DB 0
   \   000183   00           DB 0
   \   000184   00           DB 0
   \   000185   00           DB 0
   \   000186   00           DB 0
   \   000187   00           DB 0
   \   000188   00           DB 0
   \   000189   00           DB 0
   \   00018A   00           DB 0
   \   00018B   00           DB 0
   \   00018C   00           DB 0
   \   00018D   00           DB 0
   \   00018E   00           DB 0
   \   00018F   00           DB 0
   \   000190   00           DB 0
   \   000191   00           DB 0
   \   000192   00           DB 0
   \   000193   00           DB 0
   \   000194   00           DB 0
   \   000195   00           DB 0
   \   000196   00           DB 0
   \   000197   00           DB 0
   \   000198   00           DB 0
   \   000199   00           DB 0
   \   00019A   00           DB 0
   \   00019B   00           DB 0
   \   00019C   00           DB 0
   \   00019D   00           DB 0
   \   00019E   00           DB 0
   \   00019F   00           DB 0
   \   0001A0   00           DB 0
   \   0001A1   00           DB 0
   \   0001A2   00           DB 0
   \   0001A3   00           DB 0
   \   0001A4   00           DB 0
   \   0001A5   00           DB 0
   \   0001A6   00           DB 0
   \   0001A7   00           DB 0
   \   0001A8   00           DB 0
   \   0001A9   00           DB 0
   \   0001AA   00           DB 0
   \   0001AB   00           DB 0
   \   0001AC   00           DB 0
   \   0001AD   00           DB 0
   \   0001AE   FF           DB 255
   \   0001AF   FF           DB 255
   \   0001B0   00           DB 0
   \   0001B1   00           DB 0
   \   0001B2   00           DB 0
   \   0001B3   00           DB 0
   \   0001B4   00           DB 0
   \   0001B5   00           DB 0
   \   0001B6   00           DB 0
   \   0001B7   01           DB 1
   \   0001B8   03           DB 3
   \   0001B9   07           DB 7
   \   0001BA   0E           DB 14
   \   0001BB   1C           DB 28
   \   0001BC   38           DB 56
   \   0001BD   70           DB 112
   \   0001BE   60           DB 96
   \   0001BF   C0           DB 192
   \   0001C0   80           DB 128
   \   0001C1   E0           DB 224
   \   0001C2   70           DB 112
   \   0001C3   38           DB 56
   \   0001C4   1C           DB 28
   \   0001C5   0E           DB 14
   \   0001C6   07           DB 7
   \   0001C7   03           DB 3
   \   0001C8   01           DB 1
   \   0001C9   00           DB 0
   \   0001CA   00           DB 0
   \   0001CB   00           DB 0
   \   0001CC   00           DB 0
   \   0001CD   00           DB 0
   \   0001CE   00           DB 0
   \   0001CF   00           DB 0
   \   0001D0   FF           DB 255
   \   0001D1   FF           DB 255
   \   0001D2   00           DB 0
   \   0001D3   00           DB 0
   \   0001D4   00           DB 0
   \   0001D5   00           DB 0
   \   0001D6   00           DB 0
   \   0001D7   00           DB 0
   \   0001D8   00           DB 0
   \   0001D9   00           DB 0
   \   0001DA   00           DB 0
   \   0001DB   00           DB 0
   \   0001DC   00           DB 0
   \   0001DD   00           DB 0
   \   0001DE   00           DB 0
   \   0001DF   00           DB 0
   \   0001E0   00           DB 0
   \   0001E1   00           DB 0
   \   0001E2   00           DB 0
   \   0001E3   00           DB 0
   \   0001E4   00           DB 0
   \   0001E5   00           DB 0
   \   0001E6   00           DB 0
   \   0001E7   00           DB 0
   \   0001E8   00           DB 0
   \   0001E9   00           DB 0
   \   0001EA   00           DB 0
   \   0001EB   00           DB 0
   \   0001EC   00           DB 0
   \   0001ED   00           DB 0
   \   0001EE   00           DB 0
   \   0001EF   00           DB 0
   \   0001F0   00           DB 0
   \   0001F1   00           DB 0
   \   0001F2   00           DB 0
   \   0001F3   00           DB 0
   \   0001F4   00           DB 0
   \   0001F5   00           DB 0
   \   0001F6   00           DB 0
   \   0001F7   00           DB 0
   \   0001F8   00           DB 0
   \   0001F9   00           DB 0
   \   0001FA   00           DB 0
   \   0001FB   00           DB 0
   \   0001FC   00           DB 0
   \   0001FD   00           DB 0
   \   0001FE   00           DB 0
   \   0001FF   00           DB 0
   \   000200   00           DB 0
   \   000201   00           DB 0
   \   000202   00           DB 0
   \   000203   00           DB 0
   \   000204   00           DB 0
   \   000205   00           DB 0
   \   000206   00           DB 0
   \   000207   00           DB 0
   \   000208   00           DB 0
   \   000209   00           DB 0
   \   00020A   00           DB 0
   \   00020B   00           DB 0
   \   00020C   00           DB 0
   \   00020D   00           DB 0
   \   00020E   00           DB 0
   \   00020F   00           DB 0
   \   000210   00           DB 0
   \   000211   00           DB 0
   \   000212   00           DB 0
   \   000213   00           DB 0
   \   000214   00           DB 0
   \   000215   00           DB 0
   \   000216   00           DB 0
   \   000217   00           DB 0
   \   000218   00           DB 0
   \   000219   00           DB 0
   \   00021A   00           DB 0
   \   00021B   00           DB 0
   \   00021C   00           DB 0
   \   00021D   00           DB 0
   \   00021E   00           DB 0
   \   00021F   00           DB 0
   \   000220   00           DB 0
   \   000221   00           DB 0
   \   000222   00           DB 0
   \   000223   00           DB 0
   \   000224   00           DB 0
   \   000225   00           DB 0
   \   000226   00           DB 0
   \   000227   00           DB 0
   \   000228   00           DB 0
   \   000229   00           DB 0
   \   00022A   00           DB 0
   \   00022B   00           DB 0
   \   00022C   00           DB 0
   \   00022D   00           DB 0
   \   00022E   FF           DB 255
   \   00022F   FF           DB 255
   \   000230   00           DB 0
   \   000231   00           DB 0
   \   000232   00           DB 0
   \   000233   00           DB 0
   \   000234   00           DB 0
   \   000235   00           DB 0
   \   000236   00           DB 0
   \   000237   80           DB 128
   \   000238   C0           DB 192
   \   000239   E0           DB 224
   \   00023A   70           DB 112
   \   00023B   38           DB 56
   \   00023C   1C           DB 28
   \   00023D   0E           DB 14
   \   00023E   07           DB 7
   \   00023F   01           DB 1
   \   000240   03           DB 3
   \   000241   06           DB 6
   \   000242   0E           DB 14
   \   000243   1C           DB 28
   \   000244   38           DB 56
   \   000245   70           DB 112
   \   000246   E0           DB 224
   \   000247   C0           DB 192
   \   000248   80           DB 128
   \   000249   00           DB 0
   \   00024A   00           DB 0
   \   00024B   00           DB 0
   \   00024C   00           DB 0
   \   00024D   00           DB 0
   \   00024E   00           DB 0
   \   00024F   00           DB 0
   \   000250   FF           DB 255
   \   000251   FF           DB 255
   \   000252   00           DB 0
   \   000253   00           DB 0
   \   000254   00           DB 0
   \   000255   00           DB 0
   \   000256   00           DB 0
   \   000257   00           DB 0
   \   000258   00           DB 0
   \   000259   00           DB 0
   \   00025A   00           DB 0
   \   00025B   00           DB 0
   \   00025C   00           DB 0
   \   00025D   00           DB 0
   \   00025E   00           DB 0
   \   00025F   00           DB 0
   \   000260   00           DB 0
   \   000261   00           DB 0
   \   000262   00           DB 0
   \   000263   00           DB 0
   \   000264   00           DB 0
   \   000265   00           DB 0
   \   000266   00           DB 0
   \   000267   00           DB 0
   \   000268   00           DB 0
   \   000269   00           DB 0
   \   00026A   00           DB 0
   \   00026B   00           DB 0
   \   00026C   00           DB 0
   \   00026D   00           DB 0
   \   00026E   00           DB 0
   \   00026F   00           DB 0
   \   000270   00           DB 0
   \   000271   00           DB 0
   \   000272   00           DB 0
   \   000273   00           DB 0
   \   000274   00           DB 0
   \   000275   00           DB 0
   \   000276   00           DB 0
   \   000277   00           DB 0
   \   000278   00           DB 0
   \   000279   00           DB 0
   \   00027A   00           DB 0
   \   00027B   00           DB 0
   \   00027C   00           DB 0
   \   00027D   00           DB 0
   \   00027E   00           DB 0
   \   00027F   00           DB 0
   \   000280   00           DB 0
   \   000281   00           DB 0
   \   000282   00           DB 0
   \   000283   00           DB 0
   \   000284   00           DB 0
   \   000285   00           DB 0
   \   000286   00           DB 0
   \   000287   00           DB 0
   \   000288   00           DB 0
   \   000289   00           DB 0
   \   00028A   00           DB 0
   \   00028B   00           DB 0
   \   00028C   00           DB 0
   \   00028D   00           DB 0
   \   00028E   00           DB 0
   \   00028F   00           DB 0
   \   000290   00           DB 0
   \   000291   00           DB 0
   \   000292   00           DB 0
   \   000293   00           DB 0
   \   000294   00           DB 0
   \   000295   00           DB 0
   \   000296   00           DB 0
   \   000297   00           DB 0
   \   000298   00           DB 0
   \   000299   00           DB 0
   \   00029A   00           DB 0
   \   00029B   00           DB 0
   \   00029C   00           DB 0
   \   00029D   00           DB 0
   \   00029E   00           DB 0
   \   00029F   00           DB 0
   \   0002A0   00           DB 0
   \   0002A1   00           DB 0
   \   0002A2   00           DB 0
   \   0002A3   00           DB 0
   \   0002A4   00           DB 0
   \   0002A5   00           DB 0
   \   0002A6   00           DB 0
   \   0002A7   00           DB 0
   \   0002A8   00           DB 0
   \   0002A9   00           DB 0
   \   0002AA   00           DB 0
   \   0002AB   00           DB 0
   \   0002AC   00           DB 0
   \   0002AD   00           DB 0
   \   0002AE   03           DB 3
   \   0002AF   07           DB 7
   \   0002B0   0E           DB 14
   \   0002B1   1C           DB 28
   \   0002B2   38           DB 56
   \   0002B3   70           DB 112
   \   0002B4   E0           DB 224
   \   0002B5   C6           DB 198
   \   0002B6   87           DB 135
   \   0002B7   03           DB 3
   \   0002B8   01           DB 1
   \   0002B9   00           DB 0
   \   0002BA   00           DB 0
   \   0002BB   00           DB 0
   \   0002BC   00           DB 0
   \   0002BD   00           DB 0
   \   0002BE   00           DB 0
   \   0002BF   00           DB 0
   \   0002C0   00           DB 0
   \   0002C1   00           DB 0
   \   0002C2   00           DB 0
   \   0002C3   00           DB 0
   \   0002C4   00           DB 0
   \   0002C5   00           DB 0
   \   0002C6   00           DB 0
   \   0002C7   01           DB 1
   \   0002C8   03           DB 3
   \   0002C9   87           DB 135
   \   0002CA   C6           DB 198
   \   0002CB   E0           DB 224
   \   0002CC   70           DB 112
   \   0002CD   38           DB 56
   \   0002CE   1C           DB 28
   \   0002CF   0E           DB 14
   \   0002D0   07           DB 7
   \   0002D1   03           DB 3
   \   0002D2   00           DB 0
   \   0002D3   00           DB 0
   \   0002D4   00           DB 0
   \   0002D5   00           DB 0
   \   0002D6   00           DB 0
   \   0002D7   00           DB 0
   \   0002D8   00           DB 0
   \   0002D9   00           DB 0
   \   0002DA   00           DB 0
   \   0002DB   00           DB 0
   \   0002DC   00           DB 0
   \   0002DD   00           DB 0
   \   0002DE   00           DB 0
   \   0002DF   00           DB 0
   \   0002E0   00           DB 0
   \   0002E1   00           DB 0
   \   0002E2   00           DB 0
   \   0002E3   00           DB 0
   \   0002E4   00           DB 0
   \   0002E5   00           DB 0
   \   0002E6   00           DB 0
   \   0002E7   00           DB 0
   \   0002E8   00           DB 0
   \   0002E9   00           DB 0
   \   0002EA   00           DB 0
   \   0002EB   00           DB 0
   \   0002EC   00           DB 0
   \   0002ED   00           DB 0
   \   0002EE   00           DB 0
   \   0002EF   00           DB 0
   \   0002F0   00           DB 0
   \   0002F1   00           DB 0
   \   0002F2   00           DB 0
   \   0002F3   00           DB 0
   \   0002F4   00           DB 0
   \   0002F5   00           DB 0
   \   0002F6   00           DB 0
   \   0002F7   00           DB 0
   \   0002F8   00           DB 0
   \   0002F9   00           DB 0
   \   0002FA   00           DB 0
   \   0002FB   00           DB 0
   \   0002FC   00           DB 0
   \   0002FD   00           DB 0
   \   0002FE   00           DB 0
   \   0002FF   00           DB 0
   \   000300   00           DB 0
   \   000301   00           DB 0
   \   000302   00           DB 0
   \   000303   00           DB 0
   \   000304   00           DB 0
   \   000305   00           DB 0
   \   000306   00           DB 0
   \   000307   00           DB 0
   \   000308   00           DB 0
   \   000309   00           DB 0
   \   00030A   00           DB 0
   \   00030B   00           DB 0
   \   00030C   00           DB 0
   \   00030D   00           DB 0
   \   00030E   00           DB 0
   \   00030F   00           DB 0
   \   000310   00           DB 0
   \   000311   00           DB 0
   \   000312   00           DB 0
   \   000313   00           DB 0
   \   000314   00           DB 0
   \   000315   00           DB 0
   \   000316   00           DB 0
   \   000317   00           DB 0
   \   000318   00           DB 0
   \   000319   00           DB 0
   \   00031A   00           DB 0
   \   00031B   00           DB 0
   \   00031C   00           DB 0
   \   00031D   00           DB 0
   \   00031E   00           DB 0
   \   00031F   00           DB 0
   \   000320   00           DB 0
   \   000321   00           DB 0
   \   000322   00           DB 0
   \   000323   00           DB 0
   \   000324   00           DB 0
   \   000325   00           DB 0
   \   000326   00           DB 0
   \   000327   00           DB 0
   \   000328   00           DB 0
   \   000329   00           DB 0
   \   00032A   00           DB 0
   \   00032B   00           DB 0
   \   00032C   00           DB 0
   \   00032D   00           DB 0
   \   00032E   00           DB 0
   \   00032F   00           DB 0
   \   000330   00           DB 0
   \   000331   00           DB 0
   \   000332   00           DB 0
   \   000333   00           DB 0
   \   000334   00           DB 0
   \   000335   01           DB 1
   \   000336   03           DB 3
   \   000337   03           DB 3
   \   000338   03           DB 3
   \   000339   03           DB 3
   \   00033A   03           DB 3
   \   00033B   03           DB 3
   \   00033C   03           DB 3
   \   00033D   03           DB 3
   \   00033E   03           DB 3
   \   00033F   03           DB 3
   \   000340   03           DB 3
   \   000341   03           DB 3
   \   000342   03           DB 3
   \   000343   03           DB 3
   \   000344   03           DB 3
   \   000345   03           DB 3
   \   000346   03           DB 3
   \   000347   03           DB 3
   \   000348   03           DB 3
   \   000349   03           DB 3
   \   00034A   01           DB 1
   \   00034B   00           DB 0
   \   00034C   00           DB 0
   \   00034D   00           DB 0
   \   00034E   00           DB 0
   \   00034F   00           DB 0
   \   000350   00           DB 0
   \   000351   00           DB 0
   \   000352   00           DB 0
   \   000353   00           DB 0
   \   000354   00           DB 0
   \   000355   00           DB 0
   \   000356   00           DB 0
   \   000357   00           DB 0
   \   000358   00           DB 0
   \   000359   00           DB 0
   \   00035A   00           DB 0
   \   00035B   00           DB 0
   \   00035C   00           DB 0
   \   00035D   00           DB 0
   \   00035E   00           DB 0
   \   00035F   00           DB 0
   \   000360   00           DB 0
   \   000361   00           DB 0
   \   000362   00           DB 0
   \   000363   00           DB 0
   \   000364   00           DB 0
   \   000365   00           DB 0
   \   000366   00           DB 0
   \   000367   00           DB 0
   \   000368   00           DB 0
   \   000369   00           DB 0
   \   00036A   00           DB 0
   \   00036B   00           DB 0
   \   00036C   00           DB 0
   \   00036D   00           DB 0
   \   00036E   00           DB 0
   \   00036F   00           DB 0
   \   000370   00           DB 0
   \   000371   00           DB 0
   \   000372   00           DB 0
   \   000373   00           DB 0
   \   000374   00           DB 0
   \   000375   00           DB 0
   \   000376   00           DB 0
   \   000377   00           DB 0
   \   000378   00           DB 0
   \   000379   00           DB 0
   \   00037A   00           DB 0
   \   00037B   00           DB 0
   \   00037C   00           DB 0
   \   00037D   00           DB 0
   \   00037E   00           DB 0
   \   00037F   00           DB 0
   \   000380   00           DB 0
   \   000381   00           DB 0
   \   000382   00           DB 0
   \   000383   00           DB 0
   \   000384   00           DB 0
   \   000385   00           DB 0
   \   000386   00           DB 0
   \   000387   00           DB 0
   \   000388   00           DB 0
   \   000389   00           DB 0
   \   00038A   00           DB 0
   \   00038B   00           DB 0
   \   00038C   00           DB 0
   \   00038D   00           DB 0
   \   00038E   00           DB 0
   \   00038F   00           DB 0
   \   000390   00           DB 0
   \   000391   00           DB 0
   \   000392   00           DB 0
   \   000393   00           DB 0
   \   000394   00           DB 0
   \   000395   00           DB 0
   \   000396   00           DB 0
   \   000397   00           DB 0
   \   000398   00           DB 0
   \   000399   00           DB 0
   \   00039A   00           DB 0
   \   00039B   00           DB 0
   \   00039C   00           DB 0
   \   00039D   00           DB 0
   \   00039E   00           DB 0
   \   00039F   00           DB 0
   \   0003A0   00           DB 0
   \   0003A1   00           DB 0
   \   0003A2   00           DB 0
   \   0003A3   00           DB 0
   \   0003A4   00           DB 0
   \   0003A5   00           DB 0
   \   0003A6   00           DB 0
   \   0003A7   00           DB 0
   \   0003A8   00           DB 0
   \   0003A9   00           DB 0
   \   0003AA   00           DB 0
   \   0003AB   00           DB 0
   \   0003AC   00           DB 0
   \   0003AD   00           DB 0
   \   0003AE   00           DB 0
   \   0003AF   00           DB 0
   \   0003B0   00           DB 0
   \   0003B1   00           DB 0
   \   0003B2   00           DB 0
   \   0003B3   00           DB 0
   \   0003B4   00           DB 0
   \   0003B5   00           DB 0
   \   0003B6   00           DB 0
   \   0003B7   00           DB 0
   \   0003B8   00           DB 0
   \   0003B9   00           DB 0
   \   0003BA   00           DB 0
   \   0003BB   00           DB 0
   \   0003BC   00           DB 0
   \   0003BD   00           DB 0
   \   0003BE   00           DB 0
   \   0003BF   00           DB 0
   \   0003C0   00           DB 0
   \   0003C1   00           DB 0
   \   0003C2   00           DB 0
   \   0003C3   00           DB 0
   \   0003C4   00           DB 0
   \   0003C5   00           DB 0
   \   0003C6   00           DB 0
   \   0003C7   00           DB 0
   \   0003C8   00           DB 0
   \   0003C9   00           DB 0
   \   0003CA   00           DB 0
   \   0003CB   00           DB 0
   \   0003CC   00           DB 0
   \   0003CD   00           DB 0
   \   0003CE   00           DB 0
   \   0003CF   00           DB 0
   \   0003D0   00           DB 0
   \   0003D1   00           DB 0
   \   0003D2   00           DB 0
   \   0003D3   00           DB 0
   \   0003D4   00           DB 0
   \   0003D5   00           DB 0
   \   0003D6   00           DB 0
   \   0003D7   00           DB 0
   \   0003D8   00           DB 0
   \   0003D9   00           DB 0
   \   0003DA   00           DB 0
   \   0003DB   00           DB 0
   \   0003DC   00           DB 0
   \   0003DD   00           DB 0
   \   0003DE   00           DB 0
   \   0003DF   00           DB 0
   \   0003E0   00           DB 0
   \   0003E1   00           DB 0
   \   0003E2   00           DB 0
   \   0003E3   00           DB 0
   \   0003E4   00           DB 0
   \   0003E5   00           DB 0
   \   0003E6   00           DB 0
   \   0003E7   00           DB 0
   \   0003E8   00           DB 0
   \   0003E9   00           DB 0
   \   0003EA   00           DB 0
   \   0003EB   00           DB 0
   \   0003EC   00           DB 0
   \   0003ED   00           DB 0
   \   0003EE   00           DB 0
   \   0003EF   00           DB 0
   \   0003F0   00           DB 0
   \   0003F1   00           DB 0
   \   0003F2   00           DB 0
   \   0003F3   00           DB 0
   \   0003F4   00           DB 0
   \   0003F5   00           DB 0
   \   0003F6   00           DB 0
   \   0003F7   00           DB 0
   \   0003F8   00           DB 0
   \   0003F9   00           DB 0
   \   0003FA   00           DB 0
   \   0003FB   00           DB 0
   \   0003FC   00           DB 0
   \   0003FD   00           DB 0
   \   0003FE   00           DB 0
   \   0003FF   00           DB 0

   \                                 In  segment XDATA_ID, align 1, keep-with-next
   \                     `?<Initializer for ledIdList>`:
   \   000000   01           DB 1
   \   000001   02           DB 2

   \                                 In  segment BANK_RELAYS, align 1
   \                     ??DelayMS?relay:
   \   000000   12....       LCALL   ?BDISPATCH
   \   000003   ......       DC24    DelayMS

   \                                 In  segment BANK_RELAYS, align 1
   \                     ??LCD_DLY_ms?relay:
   \   000000   12....       LCALL   ?BDISPATCH
   \   000003   ......       DC24    LCD_DLY_ms

   \                                 In  segment BANK_RELAYS, align 1
   \                     ??LCD_WrDat?relay:
   \   000000   12....       LCALL   ?BDISPATCH
   \   000003   ......       DC24    LCD_WrDat

   \                                 In  segment BANK_RELAYS, align 1
   \                     ??LCD_WrCmd?relay:
   \   000000   12....       LCALL   ?BDISPATCH
   \   000003   ......       DC24    LCD_WrCmd

   \                                 In  segment BANK_RELAYS, align 1
   \                     ??LCD_Set_Pos?relay:
   \   000000   12....       LCALL   ?BDISPATCH
   \   000003   ......       DC24    LCD_Set_Pos

   \                                 In  segment BANK_RELAYS, align 1
   \                     ??LCD_Fill?relay:
   \   000000   12....       LCALL   ?BDISPATCH
   \   000003   ......       DC24    LCD_Fill

   \                                 In  segment BANK_RELAYS, align 1
   \                     ??LCD_CLS?relay:
   \   000000   12....       LCALL   ?BDISPATCH
   \   000003   ......       DC24    LCD_CLS

   \                                 In  segment BANK_RELAYS, align 1
   \                     ??LCD_Init?relay:
   \   000000   12....       LCALL   ?BDISPATCH
   \   000003   ......       DC24    LCD_Init

   \                                 In  segment BANK_RELAYS, align 1
   \                     ??LCD_P6x8Str?relay:
   \   000000   12....       LCALL   ?BDISPATCH
   \   000003   ......       DC24    LCD_P6x8Str

   \                                 In  segment BANK_RELAYS, align 1
   \                     ??LCD_P8x16Str?relay:
   \   000000   12....       LCALL   ?BDISPATCH
   \   000003   ......       DC24    LCD_P8x16Str

   \                                 In  segment BANK_RELAYS, align 1
   \                     ??LCD_P16x16Ch?relay:
   \   000000   12....       LCALL   ?BDISPATCH
   \   000003   ......       DC24    LCD_P16x16Ch

   \                                 In  segment BANK_RELAYS, align 1
   \                     ??Draw_BMP?relay:
   \   000000   12....       LCALL   ?BDISPATCH
   \   000003   ......       DC24    Draw_BMP

   \                                 In  segment BANK_RELAYS, align 1
   \                     ??LCD_Clear?relay:
   \   000000   12....       LCALL   ?BDISPATCH
   \   000003   ......       DC24    LCD_Clear

   \                                 In  segment BANK_RELAYS, align 1
   \                     ??zb_SendDataConfirm?relay:
   \   000000   12....       LCALL   ?BDISPATCH
   \   000003   ......       DC24    zb_SendDataConfirm

   \                                 In  segment BANK_RELAYS, align 1
   \                     ??zb_ReceiveDataIndication?relay:
   \   000000   12....       LCALL   ?BDISPATCH
   \   000003   ......       DC24    zb_ReceiveDataIndication

   \                                 In  segment BANK_RELAYS, align 1
   \                     ??zb_AllowBindConfirm?relay:
   \   000000   12....       LCALL   ?BDISPATCH
   \   000003   ......       DC24    zb_AllowBindConfirm

   \                                 In  segment BANK_RELAYS, align 1
   \                     ??zb_HandleKeys?relay:
   \   000000   12....       LCALL   ?BDISPATCH
   \   000003   ......       DC24    zb_HandleKeys

   \                                 In  segment BANK_RELAYS, align 1
   \                     ??zb_BindConfirm?relay:
   \   000000   12....       LCALL   ?BDISPATCH
   \   000003   ......       DC24    zb_BindConfirm

   \                                 In  segment BANK_RELAYS, align 1
   \                     ??zb_StartConfirm?relay:
   \   000000   12....       LCALL   ?BDISPATCH
   \   000003   ......       DC24    zb_StartConfirm

   \                                 In  segment BANK_RELAYS, align 1
   \                     ??zb_HandleOsalEvent?relay:
   \   000000   12....       LCALL   ?BDISPATCH
   \   000003   ......       DC24    zb_HandleOsalEvent

   \                                 In  segment BANK_RELAYS, align 1
   \                     ??zb_FindDeviceConfirm?relay:
   \   000000   12....       LCALL   ?BDISPATCH
   \   000003   ......       DC24    zb_FindDeviceConfirm

   \                                 In  segment XDATA_ROM_C, align 1
   \                     `?<Constant "ID:">`:
   \   000000   49443A00     DB "ID:"

   \                                 In  segment XDATA_ROM_C, align 1
   \                     `?<Constant ":">`:
   \   000000   3A00         DB ":"

   \                                 In  segment XDATA_ROM_C, align 1
   \                     `?<Constant "%d">`:
   \   000000   256400       DB "%d"

   \                                 In  segment XDATA_ROM_C, align 1
   \                     `?<Constant "0">`:
   \   000000   3000         DB "0"

   \                                 In  segment XDATA_ROM_C, align 1
   \                     `?<Constant {48, 49, 50, 51, 52, 53, 54, 55, 56`:
   \   000000   30           DB 48
   \   000001   31           DB 49
   \   000002   32           DB 50
   \   000003   33           DB 51
   \   000004   34           DB 52
   \   000005   35           DB 53
   \   000006   36           DB 54
   \   000007   37           DB 55
   \   000008   38           DB 56
   \   000009   39           DB 57
   \   00000A   41           DB 65
   \   00000B   42           DB 66
   \   00000C   43           DB 67
   \   00000D   44           DB 68
   \   00000E   45           DB 69
   \   00000F   46           DB 70

   \                                 In  segment XDATA_ROM_C, align 1
   \                     `?<Constant "%c%c%c%c%c%c%c%c">`:
   \   000000   25632563     DB "%c%c%c%c%c%c%c%c"
   \            25632563
   \            25632563
   \            25632563
   \            00      

   Maximum stack usage in bytes:

     Function                 ISTACK PSTACK XSTACK
     --------                 ------ ------ ------
     DelayMS                      0      0      0
     Draw_BMP                     0      0     35
       -> LCD_WrDat               0      0     32
       -> LCD_Set_Pos             0      0     32
     LCD_CLS                      0      0     47
       -> LCD_WrCmd               0      0     18
       -> LCD_WrCmd               0      0     18
       -> LCD_WrCmd               0      0     18
       -> LCD_WrDat               0      0     18
     LCD_Clear                    0      0     12
       -> memset                  0      0     24
     LCD_DLY_ms                   0      0      0
     LCD_Fill                     0      0      9
       -> LCD_WrCmd               0      0     18
       -> LCD_WrCmd               0      0     18
       -> LCD_WrCmd               0      0     18
       -> LCD_WrDat               0      0     18
     LCD_Init                     2      0     10
       -> LCD_DLY_ms              4      0      0
       -> LCD_WrCmd               4      0      0
       -> LCD_WrCmd               4      0      0
       -> LCD_WrCmd               4      0      0
       -> LCD_WrCmd               4      0      0
       -> LCD_WrCmd               4      0      0
       -> LCD_WrCmd               4      0      0
       -> LCD_WrCmd               4      0      0
       -> LCD_WrCmd               4      0      0
       -> LCD_WrCmd               4      0      0
       -> LCD_WrCmd               4      0      0
       -> LCD_WrCmd               4      0      0
       -> LCD_WrCmd               4      0      0
       -> LCD_WrCmd               4      0      0
       -> LCD_WrCmd               4      0      0
       -> LCD_WrCmd               4      0      0
       -> LCD_WrCmd               4      0      0
       -> LCD_WrCmd               4      0      0
       -> LCD_WrCmd               4      0      0
       -> LCD_WrCmd               4      0      0
       -> LCD_WrCmd               4      0      0
       -> LCD_WrCmd               4      0      0
       -> LCD_WrCmd               4      0      0
       -> LCD_WrCmd               4      0      0
       -> LCD_WrCmd               4      0      0
       -> LCD_WrCmd               4      0      0
       -> LCD_WrCmd               4      0      0
       -> LCD_WrCmd               4      0      0
       -> LCD_WrCmd               4      0      0
       -> LCD_Fill                4      0      0
       -> LCD_Set_Pos             4      0      0
     LCD_P16x16Ch                 0      0     51
       -> LCD_Set_Pos             0      0     26
       -> LCD_WrDat               0      0     26
       -> LCD_Set_Pos             0      0     26
       -> LCD_WrDat               0      0     26
     LCD_P6x8Str                  0      0     15
       -> LCD_Set_Pos             0      0     30
       -> LCD_WrDat               0      0     30
     LCD_P8x16Str                 0      0     34
       -> LCD_Set_Pos             0      0     34
       -> LCD_WrDat               0      0     34
       -> LCD_Set_Pos             0      0     34
       -> LCD_WrDat               0      0     34
     LCD_Set_Pos                  0      0     26
       -> LCD_WrCmd               0      0     18
       -> LCD_WrCmd               0      0     18
       -> LCD_WrCmd               0      0     18
     LCD_WrCmd                    0      0      9
     LCD_WrDat                    0      0     17
     zb_AllowBindConfirm          0      0      0
     zb_BindConfirm               0      0      0
     zb_FindDeviceConfirm         0      0      0
     zb_HandleKeys                0      0      0
     zb_HandleOsalEvent           2      0     54
       -> osal_start_timerEx      0      0     76
       -> zb_SendDataRequest      0      0     86
       -> osal_start_timerEx      0      0     76
       -> LCD_P16x16Ch            0      0     76
       -> IC_Test                 0      0     76
       -> LCD_CLS                 0      0     76
       -> sprintf                 0      0    108
       -> zb_SendDataRequest      0      0     86
       -> Get_ADCValue            0      0     76
       -> HalLedSet               0      0     76
       -> HalLedSet               0      0     76
       -> HalLedSet               0      0     76
       -> HalLedSet               0      0     76
     zb_ReceiveDataIndication     0      0     23
       -> HalLedSet               0      0     34
       -> HalLedSet               0      0     34
       -> LCD_P8x16Str            0      0     34
       -> LCD_P8x16Str            0      0     34
       -> memset                  0      0     38
       -> LCD_P16x16Ch            0      0     34
       -> LCD_P8x16Str            0      0     34
       -> sprintf                 0      0     38
       -> LCD_P8x16Str            0      0     34
       -> LCD_P8x16Str            0      0     34
       -> sprintf                 0      0     38
       -> LCD_P8x16Str            0      0     34
       -> LCD_P8x16Str            0      0     34
       -> sprintf                 0      0     38
       -> LCD_P8x16Str            0      0     34
       -> LCD_P8x16Str            0      0     34
       -> LCD_P16x16Ch            0      0     34
       -> LCD_P16x16Ch            0      0     34
       -> LCD_P8x16Str            0      0     34
       -> sprintf                 0      0     38
       -> LCD_P8x16Str            0      0     34
       -> LCD_P8x16Str            0      0     34
       -> sprintf                 0      0     38
       -> LCD_P8x16Str            0      0     34
       -> LCD_P8x16Str            0      0     34
       -> LCD_P16x16Ch            0      0     34
       -> SG90start               0      0     34
       -> LCD_P8x16Str            0      0     34
       -> LCD_P8x16Str            0      0     34
       -> memset                  0      0     38
       -> LCD_P16x16Ch            0      0     34
       -> Onboard_wait            0      0     34
       -> LCD_CLS                 0      0     34
       -> Draw_BMP                0      0     38
       -> Onboard_wait            0      0     34
       -> HalLedSet               0      0     34
       -> HalLedSet               0      0     34
     zb_SendDataConfirm           0      0      0
     zb_StartConfirm              0      0     15
       -> zb_SendDataRequest      0      0     30
       -> osal_start_timerEx      0      0     20
       -> osal_start_timerEx      0      0     20
       -> HalLedBlink             0      0     20
       -> IC_Init                 0      0     20
       -> LCD_Init                0      0     20
       -> LCD_CLS                 0      0     20


   Segment part sizes:

     Function/Label                                 Bytes
     --------------                                 -----
     _A_P0                                             1
     _A_P1                                             1
     P0SEL                                             1
     P1SEL                                             1
     P0DIR                                             1
     P1DIR                                             1
     F16x16                                          416
     F6x8                                            552
     F8X16                                          1520
     BMP                                             256
     BMP1                                            512
     BMP2                                           1024
     g_LcdBuff                                      1024
     DelayMS                                          24
     LCD_DLY_ms                                       37
     LCD_WrDat                                        29
     LCD_WrCmd                                        29
     LCD_Set_Pos                                      35
     ?Subroutine0                                      5
     LCD_Fill                                         39
     ?Subroutine5                                     15
     LCD_CLS                                          33
     LCD_Init                                        158
     ?Subroutine11                                     9
     ?Subroutine10                                     9
     ?Subroutine9                                      9
     LCD_P6x8Str                                     107
     ?Subroutine8                                      6
     ??Subroutine23_0                                  6
     LCD_P8x16Str                                    127
     ?Subroutine16                                    14
     ?Subroutine6                                     12
     ?Subroutine15                                    11
     ?Subroutine20                                     8
     LCD_P16x16Ch                                     52
     ?Subroutine4                                     24
     Draw_BMP                                         88
     ?Subroutine1                                      5
     LCD_Clear                                        29
     ?Subroutine2                                      3
     ??Subroutine22_0                                  5
     ledIdList                                         2
     buffer                                            8
     ledDeviceInputCommandList                         2
     ledDeviceOutputCommandList                        4
     zb_SimpleDesc                                    12
     zb_SendDataConfirm                                3
     zb_ReceiveDataIndication                        659
     ?Subroutine18                                    10
     ?Subroutine13                                    23
     ?Subroutine17                                     9
     ?Subroutine3                                      7
     ??Subroutine24_0                                 11
     ?Subroutine19                                    10
     zb_AllowBindConfirm                               3
     zb_HandleKeys                                     3
     zb_BindConfirm                                    3
     zb_StartConfirm                                  93
     ?Subroutine14                                     8
     ?Subroutine21                                    11
     zb_HandleOsalEvent                              482
     ?Subroutine12                                     6
     ?Subroutine7                                     17
     zb_FindDeviceConfirm                              3
     ?<Initializer for F16x16>                       416
     ?<Initializer for BMP>                          256
     ?<Initializer for BMP2>                        1024
     ?<Initializer for ledIdList>                      2
     ??DelayMS?relay                                   6
     ??LCD_DLY_ms?relay                                6
     ??LCD_WrDat?relay                                 6
     ??LCD_WrCmd?relay                                 6
     ??LCD_Set_Pos?relay                               6
     ??LCD_Fill?relay                                  6
     ??LCD_CLS?relay                                   6
     ??LCD_Init?relay                                  6
     ??LCD_P6x8Str?relay                               6
     ??LCD_P8x16Str?relay                              6
     ??LCD_P16x16Ch?relay                              6
     ??Draw_BMP?relay                                  6
     ??LCD_Clear?relay                                 6
     ??zb_SendDataConfirm?relay                        6
     ??zb_ReceiveDataIndication?relay                  6
     ??zb_AllowBindConfirm?relay                       6
     ??zb_HandleKeys?relay                             6
     ??zb_BindConfirm?relay                            6
     ??zb_StartConfirm?relay                           6
     ??zb_HandleOsalEvent?relay                        6
     ??zb_FindDeviceConfirm?relay                      6
     ?<Constant "ID:">                                 4
     ?<Constant ":">                                   2
     ?<Constant "%d">                                  3
     ?<Constant "0">                                   2
     ?<Constant {48, 49, 50, 51, 52, 53, 54, 55, 56   16
     ?<Constant "%c%c%c%c%c%c%c%c">                   17

 
 2 289 bytes in segment BANKED_CODE
   126 bytes in segment BANK_RELAYS
     6 bytes in segment SFR_AN
 1 698 bytes in segment XDATA_I
 1 698 bytes in segment XDATA_ID
 2 134 bytes in segment XDATA_ROM_C
 1 544 bytes in segment XDATA_Z
 
 4 113 bytes of CODE  memory
 2 134 bytes of CONST memory
     0 bytes of DATA  memory (+ 6 bytes shared)
 3 242 bytes of XDATA memory

Errors: none
Warnings: none
