///////////////////////////////////////////////////////////////////////////////
//                                                                            /
// IAR C/C++ Compiler V8.10.1.40194/W32 for 8051        03/Mar/2020  12:00:36 /
// Copyright 2004-2011 IAR Systems AB.                                        /
//                                                                            /
//    Core               =  plain                                             /
//    Code model         =  banked                                            /
//    Data model         =  large                                             /
//    Calling convention =  xdata reentrant                                   /
//    Constant location  =  data_rom                                          /
//    Dptr setup         =  1,16                                              /
//    Source file        =  C:\Texas Instruments\ZStack-CC2530-2.5.1a\Project /
//                          s\zstack\Samples\Diplomaproject\Source\ledDevice. /
//                          c                                                 /
//    Command line       =  -f "C:\Texas Instruments\ZStack-CC2530-2.5.1a\Pro /
//                          jects\zstack\Samples\Diplomaproject\CC2530DB\..\. /
//                          .\..\Tools\CC2530DB\f8wEndev.cfg" (-DCPU32MHZ     /
//                          -DROOT=__near_func -DMAC_CFG_TX_DATA_MAX=3        /
//                          -DMAC_CFG_TX_MAX=6 -DMAC_CFG_RX_MAX=3) -f         /
//                          "C:\Texas Instruments\ZStack-CC2530-2.5.1a\Projec /
//                          ts\zstack\Samples\Diplomaproject\CC2530DB\..\..\. /
//                          .\Tools\CC2530DB\f8wConfig.cfg" (-DZIGBEEPRO      /
//                          -DSECURE=0 -DZG_SECURE_DYNAMIC=0 -DREFLECTOR      /
//                          -DDEFAULT_CHANLIST=0x00000800                     /
//                          -DZDAPP_CONFIG_PAN_ID=0xFFFF                      /
//                          -DNWK_START_DELAY=100 -DEXTENDED_JOINING_RANDOM_M /
//                          ASK=0x007F -DBEACON_REQUEST_DELAY=100             /
//                          -DBEACON_REQ_DELAY_MASK=0x00FF                    /
//                          -DLINK_STATUS_JITTER_MASK=0x007F                  /
//                          -DROUTE_EXPIRY_TIME=30 -DAPSC_ACK_WAIT_DURATION_P /
//                          OLLED=3000 -DNWK_INDIRECT_MSG_TIMEOUT=7           /
//                          -DMAX_RREQ_ENTRIES=8 -DAPSC_MAX_FRAME_RETRIES=3   /
//                          -DNWK_MAX_DATA_RETRIES=2                          /
//                          -DMAX_POLL_FAILURE_RETRIES=2 -DMAX_BCAST=9        /
//                          -DAPS_MAX_GROUPS=16 -DMAX_RTG_ENTRIES=40          /
//                          -DNWK_MAX_BINDING_ENTRIES=4                       /
//                          -DMAX_BINDING_CLUSTER_IDS=4                       /
//                          "-DDEFAULT_KEY={0x01, 0x03, 0x05, 0x07, 0x09,     /
//                          0x0B, 0x0D, 0x0F, 0x00, 0x02, 0x04, 0x06, 0x08,   /
//                          0x0A, 0x0C, 0x0D}" -DMAC_MAX_FRAME_SIZE=116       /
//                          -DZDNWKMGR_MIN_TRANSMISSIONS=20 "-DCONST=const    /
//                          __code" -DGENERIC=__generic                       /
//                          -DRFD_RCVC_ALWAYS_ON=FALSE -DPOLL_RATE=1000       /
//                          -DQUEUED_POLL_RATE=100 -DRESPONSE_POLL_RATE=100)  /
//                          -DREJOIN_POLL_RATE=440 "C:\Texas                  /
//                          Instruments\ZStack-CC2530-2.5.1a\Projects\zstack\ /
//                          Samples\Diplomaproject\Source\ledDevice.c" -D     /
//                          NWK_AUTO_POLL -D ZTOOL_P1 -D                      /
//                          RFD_RCVC_ALWAYS_ON=TRUE -D xMT_TASK -D            /
//                          xMT_SYS_FUNC -D MT_ZDO_FUNC -D                    /
//                          xLCD_SUPPORTED=DEBUG -D xPOWER_SAVING -lC         /
//                          "C:\Texas Instruments\ZStack-CC2530-2.5.1a\Projec /
//                          ts\zstack\Samples\Diplomaproject\CC2530DB\LedDevi /
//                          ce3\List\" -lA "C:\Texas                          /
//                          Instruments\ZStack-CC2530-2.5.1a\Projects\zstack\ /
//                          Samples\Diplomaproject\CC2530DB\LedDevice3\List\" /
//                           --diag_suppress Pe001,Pa010 -o "C:\Texas         /
//                          Instruments\ZStack-CC2530-2.5.1a\Projects\zstack\ /
//                          Samples\Diplomaproject\CC2530DB\LedDevice3\Obj\"  /
//                          -e --no_code_motion --debug --core=plain          /
//                          --dptr=16,1 --data_model=large                    /
//                          --code_model=banked --calling_convention=xdata_re /
//                          entrant --place_constants=data_rom                /
//                          --nr_virtual_regs 16 -I "C:\Texas                 /
//                          Instruments\ZStack-CC2530-2.5.1a\Projects\zstack\ /
//                          Samples\Diplomaproject\CC2530DB\" -I "C:\Texas    /
//                          Instruments\ZStack-CC2530-2.5.1a\Projects\zstack\ /
//                          Samples\Diplomaproject\CC2530DB\..\Source\" -I    /
//                          "C:\Texas Instruments\ZStack-CC2530-2.5.1a\Projec /
//                          ts\zstack\Samples\Diplomaproject\CC2530DB\..\..\. /
//                          .\ZMain\TI2530DB\" -I "C:\Texas                   /
//                          Instruments\ZStack-CC2530-2.5.1a\Projects\zstack\ /
//                          Samples\Diplomaproject\CC2530DB\..\..\..\..\..\Co /
//                          mponents\hal\include\" -I "C:\Texas               /
//                          Instruments\ZStack-CC2530-2.5.1a\Projects\zstack\ /
//                          Samples\Diplomaproject\CC2530DB\..\..\..\..\..\Co /
//                          mponents\hal\target\CC2530EB\" -I "C:\Texas       /
//                          Instruments\ZStack-CC2530-2.5.1a\Projects\zstack\ /
//                          Samples\Diplomaproject\CC2530DB\..\..\..\..\..\Co /
//                          mponents\mac\include\" -I "C:\Texas               /
//                          Instruments\ZStack-CC2530-2.5.1a\Projects\zstack\ /
//                          Samples\Diplomaproject\CC2530DB\..\..\..\..\..\Co /
//                          mponents\mac\high_level\" -I "C:\Texas            /
//                          Instruments\ZStack-CC2530-2.5.1a\Projects\zstack\ /
//                          Samples\Diplomaproject\CC2530DB\..\..\..\..\..\Co /
//                          mponents\mac\low_level\srf04\" -I "C:\Texas       /
//                          Instruments\ZStack-CC2530-2.5.1a\Projects\zstack\ /
//                          Samples\Diplomaproject\CC2530DB\..\..\..\..\..\Co /
//                          mponents\mac\low_level\srf04\single_chip\" -I     /
//                          "C:\Texas Instruments\ZStack-CC2530-2.5.1a\Projec /
//                          ts\zstack\Samples\Diplomaproject\CC2530DB\..\..\. /
//                          .\..\..\Components\mt\" -I "C:\Texas              /
//                          Instruments\ZStack-CC2530-2.5.1a\Projects\zstack\ /
//                          Samples\Diplomaproject\CC2530DB\..\..\..\..\..\Co /
//                          mponents\osal\include\" -I "C:\Texas              /
//                          Instruments\ZStack-CC2530-2.5.1a\Projects\zstack\ /
//                          Samples\Diplomaproject\CC2530DB\..\..\..\..\..\Co /
//                          mponents\services\saddr\" -I "C:\Texas            /
//                          Instruments\ZStack-CC2530-2.5.1a\Projects\zstack\ /
//                          Samples\Diplomaproject\CC2530DB\..\..\..\..\..\Co /
//                          mponents\services\sdata\" -I "C:\Texas            /
//                          Instruments\ZStack-CC2530-2.5.1a\Projects\zstack\ /
//                          Samples\Diplomaproject\CC2530DB\..\..\..\..\..\Co /
//                          mponents\stack\af\" -I "C:\Texas                  /
//                          Instruments\ZStack-CC2530-2.5.1a\Projects\zstack\ /
//                          Samples\Diplomaproject\CC2530DB\..\..\..\..\..\Co /
//                          mponents\stack\nwk\" -I "C:\Texas                 /
//                          Instruments\ZStack-CC2530-2.5.1a\Projects\zstack\ /
//                          Samples\Diplomaproject\CC2530DB\..\..\..\..\..\Co /
//                          mponents\stack\sapi\" -I "C:\Texas                /
//                          Instruments\ZStack-CC2530-2.5.1a\Projects\zstack\ /
//                          Samples\Diplomaproject\CC2530DB\..\..\..\..\..\Co /
//                          mponents\stack\sec\" -I "C:\Texas                 /
//                          Instruments\ZStack-CC2530-2.5.1a\Projects\zstack\ /
//                          Samples\Diplomaproject\CC2530DB\..\..\..\..\..\Co /
//                          mponents\stack\sys\" -I "C:\Texas                 /
//                          Instruments\ZStack-CC2530-2.5.1a\Projects\zstack\ /
//                          Samples\Diplomaproject\CC2530DB\..\..\..\..\..\Co /
//                          mponents\stack\zdo\" -I "C:\Texas                 /
//                          Instruments\ZStack-CC2530-2.5.1a\Projects\zstack\ /
//                          Samples\Diplomaproject\CC2530DB\..\..\..\..\..\Co /
//                          mponents\zmac\" -I "C:\Texas                      /
//                          Instruments\ZStack-CC2530-2.5.1a\Projects\zstack\ /
//                          Samples\Diplomaproject\CC2530DB\..\..\..\..\..\Co /
//                          mponents\zmac\f8w\" -Ohz                          /
//    List file          =  C:\Texas Instruments\ZStack-CC2530-2.5.1a\Project /
//                          s\zstack\Samples\Diplomaproject\CC2530DB\LedDevic /
//                          e3\List\ledDevice.s51                             /
//                                                                            /
//                                                                            /
///////////////////////////////////////////////////////////////////////////////

        NAME ledDevice

        RTMODEL "__SystemLibrary", "CLib"
        RTMODEL "__calling_convention", "xdata_reentrant"
        RTMODEL "__code_model", "banked"
        RTMODEL "__core", "plain"
        RTMODEL "__data_model", "large"
        RTMODEL "__dptr_size", "16"
        RTMODEL "__extended_stack", "disabled"
        RTMODEL "__location_for_constants", "data"
        RTMODEL "__number_of_dptrs", "1"
        RTMODEL "__rt_version", "1"

        RSEG DOVERLAY:DATA:NOROOT(0)
        RSEG IOVERLAY:IDATA:NOROOT(0)
        RSEG ISTACK:IDATA:NOROOT(0)
        RSEG PSTACK:XDATA:NOROOT(0)
        RSEG XSTACK:XDATA:NOROOT(0)

        EXTERN ?ALLOC_XSTACK8
        EXTERN ?BANKED_ENTER_XDATA
        EXTERN ?BANKED_LEAVE_XDATA
        EXTERN ?BDISPATCH
        EXTERN ?BRET
        EXTERN ?DEALLOC_XSTACK8
        EXTERN ?MOVE_LONG8_XDATA_XDATA
        EXTERN ?PUSH_XSTACK_I_ONE
        EXTERN ?PUSH_XSTACK_I_TWO
        EXTERN ?S_SHL
        EXTERN ?V0
        EXTERN ?XSP
        EXTERN ?XSTACK_DISP0_8
        EXTERN __INIT_XDATA_I
        EXTERN __INIT_XDATA_Z

        PUBLIC ??DelayMS?relay
        FUNCTION ??DelayMS?relay,0203H
        PUBLIC ??Draw_BMP?relay
        FUNCTION ??Draw_BMP?relay,0203H
        PUBLIC ??LCD_CLS?relay
        FUNCTION ??LCD_CLS?relay,0203H
        PUBLIC ??LCD_Clear?relay
        FUNCTION ??LCD_Clear?relay,0203H
        PUBLIC ??LCD_DLY_ms?relay
        FUNCTION ??LCD_DLY_ms?relay,0203H
        PUBLIC ??LCD_Fill?relay
        FUNCTION ??LCD_Fill?relay,0203H
        PUBLIC ??LCD_Init?relay
        FUNCTION ??LCD_Init?relay,0203H
        PUBLIC ??LCD_P16x16Ch?relay
        FUNCTION ??LCD_P16x16Ch?relay,0203H
        PUBLIC ??LCD_P6x8Str?relay
        FUNCTION ??LCD_P6x8Str?relay,0203H
        PUBLIC ??LCD_P8x16Str?relay
        FUNCTION ??LCD_P8x16Str?relay,0203H
        PUBLIC ??LCD_Set_Pos?relay
        FUNCTION ??LCD_Set_Pos?relay,0203H
        PUBLIC ??LCD_WrCmd?relay
        FUNCTION ??LCD_WrCmd?relay,0203H
        PUBLIC ??LCD_WrDat?relay
        FUNCTION ??LCD_WrDat?relay,0203H
        PUBLIC ??zb_AllowBindConfirm?relay
        FUNCTION ??zb_AllowBindConfirm?relay,0203H
        PUBLIC ??zb_BindConfirm?relay
        FUNCTION ??zb_BindConfirm?relay,0203H
        PUBLIC ??zb_FindDeviceConfirm?relay
        FUNCTION ??zb_FindDeviceConfirm?relay,0203H
        PUBLIC ??zb_HandleKeys?relay
        FUNCTION ??zb_HandleKeys?relay,0203H
        PUBLIC ??zb_HandleOsalEvent?relay
        FUNCTION ??zb_HandleOsalEvent?relay,0203H
        PUBLIC ??zb_ReceiveDataIndication?relay
        FUNCTION ??zb_ReceiveDataIndication?relay,0203H
        PUBLIC ??zb_SendDataConfirm?relay
        FUNCTION ??zb_SendDataConfirm?relay,0203H
        PUBLIC ??zb_StartConfirm?relay
        FUNCTION ??zb_StartConfirm?relay,0203H
        PUBLIC BMP
        PUBLIC BMP1
        PUBLIC BMP2
        PUBLIC DelayMS
        FUNCTION DelayMS,0203H
        ARGFRAME XSTACK, 0, STACK
        PUBLIC Draw_BMP
        FUNCTION Draw_BMP,021203H
        ARGFRAME XSTACK, 19, STACK
        ARGFRAME IOVERLAY, 0, STATIC
        ARGFRAME DOVERLAY, 0, STATIC
        LOCFRAME XSTACK, 16, STACK
        PUBLIC F16x16
        PUBLIC F6x8
        PUBLIC F8X16
        PUBLIC LCD_CLS
        FUNCTION LCD_CLS,021203H
        ARGFRAME XSTACK, 34, STACK
        ARGFRAME IOVERLAY, 0, STATIC
        ARGFRAME DOVERLAY, 0, STATIC
        LOCFRAME XSTACK, 9, STACK
        PUBLIC LCD_Clear
        FUNCTION LCD_Clear,021203H
        ARGFRAME XSTACK, 0, STACK
        LOCFRAME XSTACK, 12, STACK
        PUBLIC LCD_DLY_ms
        FUNCTION LCD_DLY_ms,0203H
        ARGFRAME XSTACK, 0, STACK
        ARGFRAME IOVERLAY, 0, STATIC
        ARGFRAME DOVERLAY, 0, STATIC
        PUBLIC LCD_Fill
        FUNCTION LCD_Fill,021203H
        ARGFRAME XSTACK, 0, STACK
        ARGFRAME IOVERLAY, 0, STATIC
        ARGFRAME DOVERLAY, 0, STATIC
        LOCFRAME XSTACK, 9, STACK
        PUBLIC LCD_Init
        FUNCTION LCD_Init,021203H
        ARGFRAME XSTACK, 10, STACK
        ARGFRAME IOVERLAY, 0, STATIC
        ARGFRAME DOVERLAY, 0, STATIC
        LOCFRAME ISTACK, 2, STACK
        PUBLIC LCD_P16x16Ch
        FUNCTION LCD_P16x16Ch,021203H
        ARGFRAME XSTACK, 34, STACK
        ARGFRAME IOVERLAY, 0, STATIC
        ARGFRAME DOVERLAY, 0, STATIC
        LOCFRAME XSTACK, 13, STACK
        PUBLIC LCD_P6x8Str
        FUNCTION LCD_P6x8Str,021203H
        ARGFRAME XSTACK, 0, STACK
        LOCFRAME XSTACK, 15, STACK
        PUBLIC LCD_P8x16Str
        FUNCTION LCD_P8x16Str,021203H
        ARGFRAME XSTACK, 17, STACK
        ARGFRAME IOVERLAY, 0, STATIC
        ARGFRAME DOVERLAY, 0, STATIC
        LOCFRAME XSTACK, 17, STACK
        PUBLIC LCD_Set_Pos
        FUNCTION LCD_Set_Pos,021203H
        ARGFRAME XSTACK, 17, STACK
        ARGFRAME IOVERLAY, 0, STATIC
        ARGFRAME DOVERLAY, 0, STATIC
        LOCFRAME XSTACK, 9, STACK
        PUBLIC LCD_WrCmd
        FUNCTION LCD_WrCmd,0203H
        ARGFRAME XSTACK, 9, STACK
        ARGFRAME IOVERLAY, 0, STATIC
        ARGFRAME DOVERLAY, 0, STATIC
        PUBLIC LCD_WrDat
        FUNCTION LCD_WrDat,0203H
        ARGFRAME XSTACK, 17, STACK
        ARGFRAME IOVERLAY, 0, STATIC
        ARGFRAME DOVERLAY, 0, STATIC
        PUBWEAK P0DIR
        PUBWEAK P0SEL
        PUBWEAK P1DIR
        PUBWEAK P1SEL
        PUBWEAK _A_P0
        PUBWEAK _A_P1
        PUBLIC g_LcdBuff
        PUBLIC ledDeviceInputCommandList
        PUBLIC ledDeviceOutputCommandList
        PUBLIC ledIdList
        PUBLIC zb_AllowBindConfirm
        FUNCTION zb_AllowBindConfirm,0203H
        ARGFRAME XSTACK, 0, STACK
        PUBLIC zb_BindConfirm
        FUNCTION zb_BindConfirm,0203H
        ARGFRAME XSTACK, 0, STACK
        PUBLIC zb_FindDeviceConfirm
        FUNCTION zb_FindDeviceConfirm,0203H
        ARGFRAME XSTACK, 0, STACK
        PUBLIC zb_HandleKeys
        FUNCTION zb_HandleKeys,0203H
        ARGFRAME XSTACK, 0, STACK
        PUBLIC zb_HandleOsalEvent
        FUNCTION zb_HandleOsalEvent,021203H
        ARGFRAME XSTACK, 0, STACK
        LOCFRAME ISTACK, 2, STACK
        LOCFRAME XSTACK, 50, STACK
        PUBLIC zb_ReceiveDataIndication
        FUNCTION zb_ReceiveDataIndication,021203H
        ARGFRAME XSTACK, 4, STACK
        LOCFRAME XSTACK, 19, STACK
        PUBLIC zb_SendDataConfirm
        FUNCTION zb_SendDataConfirm,0203H
        ARGFRAME XSTACK, 0, STACK
        PUBLIC zb_SimpleDesc
        PUBLIC zb_StartConfirm
        FUNCTION zb_StartConfirm,021203H
        ARGFRAME XSTACK, 0, STACK
        LOCFRAME XSTACK, 15, STACK
        
        CFI Names cfiNames0
        CFI StackFrame CFA_SP SP IDATA
        CFI StackFrame CFA_PSP16 PSP16 XDATA
        CFI StackFrame CFA_XSP16 XSP16 XDATA
        CFI StaticOverlayFrame CFA_IOVERLAY IOVERLAY
        CFI StaticOverlayFrame CFA_DOVERLAY DOVERLAY
        CFI Resource `PSW.CY`:1, `B.BR0`:1, `B.BR1`:1, `B.BR2`:1, `B.BR3`:1
        CFI Resource `B.BR4`:1, `B.BR5`:1, `B.BR6`:1, `B.BR7`:1, `VB.BR8`:1
        CFI Resource `VB.BR9`:1, `VB.BR10`:1, `VB.BR11`:1, `VB.BR12`:1
        CFI Resource `VB.BR13`:1, `VB.BR14`:1, `VB.BR15`:1, VB:8, B:8, A:8
        CFI Resource PSW:8, DPL0:8, DPH0:8, R0:8, R1:8, R2:8, R3:8, R4:8, R5:8
        CFI Resource R6:8, R7:8, V0:8, V1:8, V2:8, V3:8, V4:8, V5:8, V6:8, V7:8
        CFI Resource V8:8, V9:8, V10:8, V11:8, V12:8, V13:8, V14:8, V15:8, SP:8
        CFI Resource PSPH:8, PSPL:8, PSP16:16, XSPH:8, XSPL:8, XSP16:16
        CFI VirtualResource ?RET:24
        CFI Resource ?BRET_EXT:8
        CFI VirtualResource ?RET_HIGH:8, ?RET_LOW:8
        CFI ResourceParts PSP16 PSPH, PSPL
        CFI ResourceParts XSP16 XSPH, XSPL
        CFI ResourceParts ?RET ?BRET_EXT, ?RET_HIGH, ?RET_LOW
        CFI EndNames cfiNames0
        
        CFI Common cfiCommon0 Using cfiNames0
        CFI CodeAlign 1
        CFI DataAlign -1
        CFI ReturnAddress ?RET CODE
        CFI CFA_DOVERLAY Used
        CFI CFA_IOVERLAY Used
        CFI CFA_SP SP+-3
        CFI CFA_PSP16 PSP16+0
        CFI CFA_XSP16 XSP16+0
        CFI `PSW.CY` SameValue
        CFI `B.BR0` SameValue
        CFI `B.BR1` SameValue
        CFI `B.BR2` SameValue
        CFI `B.BR3` SameValue
        CFI `B.BR4` SameValue
        CFI `B.BR5` SameValue
        CFI `B.BR6` SameValue
        CFI `B.BR7` SameValue
        CFI `VB.BR8` SameValue
        CFI `VB.BR9` SameValue
        CFI `VB.BR10` SameValue
        CFI `VB.BR11` SameValue
        CFI `VB.BR12` SameValue
        CFI `VB.BR13` SameValue
        CFI `VB.BR14` SameValue
        CFI `VB.BR15` SameValue
        CFI VB SameValue
        CFI B Undefined
        CFI A Undefined
        CFI PSW SameValue
        CFI DPL0 SameValue
        CFI DPH0 SameValue
        CFI R0 Undefined
        CFI R1 Undefined
        CFI R2 Undefined
        CFI R3 Undefined
        CFI R4 Undefined
        CFI R5 Undefined
        CFI R6 SameValue
        CFI R7 SameValue
        CFI V0 SameValue
        CFI V1 SameValue
        CFI V2 SameValue
        CFI V3 SameValue
        CFI V4 SameValue
        CFI V5 SameValue
        CFI V6 SameValue
        CFI V7 SameValue
        CFI V8 SameValue
        CFI V9 SameValue
        CFI V10 SameValue
        CFI V11 SameValue
        CFI V12 SameValue
        CFI V13 SameValue
        CFI V14 SameValue
        CFI V15 SameValue
        CFI PSPH Undefined
        CFI PSPL Undefined
        CFI XSPH Undefined
        CFI XSPL Undefined
        CFI ?RET Concat
        CFI ?BRET_EXT Frame(CFA_SP, 3)
        CFI ?RET_HIGH Frame(CFA_SP, 2)
        CFI ?RET_LOW Frame(CFA_SP, 1)
        CFI EndCommon cfiCommon0
        
        
        CFI Common cfiCommon1 Using cfiNames0
        CFI CodeAlign 1
        CFI DataAlign -1
        CFI ReturnAddress ?RET CODE
        CFI CFA_DOVERLAY Used
        CFI CFA_IOVERLAY Used
        CFI CFA_SP SP+-2
        CFI CFA_PSP16 PSP16+0
        CFI CFA_XSP16 XSP16+0
        CFI `PSW.CY` SameValue
        CFI `B.BR0` SameValue
        CFI `B.BR1` SameValue
        CFI `B.BR2` SameValue
        CFI `B.BR3` SameValue
        CFI `B.BR4` SameValue
        CFI `B.BR5` SameValue
        CFI `B.BR6` SameValue
        CFI `B.BR7` SameValue
        CFI `VB.BR8` SameValue
        CFI `VB.BR9` SameValue
        CFI `VB.BR10` SameValue
        CFI `VB.BR11` SameValue
        CFI `VB.BR12` SameValue
        CFI `VB.BR13` SameValue
        CFI `VB.BR14` SameValue
        CFI `VB.BR15` SameValue
        CFI VB SameValue
        CFI B SameValue
        CFI A SameValue
        CFI PSW SameValue
        CFI DPL0 SameValue
        CFI DPH0 SameValue
        CFI R0 SameValue
        CFI R1 SameValue
        CFI R2 SameValue
        CFI R3 SameValue
        CFI R4 SameValue
        CFI R5 SameValue
        CFI R6 SameValue
        CFI R7 SameValue
        CFI V0 SameValue
        CFI V1 SameValue
        CFI V2 SameValue
        CFI V3 SameValue
        CFI V4 SameValue
        CFI V5 SameValue
        CFI V6 SameValue
        CFI V7 SameValue
        CFI V8 SameValue
        CFI V9 SameValue
        CFI V10 SameValue
        CFI V11 SameValue
        CFI V12 SameValue
        CFI V13 SameValue
        CFI V14 SameValue
        CFI V15 SameValue
        CFI PSPH Undefined
        CFI PSPL Undefined
        CFI XSPH Undefined
        CFI XSPL Undefined
        CFI ?RET Concat
        CFI ?BRET_EXT SameValue
        CFI ?RET_HIGH Frame(CFA_SP, 2)
        CFI ?RET_LOW Frame(CFA_SP, 1)
        CFI EndCommon cfiCommon1
        
memset              SYMBOL "memset"
HalLedSet           SYMBOL "HalLedSet"
sprintf             SYMBOL "sprintf"
SG90start           SYMBOL "SG90start"
Onboard_wait        SYMBOL "Onboard_wait"
zb_SendDataRequest  SYMBOL "zb_SendDataRequest"
osal_start_timerEx  SYMBOL "osal_start_timerEx"
HalLedBlink         SYMBOL "HalLedBlink"
IC_Init             SYMBOL "IC_Init"
IC_Test             SYMBOL "IC_Test"
??HalLedBlink?relay SYMBOL "?relay", HalLedBlink
??HalLedSet?relay   SYMBOL "?relay", HalLedSet
??IC_Init?relay     SYMBOL "?relay", IC_Init
??IC_Test?relay     SYMBOL "?relay", IC_Test
??Onboard_wait?relay SYMBOL "?relay", Onboard_wait
??SG90start?relay   SYMBOL "?relay", SG90start
??memset?relay      SYMBOL "?relay", memset
??osal_start_timerEx?relay SYMBOL "?relay", osal_start_timerEx
??sprintf?relay     SYMBOL "?relay", sprintf
??zb_SendDataRequest?relay SYMBOL "?relay", zb_SendDataRequest
DelayMS             SYMBOL "DelayMS"
??DelayMS?relay     SYMBOL "?relay", DelayMS
Draw_BMP            SYMBOL "Draw_BMP"
??Draw_BMP?relay    SYMBOL "?relay", Draw_BMP
LCD_CLS             SYMBOL "LCD_CLS"
??LCD_CLS?relay     SYMBOL "?relay", LCD_CLS
LCD_Clear           SYMBOL "LCD_Clear"
??LCD_Clear?relay   SYMBOL "?relay", LCD_Clear
LCD_DLY_ms          SYMBOL "LCD_DLY_ms"
??LCD_DLY_ms?relay  SYMBOL "?relay", LCD_DLY_ms
LCD_Fill            SYMBOL "LCD_Fill"
??LCD_Fill?relay    SYMBOL "?relay", LCD_Fill
LCD_Init            SYMBOL "LCD_Init"
??LCD_Init?relay    SYMBOL "?relay", LCD_Init
LCD_P16x16Ch        SYMBOL "LCD_P16x16Ch"
??LCD_P16x16Ch?relay SYMBOL "?relay", LCD_P16x16Ch
LCD_P6x8Str         SYMBOL "LCD_P6x8Str"
??LCD_P6x8Str?relay SYMBOL "?relay", LCD_P6x8Str
LCD_P8x16Str        SYMBOL "LCD_P8x16Str"
??LCD_P8x16Str?relay SYMBOL "?relay", LCD_P8x16Str
LCD_Set_Pos         SYMBOL "LCD_Set_Pos"
??LCD_Set_Pos?relay SYMBOL "?relay", LCD_Set_Pos
LCD_WrCmd           SYMBOL "LCD_WrCmd"
??LCD_WrCmd?relay   SYMBOL "?relay", LCD_WrCmd
LCD_WrDat           SYMBOL "LCD_WrDat"
??LCD_WrDat?relay   SYMBOL "?relay", LCD_WrDat
zb_AllowBindConfirm SYMBOL "zb_AllowBindConfirm"
??zb_AllowBindConfirm?relay SYMBOL "?relay", zb_AllowBindConfirm
zb_BindConfirm      SYMBOL "zb_BindConfirm"
??zb_BindConfirm?relay SYMBOL "?relay", zb_BindConfirm
zb_FindDeviceConfirm SYMBOL "zb_FindDeviceConfirm"
??zb_FindDeviceConfirm?relay SYMBOL "?relay", zb_FindDeviceConfirm
zb_HandleKeys       SYMBOL "zb_HandleKeys"
??zb_HandleKeys?relay SYMBOL "?relay", zb_HandleKeys
zb_HandleOsalEvent  SYMBOL "zb_HandleOsalEvent"
??zb_HandleOsalEvent?relay SYMBOL "?relay", zb_HandleOsalEvent
zb_ReceiveDataIndication SYMBOL "zb_ReceiveDataIndication"
??zb_ReceiveDataIndication?relay SYMBOL "?relay", zb_ReceiveDataIndication
zb_SendDataConfirm  SYMBOL "zb_SendDataConfirm"
??zb_SendDataConfirm?relay SYMBOL "?relay", zb_SendDataConfirm
zb_StartConfirm     SYMBOL "zb_StartConfirm"
??zb_StartConfirm?relay SYMBOL "?relay", zb_StartConfirm

        EXTERN memset
        FUNCTION memset,010202H
        ARGFRAME ISTACK, 0, STACK
        ARGFRAME PSTACK, 0, STACK
        ARGFRAME XSTACK, 19, STACK
        ARGFRAME IOVERLAY, 0, STATIC
        ARGFRAME DOVERLAY, 0, STATIC
        EXTERN HalLedSet
        FUNCTION HalLedSet,0202H
        ARGFRAME ISTACK, 0, STACK
        ARGFRAME PSTACK, 0, STACK
        ARGFRAME XSTACK, 17, STACK
        ARGFRAME IOVERLAY, 0, STATIC
        ARGFRAME DOVERLAY, 0, STATIC
        EXTERN sprintf
        FUNCTION sprintf,0202H
        ARGFRAME ISTACK, 0, STACK
        ARGFRAME PSTACK, 0, STACK
        ARGFRAME XSTACK, 50, STACK
        ARGFRAME IOVERLAY, 0, STATIC
        ARGFRAME DOVERLAY, 0, STATIC
        EXTERN SG90start
        FUNCTION SG90start,0202H
        ARGFRAME ISTACK, 0, STACK
        ARGFRAME PSTACK, 0, STACK
        ARGFRAME XSTACK, 17, STACK
        ARGFRAME IOVERLAY, 0, STATIC
        ARGFRAME DOVERLAY, 0, STATIC
        EXTERN Onboard_wait
        FUNCTION Onboard_wait,0202H
        ARGFRAME ISTACK, 0, STACK
        ARGFRAME PSTACK, 0, STACK
        ARGFRAME XSTACK, 17, STACK
        ARGFRAME IOVERLAY, 0, STATIC
        ARGFRAME DOVERLAY, 0, STATIC
        EXTERN zb_SendDataRequest
        FUNCTION zb_SendDataRequest,0202H
        ARGFRAME ISTACK, 0, STACK
        ARGFRAME PSTACK, 0, STACK
        ARGFRAME XSTACK, 39, STACK
        ARGFRAME IOVERLAY, 0, STATIC
        ARGFRAME DOVERLAY, 0, STATIC
        EXTERN osal_start_timerEx
        FUNCTION osal_start_timerEx,0202H
        ARGFRAME ISTACK, 0, STACK
        ARGFRAME PSTACK, 0, STACK
        ARGFRAME XSTACK, 34, STACK
        ARGFRAME IOVERLAY, 0, STATIC
        ARGFRAME DOVERLAY, 0, STATIC
        EXTERN HalLedBlink
        FUNCTION HalLedBlink,0202H
        ARGFRAME ISTACK, 0, STACK
        ARGFRAME PSTACK, 0, STACK
        ARGFRAME XSTACK, 10, STACK
        ARGFRAME IOVERLAY, 0, STATIC
        ARGFRAME DOVERLAY, 0, STATIC
        EXTERN IC_Init
        FUNCTION IC_Init,0202H
        ARGFRAME ISTACK, 0, STACK
        ARGFRAME PSTACK, 0, STACK
        ARGFRAME XSTACK, 10, STACK
        ARGFRAME IOVERLAY, 0, STATIC
        ARGFRAME DOVERLAY, 0, STATIC
        EXTERN IC_Test
        FUNCTION IC_Test,0202H
        ARGFRAME ISTACK, 0, STACK
        ARGFRAME PSTACK, 0, STACK
        ARGFRAME XSTACK, 34, STACK
        ARGFRAME IOVERLAY, 0, STATIC
        ARGFRAME DOVERLAY, 0, STATIC
        EXTERN ??HalLedBlink?relay
        FUNCTION ??HalLedBlink?relay,00H
        EXTERN ??HalLedSet?relay
        FUNCTION ??HalLedSet?relay,00H
        EXTERN ??IC_Init?relay
        FUNCTION ??IC_Init?relay,00H
        EXTERN ??IC_Test?relay
        FUNCTION ??IC_Test?relay,00H
        EXTERN ??Onboard_wait?relay
        FUNCTION ??Onboard_wait?relay,00H
        EXTERN ??SG90start?relay
        FUNCTION ??SG90start?relay,00H
        EXTERN ??memset?relay
        FUNCTION ??memset?relay,00H
        EXTERN ??osal_start_timerEx?relay
        FUNCTION ??osal_start_timerEx?relay,00H
        EXTERN ??sprintf?relay
        FUNCTION ??sprintf?relay,00H
        EXTERN ??zb_SendDataRequest?relay
        FUNCTION ??zb_SendDataRequest?relay,00H
        EXTERN qq
        EXTERN sapi_TaskID

// C:\Texas Instruments\ZStack-CC2530-2.5.1a\Projects\zstack\Samples\Diplomaproject\Source\ledDevice.c
//    1 #include "smartHome.h"
//    2 #include "sapi.h"
//    3 #include "hal_led.h"

        ASEGN SFR_AN:DATA:NOROOT,080H
// union <unnamed> volatile __sfr _A_P0
_A_P0:
        DATA8
        DS 1

        ASEGN SFR_AN:DATA:NOROOT,090H
// union <unnamed> volatile __sfr _A_P1
_A_P1:
        DATA8
        DS 1

        ASEGN SFR_AN:DATA:NOROOT,0f3H
// unsigned char volatile __sfr P0SEL
P0SEL:
        DATA8
        DS 1

        ASEGN SFR_AN:DATA:NOROOT,0f4H
// unsigned char volatile __sfr P1SEL
P1SEL:
        DATA8
        DS 1

        ASEGN SFR_AN:DATA:NOROOT,0fdH
// unsigned char volatile __sfr P0DIR
P0DIR:
        DATA8
        DS 1

        ASEGN SFR_AN:DATA:NOROOT,0feH
// unsigned char volatile __sfr P1DIR
P1DIR:
        DATA8
        DS 1
//    4 #include "dht11.h"
//    5 #include "adc.h"
//    6 #include "IC.h"
//    7 #include "LCD.h"

        RSEG XDATA_I:XDATA:NOROOT(0)
// unsigned char F16x16[416]
F16x16:
        DATA8
        DS 416
        REQUIRE `?<Initializer for F16x16>`
        REQUIRE __INIT_XDATA_I

        RSEG XDATA_ROM_C:CONST:REORDER:NOROOT(0)
        DATA8
// unsigned char const __xdata_rom F6x8[92][6]
F6x8:
        DB 0
        DB 0
        DB 0
        DB 0
        DB 0
        DB 0
        DB 0
        DB 0
        DB 0
        DB 47
        DB 0
        DB 0
        DB 0
        DB 0
        DB 7
        DB 0
        DB 7
        DB 0
        DB 0
        DB 20
        DB 127
        DB 20
        DB 127
        DB 20
        DB 0
        DB 36
        DB 42
        DB 127
        DB 42
        DB 18
        DB 0
        DB 98
        DB 100
        DB 8
        DB 19
        DB 35
        DB 0
        DB 54
        DB 73
        DB 85
        DB 34
        DB 80
        DB 0
        DB 0
        DB 5
        DB 3
        DB 0
        DB 0
        DB 0
        DB 0
        DB 28
        DB 34
        DB 65
        DB 0
        DB 0
        DB 0
        DB 65
        DB 34
        DB 28
        DB 0
        DB 0
        DB 20
        DB 8
        DB 62
        DB 8
        DB 20
        DB 0
        DB 8
        DB 8
        DB 62
        DB 8
        DB 8
        DB 0
        DB 0
        DB 0
        DB 160
        DB 96
        DB 0
        DB 0
        DB 8
        DB 8
        DB 8
        DB 8
        DB 8
        DB 0
        DB 0
        DB 96
        DB 96
        DB 0
        DB 0
        DB 0
        DB 32
        DB 16
        DB 8
        DB 4
        DB 2
        DB 0
        DB 62
        DB 81
        DB 73
        DB 69
        DB 62
        DB 0
        DB 0
        DB 66
        DB 127
        DB 64
        DB 0
        DB 0
        DB 66
        DB 97
        DB 81
        DB 73
        DB 70
        DB 0
        DB 33
        DB 65
        DB 69
        DB 75
        DB 49
        DB 0
        DB 24
        DB 20
        DB 18
        DB 127
        DB 16
        DB 0
        DB 39
        DB 69
        DB 69
        DB 69
        DB 57
        DB 0
        DB 60
        DB 74
        DB 73
        DB 73
        DB 48
        DB 0
        DB 1
        DB 113
        DB 9
        DB 5
        DB 3
        DB 0
        DB 54
        DB 73
        DB 73
        DB 73
        DB 54
        DB 0
        DB 6
        DB 73
        DB 73
        DB 41
        DB 30
        DB 0
        DB 0
        DB 54
        DB 54
        DB 0
        DB 0
        DB 0
        DB 0
        DB 86
        DB 54
        DB 0
        DB 0
        DB 0
        DB 8
        DB 20
        DB 34
        DB 65
        DB 0
        DB 0
        DB 20
        DB 20
        DB 20
        DB 20
        DB 20
        DB 0
        DB 0
        DB 65
        DB 34
        DB 20
        DB 8
        DB 0
        DB 2
        DB 1
        DB 81
        DB 9
        DB 6
        DB 0
        DB 50
        DB 73
        DB 89
        DB 81
        DB 62
        DB 0
        DB 124
        DB 18
        DB 17
        DB 18
        DB 124
        DB 0
        DB 127
        DB 73
        DB 73
        DB 73
        DB 54
        DB 0
        DB 62
        DB 65
        DB 65
        DB 65
        DB 34
        DB 0
        DB 127
        DB 65
        DB 65
        DB 34
        DB 28
        DB 0
        DB 127
        DB 73
        DB 73
        DB 73
        DB 65
        DB 0
        DB 127
        DB 9
        DB 9
        DB 9
        DB 1
        DB 0
        DB 62
        DB 65
        DB 73
        DB 73
        DB 122
        DB 0
        DB 127
        DB 8
        DB 8
        DB 8
        DB 127
        DB 0
        DB 0
        DB 65
        DB 127
        DB 65
        DB 0
        DB 0
        DB 32
        DB 64
        DB 65
        DB 63
        DB 1
        DB 0
        DB 127
        DB 8
        DB 20
        DB 34
        DB 65
        DB 0
        DB 127
        DB 64
        DB 64
        DB 64
        DB 64
        DB 0
        DB 127
        DB 2
        DB 12
        DB 2
        DB 127
        DB 0
        DB 127
        DB 4
        DB 8
        DB 16
        DB 127
        DB 0
        DB 62
        DB 65
        DB 65
        DB 65
        DB 62
        DB 0
        DB 127
        DB 9
        DB 9
        DB 9
        DB 6
        DB 0
        DB 62
        DB 65
        DB 81
        DB 33
        DB 94
        DB 0
        DB 127
        DB 9
        DB 25
        DB 41
        DB 70
        DB 0
        DB 70
        DB 73
        DB 73
        DB 73
        DB 49
        DB 0
        DB 1
        DB 1
        DB 127
        DB 1
        DB 1
        DB 0
        DB 63
        DB 64
        DB 64
        DB 64
        DB 63
        DB 0
        DB 31
        DB 32
        DB 64
        DB 32
        DB 31
        DB 0
        DB 63
        DB 64
        DB 56
        DB 64
        DB 63
        DB 0
        DB 99
        DB 20
        DB 8
        DB 20
        DB 99
        DB 0
        DB 7
        DB 8
        DB 112
        DB 8
        DB 7
        DB 0
        DB 97
        DB 81
        DB 73
        DB 69
        DB 67
        DB 0
        DB 0
        DB 127
        DB 65
        DB 65
        DB 0
        DB 0
        DB 85
        DB 42
        DB 85
        DB 42
        DB 85
        DB 0
        DB 0
        DB 65
        DB 65
        DB 127
        DB 0
        DB 0
        DB 4
        DB 2
        DB 1
        DB 2
        DB 4
        DB 0
        DB 64
        DB 64
        DB 64
        DB 64
        DB 64
        DB 0
        DB 0
        DB 1
        DB 2
        DB 4
        DB 0
        DB 0
        DB 32
        DB 84
        DB 84
        DB 84
        DB 120
        DB 0
        DB 127
        DB 72
        DB 68
        DB 68
        DB 56
        DB 0
        DB 56
        DB 68
        DB 68
        DB 68
        DB 32
        DB 0
        DB 56
        DB 68
        DB 68
        DB 72
        DB 127
        DB 0
        DB 56
        DB 84
        DB 84
        DB 84
        DB 24
        DB 0
        DB 8
        DB 126
        DB 9
        DB 1
        DB 2
        DB 0
        DB 24
        DB 164
        DB 164
        DB 164
        DB 124
        DB 0
        DB 127
        DB 8
        DB 4
        DB 4
        DB 120
        DB 0
        DB 0
        DB 68
        DB 125
        DB 64
        DB 0
        DB 0
        DB 64
        DB 128
        DB 132
        DB 125
        DB 0
        DB 0
        DB 127
        DB 16
        DB 40
        DB 68
        DB 0
        DB 0
        DB 0
        DB 65
        DB 127
        DB 64
        DB 0
        DB 0
        DB 124
        DB 4
        DB 24
        DB 4
        DB 120
        DB 0
        DB 124
        DB 8
        DB 4
        DB 4
        DB 120
        DB 0
        DB 56
        DB 68
        DB 68
        DB 68
        DB 56
        DB 0
        DB 252
        DB 36
        DB 36
        DB 36
        DB 24
        DB 0
        DB 24
        DB 36
        DB 36
        DB 24
        DB 252
        DB 0
        DB 124
        DB 8
        DB 4
        DB 4
        DB 8
        DB 0
        DB 72
        DB 84
        DB 84
        DB 84
        DB 32
        DB 0
        DB 4
        DB 63
        DB 68
        DB 64
        DB 32
        DB 0
        DB 60
        DB 64
        DB 64
        DB 32
        DB 124
        DB 0
        DB 28
        DB 32
        DB 64
        DB 32
        DB 28
        DB 0
        DB 60
        DB 64
        DB 48
        DB 64
        DB 60
        DB 0
        DB 68
        DB 40
        DB 16
        DB 40
        DB 68
        DB 0
        DB 28
        DB 160
        DB 160
        DB 160
        DB 124
        DB 0
        DB 68
        DB 100
        DB 84
        DB 76
        DB 68
        DB 20
        DB 20
        DB 20
        DB 20
        DB 20
        DB 20

        RSEG XDATA_ROM_C:CONST:REORDER:NOROOT(0)
        DATA8
// unsigned char const __xdata_rom F8X16[1520]
F8X16:
        DB 0
        DB 0
        DB 0
        DB 0
        DB 0
        DB 0
        DB 0
        DB 0
        DB 0
        DB 0
        DB 0
        DB 0
        DB 0
        DB 0
        DB 0
        DB 0
        DB 0
        DB 0
        DB 0
        DB 248
        DB 0
        DB 0
        DB 0
        DB 0
        DB 0
        DB 0
        DB 0
        DB 51
        DB 48
        DB 0
        DB 0
        DB 0
        DB 0
        DB 16
        DB 12
        DB 6
        DB 16
        DB 12
        DB 6
        DB 0
        DB 0
        DB 0
        DB 0
        DB 0
        DB 0
        DB 0
        DB 0
        DB 0
        DB 64
        DB 192
        DB 120
        DB 64
        DB 192
        DB 120
        DB 64
        DB 0
        DB 4
        DB 63
        DB 4
        DB 4
        DB 63
        DB 4
        DB 4
        DB 0
        DB 0
        DB 112
        DB 136
        DB 252
        DB 8
        DB 48
        DB 0
        DB 0
        DB 0
        DB 24
        DB 32
        DB 255
        DB 33
        DB 30
        DB 0
        DB 0
        DB 240
        DB 8
        DB 240
        DB 0
        DB 224
        DB 24
        DB 0
        DB 0
        DB 0
        DB 33
        DB 28
        DB 3
        DB 30
        DB 33
        DB 30
        DB 0
        DB 0
        DB 240
        DB 8
        DB 136
        DB 112
        DB 0
        DB 0
        DB 0
        DB 30
        DB 33
        DB 35
        DB 36
        DB 25
        DB 39
        DB 33
        DB 16
        DB 16
        DB 22
        DB 14
        DB 0
        DB 0
        DB 0
        DB 0
        DB 0
        DB 0
        DB 0
        DB 0
        DB 0
        DB 0
        DB 0
        DB 0
        DB 0
        DB 0
        DB 0
        DB 0
        DB 224
        DB 24
        DB 4
        DB 2
        DB 0
        DB 0
        DB 0
        DB 0
        DB 7
        DB 24
        DB 32
        DB 64
        DB 0
        DB 0
        DB 2
        DB 4
        DB 24
        DB 224
        DB 0
        DB 0
        DB 0
        DB 0
        DB 64
        DB 32
        DB 24
        DB 7
        DB 0
        DB 0
        DB 0
        DB 64
        DB 64
        DB 128
        DB 240
        DB 128
        DB 64
        DB 64
        DB 0
        DB 2
        DB 2
        DB 1
        DB 15
        DB 1
        DB 2
        DB 2
        DB 0
        DB 0
        DB 0
        DB 0
        DB 240
        DB 0
        DB 0
        DB 0
        DB 0
        DB 1
        DB 1
        DB 1
        DB 31
        DB 1
        DB 1
        DB 1
        DB 0
        DB 0
        DB 0
        DB 0
        DB 0
        DB 0
        DB 0
        DB 0
        DB 0
        DB 128
        DB 176
        DB 112
        DB 0
        DB 0
        DB 0
        DB 0
        DB 0
        DB 0
        DB 0
        DB 0
        DB 0
        DB 0
        DB 0
        DB 0
        DB 0
        DB 0
        DB 1
        DB 1
        DB 1
        DB 1
        DB 1
        DB 1
        DB 1
        DB 0
        DB 0
        DB 0
        DB 0
        DB 0
        DB 0
        DB 0
        DB 0
        DB 0
        DB 48
        DB 48
        DB 0
        DB 0
        DB 0
        DB 0
        DB 0
        DB 0
        DB 0
        DB 0
        DB 0
        DB 128
        DB 96
        DB 24
        DB 4
        DB 0
        DB 96
        DB 24
        DB 6
        DB 1
        DB 0
        DB 0
        DB 0
        DB 0
        DB 224
        DB 16
        DB 8
        DB 8
        DB 16
        DB 224
        DB 0
        DB 0
        DB 15
        DB 16
        DB 32
        DB 32
        DB 16
        DB 15
        DB 0
        DB 0
        DB 16
        DB 16
        DB 248
        DB 0
        DB 0
        DB 0
        DB 0
        DB 0
        DB 32
        DB 32
        DB 63
        DB 32
        DB 32
        DB 0
        DB 0
        DB 0
        DB 112
        DB 8
        DB 8
        DB 8
        DB 136
        DB 112
        DB 0
        DB 0
        DB 48
        DB 40
        DB 36
        DB 34
        DB 33
        DB 48
        DB 0
        DB 0
        DB 48
        DB 8
        DB 136
        DB 136
        DB 72
        DB 48
        DB 0
        DB 0
        DB 24
        DB 32
        DB 32
        DB 32
        DB 17
        DB 14
        DB 0
        DB 0
        DB 0
        DB 192
        DB 32
        DB 16
        DB 248
        DB 0
        DB 0
        DB 0
        DB 7
        DB 4
        DB 36
        DB 36
        DB 63
        DB 36
        DB 0
        DB 0
        DB 248
        DB 8
        DB 136
        DB 136
        DB 8
        DB 8
        DB 0
        DB 0
        DB 25
        DB 33
        DB 32
        DB 32
        DB 17
        DB 14
        DB 0
        DB 0
        DB 224
        DB 16
        DB 136
        DB 136
        DB 24
        DB 0
        DB 0
        DB 0
        DB 15
        DB 17
        DB 32
        DB 32
        DB 17
        DB 14
        DB 0
        DB 0
        DB 56
        DB 8
        DB 8
        DB 200
        DB 56
        DB 8
        DB 0
        DB 0
        DB 0
        DB 0
        DB 63
        DB 0
        DB 0
        DB 0
        DB 0
        DB 0
        DB 112
        DB 136
        DB 8
        DB 8
        DB 136
        DB 112
        DB 0
        DB 0
        DB 28
        DB 34
        DB 33
        DB 33
        DB 34
        DB 28
        DB 0
        DB 0
        DB 224
        DB 16
        DB 8
        DB 8
        DB 16
        DB 224
        DB 0
        DB 0
        DB 0
        DB 49
        DB 34
        DB 34
        DB 17
        DB 15
        DB 0
        DB 0
        DB 0
        DB 0
        DB 192
        DB 192
        DB 0
        DB 0
        DB 0
        DB 0
        DB 0
        DB 0
        DB 48
        DB 48
        DB 0
        DB 0
        DB 0
        DB 0
        DB 0
        DB 0
        DB 128
        DB 0
        DB 0
        DB 0
        DB 0
        DB 0
        DB 0
        DB 128
        DB 96
        DB 0
        DB 0
        DB 0
        DB 0
        DB 0
        DB 0
        DB 128
        DB 64
        DB 32
        DB 16
        DB 8
        DB 0
        DB 0
        DB 1
        DB 2
        DB 4
        DB 8
        DB 16
        DB 32
        DB 0
        DB 64
        DB 64
        DB 64
        DB 64
        DB 64
        DB 64
        DB 64
        DB 0
        DB 4
        DB 4
        DB 4
        DB 4
        DB 4
        DB 4
        DB 4
        DB 0
        DB 0
        DB 8
        DB 16
        DB 32
        DB 64
        DB 128
        DB 0
        DB 0
        DB 0
        DB 32
        DB 16
        DB 8
        DB 4
        DB 2
        DB 1
        DB 0
        DB 0
        DB 112
        DB 72
        DB 8
        DB 8
        DB 8
        DB 240
        DB 0
        DB 0
        DB 0
        DB 0
        DB 48
        DB 54
        DB 1
        DB 0
        DB 0
        DB 192
        DB 48
        DB 200
        DB 40
        DB 232
        DB 16
        DB 224
        DB 0
        DB 7
        DB 24
        DB 39
        DB 36
        DB 35
        DB 20
        DB 11
        DB 0
        DB 0
        DB 0
        DB 192
        DB 56
        DB 224
        DB 0
        DB 0
        DB 0
        DB 32
        DB 60
        DB 35
        DB 2
        DB 2
        DB 39
        DB 56
        DB 32
        DB 8
        DB 248
        DB 136
        DB 136
        DB 136
        DB 112
        DB 0
        DB 0
        DB 32
        DB 63
        DB 32
        DB 32
        DB 32
        DB 17
        DB 14
        DB 0
        DB 192
        DB 48
        DB 8
        DB 8
        DB 8
        DB 8
        DB 56
        DB 0
        DB 7
        DB 24
        DB 32
        DB 32
        DB 32
        DB 16
        DB 8
        DB 0
        DB 8
        DB 248
        DB 8
        DB 8
        DB 8
        DB 16
        DB 224
        DB 0
        DB 32
        DB 63
        DB 32
        DB 32
        DB 32
        DB 16
        DB 15
        DB 0
        DB 8
        DB 248
        DB 136
        DB 136
        DB 232
        DB 8
        DB 16
        DB 0
        DB 32
        DB 63
        DB 32
        DB 32
        DB 35
        DB 32
        DB 24
        DB 0
        DB 8
        DB 248
        DB 136
        DB 136
        DB 232
        DB 8
        DB 16
        DB 0
        DB 32
        DB 63
        DB 32
        DB 0
        DB 3
        DB 0
        DB 0
        DB 0
        DB 192
        DB 48
        DB 8
        DB 8
        DB 8
        DB 56
        DB 0
        DB 0
        DB 7
        DB 24
        DB 32
        DB 32
        DB 34
        DB 30
        DB 2
        DB 0
        DB 8
        DB 248
        DB 8
        DB 0
        DB 0
        DB 8
        DB 248
        DB 8
        DB 32
        DB 63
        DB 33
        DB 1
        DB 1
        DB 33
        DB 63
        DB 32
        DB 0
        DB 8
        DB 8
        DB 248
        DB 8
        DB 8
        DB 0
        DB 0
        DB 0
        DB 32
        DB 32
        DB 63
        DB 32
        DB 32
        DB 0
        DB 0
        DB 0
        DB 0
        DB 8
        DB 8
        DB 248
        DB 8
        DB 8
        DB 0
        DB 192
        DB 128
        DB 128
        DB 128
        DB 127
        DB 0
        DB 0
        DB 0
        DB 8
        DB 248
        DB 136
        DB 192
        DB 40
        DB 24
        DB 8
        DB 0
        DB 32
        DB 63
        DB 32
        DB 1
        DB 38
        DB 56
        DB 32
        DB 0
        DB 8
        DB 248
        DB 8
        DB 0
        DB 0
        DB 0
        DB 0
        DB 0
        DB 32
        DB 63
        DB 32
        DB 32
        DB 32
        DB 32
        DB 48
        DB 0
        DB 8
        DB 248
        DB 248
        DB 0
        DB 248
        DB 248
        DB 8
        DB 0
        DB 32
        DB 63
        DB 0
        DB 63
        DB 0
        DB 63
        DB 32
        DB 0
        DB 8
        DB 248
        DB 48
        DB 192
        DB 0
        DB 8
        DB 248
        DB 8
        DB 32
        DB 63
        DB 32
        DB 0
        DB 7
        DB 24
        DB 63
        DB 0
        DB 224
        DB 16
        DB 8
        DB 8
        DB 8
        DB 16
        DB 224
        DB 0
        DB 15
        DB 16
        DB 32
        DB 32
        DB 32
        DB 16
        DB 15
        DB 0
        DB 8
        DB 248
        DB 8
        DB 8
        DB 8
        DB 8
        DB 240
        DB 0
        DB 32
        DB 63
        DB 33
        DB 1
        DB 1
        DB 1
        DB 0
        DB 0
        DB 224
        DB 16
        DB 8
        DB 8
        DB 8
        DB 16
        DB 224
        DB 0
        DB 15
        DB 24
        DB 36
        DB 36
        DB 56
        DB 80
        DB 79
        DB 0
        DB 8
        DB 248
        DB 136
        DB 136
        DB 136
        DB 136
        DB 112
        DB 0
        DB 32
        DB 63
        DB 32
        DB 0
        DB 3
        DB 12
        DB 48
        DB 32
        DB 0
        DB 112
        DB 136
        DB 8
        DB 8
        DB 8
        DB 56
        DB 0
        DB 0
        DB 56
        DB 32
        DB 33
        DB 33
        DB 34
        DB 28
        DB 0
        DB 24
        DB 8
        DB 8
        DB 248
        DB 8
        DB 8
        DB 24
        DB 0
        DB 0
        DB 0
        DB 32
        DB 63
        DB 32
        DB 0
        DB 0
        DB 0
        DB 8
        DB 248
        DB 8
        DB 0
        DB 0
        DB 8
        DB 248
        DB 8
        DB 0
        DB 31
        DB 32
        DB 32
        DB 32
        DB 32
        DB 31
        DB 0
        DB 8
        DB 120
        DB 136
        DB 0
        DB 0
        DB 200
        DB 56
        DB 8
        DB 0
        DB 0
        DB 7
        DB 56
        DB 14
        DB 1
        DB 0
        DB 0
        DB 248
        DB 8
        DB 0
        DB 248
        DB 0
        DB 8
        DB 248
        DB 0
        DB 3
        DB 60
        DB 7
        DB 0
        DB 7
        DB 60
        DB 3
        DB 0
        DB 8
        DB 24
        DB 104
        DB 128
        DB 128
        DB 104
        DB 24
        DB 8
        DB 32
        DB 48
        DB 44
        DB 3
        DB 3
        DB 44
        DB 48
        DB 32
        DB 8
        DB 56
        DB 200
        DB 0
        DB 200
        DB 56
        DB 8
        DB 0
        DB 0
        DB 0
        DB 32
        DB 63
        DB 32
        DB 0
        DB 0
        DB 0
        DB 16
        DB 8
        DB 8
        DB 8
        DB 200
        DB 56
        DB 8
        DB 0
        DB 32
        DB 56
        DB 38
        DB 33
        DB 32
        DB 32
        DB 24
        DB 0
        DB 0
        DB 0
        DB 0
        DB 254
        DB 2
        DB 2
        DB 2
        DB 0
        DB 0
        DB 0
        DB 0
        DB 127
        DB 64
        DB 64
        DB 64
        DB 0
        DB 0
        DB 12
        DB 48
        DB 192
        DB 0
        DB 0
        DB 0
        DB 0
        DB 0
        DB 0
        DB 0
        DB 1
        DB 6
        DB 56
        DB 192
        DB 0
        DB 0
        DB 2
        DB 2
        DB 2
        DB 254
        DB 0
        DB 0
        DB 0
        DB 0
        DB 64
        DB 64
        DB 64
        DB 127
        DB 0
        DB 0
        DB 0
        DB 0
        DB 0
        DB 4
        DB 2
        DB 2
        DB 2
        DB 4
        DB 0
        DB 0
        DB 0
        DB 0
        DB 0
        DB 0
        DB 0
        DB 0
        DB 0
        DB 0
        DB 0
        DB 0
        DB 0
        DB 0
        DB 0
        DB 0
        DB 0
        DB 128
        DB 128
        DB 128
        DB 128
        DB 128
        DB 128
        DB 128
        DB 128
        DB 0
        DB 2
        DB 2
        DB 4
        DB 0
        DB 0
        DB 0
        DB 0
        DB 0
        DB 0
        DB 0
        DB 0
        DB 0
        DB 0
        DB 0
        DB 0
        DB 0
        DB 0
        DB 128
        DB 128
        DB 128
        DB 128
        DB 0
        DB 0
        DB 0
        DB 25
        DB 36
        DB 34
        DB 34
        DB 34
        DB 63
        DB 32
        DB 8
        DB 248
        DB 0
        DB 128
        DB 128
        DB 0
        DB 0
        DB 0
        DB 0
        DB 63
        DB 17
        DB 32
        DB 32
        DB 17
        DB 14
        DB 0
        DB 0
        DB 0
        DB 0
        DB 128
        DB 128
        DB 128
        DB 0
        DB 0
        DB 0
        DB 14
        DB 17
        DB 32
        DB 32
        DB 32
        DB 17
        DB 0
        DB 0
        DB 0
        DB 0
        DB 128
        DB 128
        DB 136
        DB 248
        DB 0
        DB 0
        DB 14
        DB 17
        DB 32
        DB 32
        DB 16
        DB 63
        DB 32
        DB 0
        DB 0
        DB 128
        DB 128
        DB 128
        DB 128
        DB 0
        DB 0
        DB 0
        DB 31
        DB 34
        DB 34
        DB 34
        DB 34
        DB 19
        DB 0
        DB 0
        DB 128
        DB 128
        DB 240
        DB 136
        DB 136
        DB 136
        DB 24
        DB 0
        DB 32
        DB 32
        DB 63
        DB 32
        DB 32
        DB 0
        DB 0
        DB 0
        DB 0
        DB 128
        DB 128
        DB 128
        DB 128
        DB 128
        DB 0
        DB 0
        DB 107
        DB 148
        DB 148
        DB 148
        DB 147
        DB 96
        DB 0
        DB 8
        DB 248
        DB 0
        DB 128
        DB 128
        DB 128
        DB 0
        DB 0
        DB 32
        DB 63
        DB 33
        DB 0
        DB 0
        DB 32
        DB 63
        DB 32
        DB 0
        DB 128
        DB 152
        DB 152
        DB 0
        DB 0
        DB 0
        DB 0
        DB 0
        DB 32
        DB 32
        DB 63
        DB 32
        DB 32
        DB 0
        DB 0
        DB 0
        DB 0
        DB 0
        DB 128
        DB 152
        DB 152
        DB 0
        DB 0
        DB 0
        DB 192
        DB 128
        DB 128
        DB 128
        DB 127
        DB 0
        DB 0
        DB 8
        DB 248
        DB 0
        DB 0
        DB 128
        DB 128
        DB 128
        DB 0
        DB 32
        DB 63
        DB 36
        DB 2
        DB 45
        DB 48
        DB 32
        DB 0
        DB 0
        DB 8
        DB 8
        DB 248
        DB 0
        DB 0
        DB 0
        DB 0
        DB 0
        DB 32
        DB 32
        DB 63
        DB 32
        DB 32
        DB 0
        DB 0
        DB 128
        DB 128
        DB 128
        DB 128
        DB 128
        DB 128
        DB 128
        DB 0
        DB 32
        DB 63
        DB 32
        DB 0
        DB 63
        DB 32
        DB 0
        DB 63
        DB 128
        DB 128
        DB 0
        DB 128
        DB 128
        DB 128
        DB 0
        DB 0
        DB 32
        DB 63
        DB 33
        DB 0
        DB 0
        DB 32
        DB 63
        DB 32
        DB 0
        DB 0
        DB 128
        DB 128
        DB 128
        DB 128
        DB 0
        DB 0
        DB 0
        DB 31
        DB 32
        DB 32
        DB 32
        DB 32
        DB 31
        DB 0
        DB 128
        DB 128
        DB 0
        DB 128
        DB 128
        DB 0
        DB 0
        DB 0
        DB 128
        DB 255
        DB 161
        DB 32
        DB 32
        DB 17
        DB 14
        DB 0
        DB 0
        DB 0
        DB 0
        DB 128
        DB 128
        DB 128
        DB 128
        DB 0
        DB 0
        DB 14
        DB 17
        DB 32
        DB 32
        DB 160
        DB 255
        DB 128
        DB 128
        DB 128
        DB 128
        DB 0
        DB 128
        DB 128
        DB 128
        DB 0
        DB 32
        DB 32
        DB 63
        DB 33
        DB 32
        DB 0
        DB 1
        DB 0
        DB 0
        DB 0
        DB 128
        DB 128
        DB 128
        DB 128
        DB 128
        DB 0
        DB 0
        DB 51
        DB 36
        DB 36
        DB 36
        DB 36
        DB 25
        DB 0
        DB 0
        DB 128
        DB 128
        DB 224
        DB 128
        DB 128
        DB 0
        DB 0
        DB 0
        DB 0
        DB 0
        DB 31
        DB 32
        DB 32
        DB 0
        DB 0
        DB 128
        DB 128
        DB 0
        DB 0
        DB 0
        DB 128
        DB 128
        DB 0
        DB 0
        DB 31
        DB 32
        DB 32
        DB 32
        DB 16
        DB 63
        DB 32
        DB 128
        DB 128
        DB 128
        DB 0
        DB 0
        DB 128
        DB 128
        DB 128
        DB 0
        DB 1
        DB 14
        DB 48
        DB 8
        DB 6
        DB 1
        DB 0
        DB 128
        DB 128
        DB 0
        DB 128
        DB 0
        DB 128
        DB 128
        DB 128
        DB 15
        DB 48
        DB 12
        DB 3
        DB 12
        DB 48
        DB 15
        DB 0
        DB 0
        DB 128
        DB 128
        DB 0
        DB 128
        DB 128
        DB 128
        DB 0
        DB 0
        DB 32
        DB 49
        DB 46
        DB 14
        DB 49
        DB 32
        DB 0
        DB 128
        DB 128
        DB 128
        DB 0
        DB 0
        DB 128
        DB 128
        DB 128
        DB 128
        DB 129
        DB 142
        DB 112
        DB 24
        DB 6
        DB 1
        DB 0
        DB 0
        DB 128
        DB 128
        DB 128
        DB 128
        DB 128
        DB 128
        DB 0
        DB 0
        DB 33
        DB 48
        DB 44
        DB 34
        DB 33
        DB 48
        DB 0
        DB 0
        DB 0
        DB 0
        DB 0
        DB 128
        DB 124
        DB 2
        DB 2
        DB 0
        DB 0
        DB 0
        DB 0
        DB 0
        DB 63
        DB 64
        DB 64
        DB 0
        DB 0
        DB 0
        DB 0
        DB 255
        DB 0
        DB 0
        DB 0
        DB 0
        DB 0
        DB 0
        DB 0
        DB 255
        DB 0
        DB 0
        DB 0
        DB 0
        DB 2
        DB 2
        DB 124
        DB 128
        DB 0
        DB 0
        DB 0
        DB 0
        DB 64
        DB 64
        DB 63
        DB 0
        DB 0
        DB 0
        DB 0
        DB 0
        DB 6
        DB 1
        DB 1
        DB 2
        DB 2
        DB 4
        DB 4
        DB 0
        DB 0
        DB 0
        DB 0
        DB 0
        DB 0
        DB 0
        DB 0

        RSEG XDATA_I:XDATA:NOROOT(0)
// unsigned char BMP[256]
BMP:
        DATA8
        DS 256
        REQUIRE `?<Initializer for BMP>`
        REQUIRE __INIT_XDATA_I

        RSEG XDATA_Z:XDATA:NOROOT(0)
        DATA8
// unsigned char BMP1[512]
BMP1:
        DS 512
        REQUIRE __INIT_XDATA_Z

        RSEG XDATA_I:XDATA:NOROOT(0)
// unsigned char BMP2[1024]
BMP2:
        DATA8
        DS 1024
        REQUIRE `?<Initializer for BMP2>`
        REQUIRE __INIT_XDATA_I

        RSEG XDATA_Z:XDATA:NOROOT(0)
        DATA8
// unsigned char g_LcdBuff[8][128]
g_LcdBuff:
        DS 1024
        REQUIRE __INIT_XDATA_Z

        RSEG BANKED_CODE:CODE:NOROOT(0)
// __banked_func __xdata_reentrant void DelayMS(unsigned int)
DelayMS:
        CFI Block cfiBlock0 Using cfiCommon0
        CFI Function DelayMS
        CODE
        ; Saved register size: 0
        ; Auto size: 0
        MOV     R0,#0x0
        MOV     R1,#0x0
        SJMP    ??DelayMS_0
??DelayMS_1:
        MOV     A,R0
        ADD     A,#0x1
        INC     R0
        MOV     A,R1
        ADDC    A,#0x0
        MOV     R1,A
??DelayMS_0:
        CLR     C
        MOV     A,R0
        SUBB    A,R2
        MOV     A,R1
        SUBB    A,R3
        JC      ??DelayMS_1
        LJMP    ?BRET
        CFI EndBlock cfiBlock0

        RSEG BANKED_CODE:CODE:NOROOT(0)
// __banked_func __xdata_reentrant void LCD_DLY_ms(unsigned int)
LCD_DLY_ms:
        CFI Block cfiBlock1 Using cfiCommon0
        CFI Function LCD_DLY_ms
        CODE
        ; Saved register size: 0
        ; Auto size: 0
        SJMP    ??LCD_DLY_ms_0
??LCD_DLY_ms_1:
        MOV     R0,#0x8
        MOV     R1,#0x7
??LCD_DLY_ms_2:
        MOV     A,R0
        MOV     R4,A
        MOV     A,R1
        MOV     R5,A
        MOV     A,R4
        ADD     A,#-0x1
        DEC     R0
        MOV     A,R5
        ADDC    A,#-0x1
        MOV     R1,A
        MOV     A,R4
        ORL     A,R5
        JNZ     ??LCD_DLY_ms_2
        MOV     A,R2
        ADD     A,#-0x1
        DEC     R2
        MOV     A,R3
        ADDC    A,#-0x1
        MOV     R3,A
??LCD_DLY_ms_0:
        MOV     A,R2
        ORL     A,R3
        JNZ     ??LCD_DLY_ms_1
        LJMP    ?BRET
        CFI EndBlock cfiBlock1

        RSEG BANKED_CODE:CODE:NOROOT(0)
// __banked_func __xdata_reentrant void LCD_WrDat(unsigned char)
LCD_WrDat:
        CFI Block cfiBlock2 Using cfiCommon0
        CFI Function LCD_WrDat
        CODE
        ; Saved register size: 0
        ; Auto size: 0
        SETB    0x80.0
        MOV     R0,#0x8
??LCD_WrDat_0:
        CLR     0x90.4
        MOV     A,R1
        MOV     C,0xE0 /* A   */.7
        JC      ??LCD_WrDat_1
        CLR     0x90.3
        SJMP    ??LCD_WrDat_2
??LCD_WrDat_1:
        SETB    0x90.3
??LCD_WrDat_2:
        SETB    0x90.4
        CLR     C
        RLC     A
        MOV     R1,A
        DEC     R0
        MOV     A,R0
        JNZ     ??LCD_WrDat_0
        LJMP    ?BRET
        CFI EndBlock cfiBlock2
        REQUIRE _A_P0
        REQUIRE _A_P1

        RSEG BANKED_CODE:CODE:NOROOT(0)
// __banked_func __xdata_reentrant void LCD_WrCmd(unsigned char)
LCD_WrCmd:
        CFI Block cfiBlock3 Using cfiCommon0
        CFI Function LCD_WrCmd
        CODE
        ; Saved register size: 0
        ; Auto size: 0
        CLR     0x80.0
        MOV     R0,#0x8
??LCD_WrCmd_0:
        CLR     0x90.4
        MOV     A,R1
        MOV     C,0xE0 /* A   */.7
        JC      ??LCD_WrCmd_1
        CLR     0x90.3
        SJMP    ??LCD_WrCmd_2
??LCD_WrCmd_1:
        SETB    0x90.3
??LCD_WrCmd_2:
        SETB    0x90.4
        CLR     C
        RLC     A
        MOV     R1,A
        DEC     R0
        MOV     A,R0
        JNZ     ??LCD_WrCmd_0
        LJMP    ?BRET
        CFI EndBlock cfiBlock3
        REQUIRE _A_P0
        REQUIRE _A_P1

        RSEG BANKED_CODE:CODE:NOROOT(0)
// __banked_func __xdata_reentrant void LCD_Set_Pos(unsigned char, unsigned char)
LCD_Set_Pos:
        CFI Block cfiBlock4 Using cfiCommon0
        CFI Function LCD_Set_Pos
        CODE
        FUNCALL LCD_Set_Pos, LCD_WrCmd
        LOCFRAME ISTACK, 0, STACK
        LOCFRAME PSTACK, 0, STACK
        LOCFRAME XSTACK, 9, STACK
        LOCFRAME IOVERLAY, 0, STATIC
        LOCFRAME DOVERLAY, 0, STATIC
        ARGFRAME ISTACK, 0, STACK
        ARGFRAME PSTACK, 0, STACK
        ARGFRAME XSTACK, 9, STACK
        ARGFRAME IOVERLAY, 0, STATIC
        ARGFRAME DOVERLAY, 0, STATIC
        FUNCALL LCD_Set_Pos, LCD_WrCmd
        LOCFRAME ISTACK, 0, STACK
        LOCFRAME PSTACK, 0, STACK
        LOCFRAME XSTACK, 9, STACK
        LOCFRAME IOVERLAY, 0, STATIC
        LOCFRAME DOVERLAY, 0, STATIC
        ARGFRAME ISTACK, 0, STACK
        ARGFRAME PSTACK, 0, STACK
        ARGFRAME XSTACK, 9, STACK
        ARGFRAME IOVERLAY, 0, STATIC
        ARGFRAME DOVERLAY, 0, STATIC
        FUNCALL LCD_Set_Pos, LCD_WrCmd
        LOCFRAME ISTACK, 0, STACK
        LOCFRAME PSTACK, 0, STACK
        LOCFRAME XSTACK, 9, STACK
        LOCFRAME IOVERLAY, 0, STATIC
        LOCFRAME DOVERLAY, 0, STATIC
        ARGFRAME ISTACK, 0, STACK
        ARGFRAME PSTACK, 0, STACK
        ARGFRAME XSTACK, 9, STACK
        ARGFRAME IOVERLAY, 0, STATIC
        ARGFRAME DOVERLAY, 0, STATIC
        MOV     A,#-0x9
        LCALL   ?BANKED_ENTER_XDATA
        CFI DPH0 load(1, XDATA, add(CFA_XSP16, literal(-1)))
        CFI DPL0 load(1, XDATA, add(CFA_XSP16, literal(-2)))
        CFI ?BRET_EXT load(1, XDATA, add(CFA_XSP16, literal(-3)))
        CFI ?RET_HIGH load(1, XDATA, add(CFA_XSP16, literal(-4)))
        CFI ?RET_LOW load(1, XDATA, add(CFA_XSP16, literal(-5)))
        CFI R7 load(1, XDATA, add(CFA_XSP16, literal(-6)))
        CFI V0 load(1, XDATA, add(CFA_XSP16, literal(-7)))
        CFI VB load(1, XDATA, add(CFA_XSP16, literal(-8)))
        CFI R6 load(1, XDATA, add(CFA_XSP16, literal(-9)))
        CFI CFA_SP SP+0
        CFI CFA_XSP16 add(XSP16, 9)
        ; Saved register size: 9
        ; Auto size: 0
        MOV     A,R1
        MOV     R6,A
        MOV     A,R2
        MOV     R7,A
        ; Setup parameters for call to function LCD_WrCmd
        MOV     A,#-0x50
        ADD     A,R7
        MOV     R1,A
        LCALL   ??LCD_WrCmd?relay
        ; Setup parameters for call to function LCD_WrCmd
        MOV     A,R6
        SWAP    A
        ANL     A,#0xf
        ORL     A,#0x10
        MOV     R1,A
        LCALL   ??LCD_WrCmd?relay
        ; Setup parameters for call to function LCD_WrCmd
        MOV     A,#0xf
        ANL     A,R6
        ORL     A,#0x1
        MOV     R1,A
        LCALL   ??LCD_WrCmd?relay
        CFI EndBlock cfiBlock4
        REQUIRE ?Subroutine0
        ; // Fall through to label ?Subroutine0

        RSEG BANKED_CODE:CODE:NOROOT(0)
?Subroutine0:
        CFI Block cfiBlock5 Using cfiCommon0
        CFI NoFunction
        CFI CFA_SP SP+0
        CFI CFA_XSP16 add(XSP16, 9)
        CFI VB load(1, XDATA, add(CFA_XSP16, literal(-8)))
        CFI DPL0 load(1, XDATA, add(CFA_XSP16, literal(-2)))
        CFI DPH0 load(1, XDATA, add(CFA_XSP16, literal(-1)))
        CFI R6 load(1, XDATA, add(CFA_XSP16, literal(-9)))
        CFI R7 load(1, XDATA, add(CFA_XSP16, literal(-6)))
        CFI V0 load(1, XDATA, add(CFA_XSP16, literal(-7)))
        CFI ?BRET_EXT load(1, XDATA, add(CFA_XSP16, literal(-3)))
        CFI ?RET_HIGH load(1, XDATA, add(CFA_XSP16, literal(-4)))
        CFI ?RET_LOW load(1, XDATA, add(CFA_XSP16, literal(-5)))
        MOV     R7,#0x1
        LJMP    ?BANKED_LEAVE_XDATA
        CFI EndBlock cfiBlock5

        RSEG BANKED_CODE:CODE:NOROOT(0)
// __banked_func __xdata_reentrant void LCD_Fill(unsigned char)
LCD_Fill:
        CFI Block cfiBlock6 Using cfiCommon0
        CFI Function LCD_Fill
        CODE
        FUNCALL LCD_Fill, LCD_WrCmd
        LOCFRAME ISTACK, 0, STACK
        LOCFRAME PSTACK, 0, STACK
        LOCFRAME XSTACK, 9, STACK
        LOCFRAME IOVERLAY, 0, STATIC
        LOCFRAME DOVERLAY, 0, STATIC
        ARGFRAME ISTACK, 0, STACK
        ARGFRAME PSTACK, 0, STACK
        ARGFRAME XSTACK, 9, STACK
        ARGFRAME IOVERLAY, 0, STATIC
        ARGFRAME DOVERLAY, 0, STATIC
        FUNCALL LCD_Fill, LCD_WrCmd
        LOCFRAME ISTACK, 0, STACK
        LOCFRAME PSTACK, 0, STACK
        LOCFRAME XSTACK, 9, STACK
        LOCFRAME IOVERLAY, 0, STATIC
        LOCFRAME DOVERLAY, 0, STATIC
        ARGFRAME ISTACK, 0, STACK
        ARGFRAME PSTACK, 0, STACK
        ARGFRAME XSTACK, 9, STACK
        ARGFRAME IOVERLAY, 0, STATIC
        ARGFRAME DOVERLAY, 0, STATIC
        FUNCALL LCD_Fill, LCD_WrCmd
        LOCFRAME ISTACK, 0, STACK
        LOCFRAME PSTACK, 0, STACK
        LOCFRAME XSTACK, 9, STACK
        LOCFRAME IOVERLAY, 0, STATIC
        LOCFRAME DOVERLAY, 0, STATIC
        ARGFRAME ISTACK, 0, STACK
        ARGFRAME PSTACK, 0, STACK
        ARGFRAME XSTACK, 9, STACK
        ARGFRAME IOVERLAY, 0, STATIC
        ARGFRAME DOVERLAY, 0, STATIC
        FUNCALL LCD_Fill, LCD_WrDat
        LOCFRAME ISTACK, 0, STACK
        LOCFRAME PSTACK, 0, STACK
        LOCFRAME XSTACK, 9, STACK
        LOCFRAME IOVERLAY, 0, STATIC
        LOCFRAME DOVERLAY, 0, STATIC
        ARGFRAME ISTACK, 0, STACK
        ARGFRAME PSTACK, 0, STACK
        ARGFRAME XSTACK, 9, STACK
        ARGFRAME IOVERLAY, 0, STATIC
        ARGFRAME DOVERLAY, 0, STATIC
        MOV     A,#-0x9
        LCALL   ?BANKED_ENTER_XDATA
        CFI DPH0 load(1, XDATA, add(CFA_XSP16, literal(-1)))
        CFI DPL0 load(1, XDATA, add(CFA_XSP16, literal(-2)))
        CFI ?BRET_EXT load(1, XDATA, add(CFA_XSP16, literal(-3)))
        CFI ?RET_HIGH load(1, XDATA, add(CFA_XSP16, literal(-4)))
        CFI ?RET_LOW load(1, XDATA, add(CFA_XSP16, literal(-5)))
        CFI R7 load(1, XDATA, add(CFA_XSP16, literal(-6)))
        CFI V0 load(1, XDATA, add(CFA_XSP16, literal(-7)))
        CFI VB load(1, XDATA, add(CFA_XSP16, literal(-8)))
        CFI R6 load(1, XDATA, add(CFA_XSP16, literal(-9)))
        CFI CFA_SP SP+0
        CFI CFA_XSP16 add(XSP16, 9)
        ; Saved register size: 9
        ; Auto size: 0
        MOV     A,R1
        MOV     R6,A
        MOV     ?V0 + 0,#0x0
??LCD_Fill_0:
        ; Setup parameters for call to function LCD_WrCmd
        MOV     A,#-0x50
        ADD     A,?V0 + 0
        LCALL   ?Subroutine5 & 0xFFFF
??CrossCallReturnLabel_2:
        MOV     R7,#-0x80
??LCD_Fill_1:
        ; Setup parameters for call to function LCD_WrDat
        MOV     A,R6
        MOV     R1,A
        LCALL   ??LCD_WrDat?relay
        DEC     R7
        MOV     A,R7
        JNZ     ??LCD_Fill_1
        INC     ?V0 + 0
        MOV     A,?V0 + 0
        CLR     C
        SUBB    A,#0x8
        JC      ??LCD_Fill_0
        SJMP    ?Subroutine0
        CFI EndBlock cfiBlock6

        RSEG BANKED_CODE:CODE:NOROOT(0)
// __banked_func __xdata_reentrant void LCD_CLS(void)
LCD_CLS:
        CFI Block cfiBlock7 Using cfiCommon0
        CFI Function LCD_CLS
        CODE
        FUNCALL LCD_CLS, LCD_WrCmd
        LOCFRAME ISTACK, 0, STACK
        LOCFRAME PSTACK, 0, STACK
        LOCFRAME XSTACK, 9, STACK
        LOCFRAME IOVERLAY, 0, STATIC
        LOCFRAME DOVERLAY, 0, STATIC
        ARGFRAME ISTACK, 0, STACK
        ARGFRAME PSTACK, 0, STACK
        ARGFRAME XSTACK, 9, STACK
        ARGFRAME IOVERLAY, 0, STATIC
        ARGFRAME DOVERLAY, 0, STATIC
        FUNCALL LCD_CLS, LCD_WrCmd
        LOCFRAME ISTACK, 0, STACK
        LOCFRAME PSTACK, 0, STACK
        LOCFRAME XSTACK, 9, STACK
        LOCFRAME IOVERLAY, 0, STATIC
        LOCFRAME DOVERLAY, 0, STATIC
        ARGFRAME ISTACK, 0, STACK
        ARGFRAME PSTACK, 0, STACK
        ARGFRAME XSTACK, 9, STACK
        ARGFRAME IOVERLAY, 0, STATIC
        ARGFRAME DOVERLAY, 0, STATIC
        FUNCALL LCD_CLS, LCD_WrCmd
        LOCFRAME ISTACK, 0, STACK
        LOCFRAME PSTACK, 0, STACK
        LOCFRAME XSTACK, 9, STACK
        LOCFRAME IOVERLAY, 0, STATIC
        LOCFRAME DOVERLAY, 0, STATIC
        ARGFRAME ISTACK, 0, STACK
        ARGFRAME PSTACK, 0, STACK
        ARGFRAME XSTACK, 9, STACK
        ARGFRAME IOVERLAY, 0, STATIC
        ARGFRAME DOVERLAY, 0, STATIC
        FUNCALL LCD_CLS, LCD_WrDat
        LOCFRAME ISTACK, 0, STACK
        LOCFRAME PSTACK, 0, STACK
        LOCFRAME XSTACK, 9, STACK
        LOCFRAME IOVERLAY, 0, STATIC
        LOCFRAME DOVERLAY, 0, STATIC
        ARGFRAME ISTACK, 0, STACK
        ARGFRAME PSTACK, 0, STACK
        ARGFRAME XSTACK, 9, STACK
        ARGFRAME IOVERLAY, 0, STATIC
        ARGFRAME DOVERLAY, 0, STATIC
        MOV     A,#-0x9
        LCALL   ?BANKED_ENTER_XDATA
        CFI DPH0 load(1, XDATA, add(CFA_XSP16, literal(-1)))
        CFI DPL0 load(1, XDATA, add(CFA_XSP16, literal(-2)))
        CFI ?BRET_EXT load(1, XDATA, add(CFA_XSP16, literal(-3)))
        CFI ?RET_HIGH load(1, XDATA, add(CFA_XSP16, literal(-4)))
        CFI ?RET_LOW load(1, XDATA, add(CFA_XSP16, literal(-5)))
        CFI R7 load(1, XDATA, add(CFA_XSP16, literal(-6)))
        CFI V0 load(1, XDATA, add(CFA_XSP16, literal(-7)))
        CFI VB load(1, XDATA, add(CFA_XSP16, literal(-8)))
        CFI R6 load(1, XDATA, add(CFA_XSP16, literal(-9)))
        CFI CFA_SP SP+0
        CFI CFA_XSP16 add(XSP16, 9)
        ; Saved register size: 9
        ; Auto size: 0
        MOV     R7,#0x0
??LCD_CLS_0:
        ; Setup parameters for call to function LCD_WrCmd
        MOV     A,#-0x50
        ADD     A,R7
        LCALL   ?Subroutine5 & 0xFFFF
??CrossCallReturnLabel_3:
        MOV     R6,#-0x80
??LCD_CLS_1:
        ; Setup parameters for call to function LCD_WrDat
        MOV     R1,#0x0
        LCALL   ??LCD_WrDat?relay
        DEC     R6
        MOV     A,R6
        JNZ     ??LCD_CLS_1
        INC     R7
        MOV     A,R7
        CLR     C
        SUBB    A,#0x8
        JC      ??LCD_CLS_0
        SJMP    ?Subroutine0
        CFI EndBlock cfiBlock7

        RSEG BANKED_CODE:CODE:NOROOT(0)
?Subroutine5:
        CFI Block cfiCond8 Using cfiCommon0
        CFI NoFunction
        CFI Conditional ??CrossCallReturnLabel_2
        CFI R6 load(1, XDATA, add(CFA_XSP16, literal(-9)))
        CFI VB load(1, XDATA, add(CFA_XSP16, literal(-8)))
        CFI V0 load(1, XDATA, add(CFA_XSP16, literal(-7)))
        CFI R7 load(1, XDATA, add(CFA_XSP16, literal(-6)))
        CFI ?RET_LOW load(1, XDATA, add(CFA_XSP16, literal(-5)))
        CFI ?RET_HIGH load(1, XDATA, add(CFA_XSP16, literal(-4)))
        CFI ?BRET_EXT load(1, XDATA, add(CFA_XSP16, literal(-3)))
        CFI DPL0 load(1, XDATA, add(CFA_XSP16, literal(-2)))
        CFI DPH0 load(1, XDATA, add(CFA_XSP16, literal(-1)))
        CFI CFA_SP SP+0
        CFI CFA_XSP16 add(XSP16, 9)
        CFI Block cfiCond9 Using cfiCommon0
        CFI (cfiCond9) NoFunction
        CFI (cfiCond9) Conditional ??CrossCallReturnLabel_3
        CFI (cfiCond9) R6 load(1, XDATA, add(CFA_XSP16, literal(-9)))
        CFI (cfiCond9) VB load(1, XDATA, add(CFA_XSP16, literal(-8)))
        CFI (cfiCond9) V0 load(1, XDATA, add(CFA_XSP16, literal(-7)))
        CFI (cfiCond9) R7 load(1, XDATA, add(CFA_XSP16, literal(-6)))
        CFI (cfiCond9) ?RET_LOW load(1, XDATA, add(CFA_XSP16, literal(-5)))
        CFI (cfiCond9) ?RET_HIGH load(1, XDATA, add(CFA_XSP16, literal(-4)))
        CFI (cfiCond9) ?BRET_EXT load(1, XDATA, add(CFA_XSP16, literal(-3)))
        CFI (cfiCond9) DPL0 load(1, XDATA, add(CFA_XSP16, literal(-2)))
        CFI (cfiCond9) DPH0 load(1, XDATA, add(CFA_XSP16, literal(-1)))
        CFI (cfiCond9) CFA_SP SP+0
        CFI (cfiCond9) CFA_XSP16 add(XSP16, 9)
        CFI Block cfiPicker10 Using cfiCommon1
        CFI (cfiPicker10) NoFunction
        CFI (cfiPicker10) Picker
        MOV     R1,A
        LCALL   ??LCD_WrCmd?relay
        ; Setup parameters for call to function LCD_WrCmd
        ; Setup parameters for call to function LCD_WrCmd
        MOV     R1,#0x1
        LCALL   ??LCD_WrCmd?relay
        ; Setup parameters for call to function LCD_WrCmd
        ; Setup parameters for call to function LCD_WrCmd
        MOV     R1,#0x10
        LCALL   ??LCD_WrCmd?relay
        RET
        CFI EndBlock cfiCond8
        CFI EndBlock cfiCond9
        CFI EndBlock cfiPicker10

        RSEG BANKED_CODE:CODE:NOROOT(0)
// __banked_func __xdata_reentrant void LCD_Init(void)
LCD_Init:
        CFI Block cfiBlock11 Using cfiCommon0
        CFI Function LCD_Init
        CODE
        FUNCALL LCD_Init, LCD_DLY_ms
        LOCFRAME ISTACK, 2, STACK
        LOCFRAME PSTACK, 0, STACK
        LOCFRAME XSTACK, 0, STACK
        LOCFRAME IOVERLAY, 0, STATIC
        LOCFRAME DOVERLAY, 0, STATIC
        ARGFRAME ISTACK, 2, STACK
        ARGFRAME PSTACK, 0, STACK
        ARGFRAME XSTACK, 0, STACK
        ARGFRAME IOVERLAY, 0, STATIC
        ARGFRAME DOVERLAY, 0, STATIC
        FUNCALL LCD_Init, LCD_WrCmd
        LOCFRAME ISTACK, 2, STACK
        LOCFRAME PSTACK, 0, STACK
        LOCFRAME XSTACK, 0, STACK
        LOCFRAME IOVERLAY, 0, STATIC
        LOCFRAME DOVERLAY, 0, STATIC
        ARGFRAME ISTACK, 2, STACK
        ARGFRAME PSTACK, 0, STACK
        ARGFRAME XSTACK, 0, STACK
        ARGFRAME IOVERLAY, 0, STATIC
        ARGFRAME DOVERLAY, 0, STATIC
        FUNCALL LCD_Init, LCD_WrCmd
        LOCFRAME ISTACK, 2, STACK
        LOCFRAME PSTACK, 0, STACK
        LOCFRAME XSTACK, 0, STACK
        LOCFRAME IOVERLAY, 0, STATIC
        LOCFRAME DOVERLAY, 0, STATIC
        ARGFRAME ISTACK, 2, STACK
        ARGFRAME PSTACK, 0, STACK
        ARGFRAME XSTACK, 0, STACK
        ARGFRAME IOVERLAY, 0, STATIC
        ARGFRAME DOVERLAY, 0, STATIC
        FUNCALL LCD_Init, LCD_WrCmd
        LOCFRAME ISTACK, 2, STACK
        LOCFRAME PSTACK, 0, STACK
        LOCFRAME XSTACK, 0, STACK
        LOCFRAME IOVERLAY, 0, STATIC
        LOCFRAME DOVERLAY, 0, STATIC
        ARGFRAME ISTACK, 2, STACK
        ARGFRAME PSTACK, 0, STACK
        ARGFRAME XSTACK, 0, STACK
        ARGFRAME IOVERLAY, 0, STATIC
        ARGFRAME DOVERLAY, 0, STATIC
        FUNCALL LCD_Init, LCD_WrCmd
        LOCFRAME ISTACK, 2, STACK
        LOCFRAME PSTACK, 0, STACK
        LOCFRAME XSTACK, 0, STACK
        LOCFRAME IOVERLAY, 0, STATIC
        LOCFRAME DOVERLAY, 0, STATIC
        ARGFRAME ISTACK, 2, STACK
        ARGFRAME PSTACK, 0, STACK
        ARGFRAME XSTACK, 0, STACK
        ARGFRAME IOVERLAY, 0, STATIC
        ARGFRAME DOVERLAY, 0, STATIC
        FUNCALL LCD_Init, LCD_WrCmd
        LOCFRAME ISTACK, 2, STACK
        LOCFRAME PSTACK, 0, STACK
        LOCFRAME XSTACK, 0, STACK
        LOCFRAME IOVERLAY, 0, STATIC
        LOCFRAME DOVERLAY, 0, STATIC
        ARGFRAME ISTACK, 2, STACK
        ARGFRAME PSTACK, 0, STACK
        ARGFRAME XSTACK, 0, STACK
        ARGFRAME IOVERLAY, 0, STATIC
        ARGFRAME DOVERLAY, 0, STATIC
        FUNCALL LCD_Init, LCD_WrCmd
        LOCFRAME ISTACK, 2, STACK
        LOCFRAME PSTACK, 0, STACK
        LOCFRAME XSTACK, 0, STACK
        LOCFRAME IOVERLAY, 0, STATIC
        LOCFRAME DOVERLAY, 0, STATIC
        ARGFRAME ISTACK, 2, STACK
        ARGFRAME PSTACK, 0, STACK
        ARGFRAME XSTACK, 0, STACK
        ARGFRAME IOVERLAY, 0, STATIC
        ARGFRAME DOVERLAY, 0, STATIC
        FUNCALL LCD_Init, LCD_WrCmd
        LOCFRAME ISTACK, 2, STACK
        LOCFRAME PSTACK, 0, STACK
        LOCFRAME XSTACK, 0, STACK
        LOCFRAME IOVERLAY, 0, STATIC
        LOCFRAME DOVERLAY, 0, STATIC
        ARGFRAME ISTACK, 2, STACK
        ARGFRAME PSTACK, 0, STACK
        ARGFRAME XSTACK, 0, STACK
        ARGFRAME IOVERLAY, 0, STATIC
        ARGFRAME DOVERLAY, 0, STATIC
        FUNCALL LCD_Init, LCD_WrCmd
        LOCFRAME ISTACK, 2, STACK
        LOCFRAME PSTACK, 0, STACK
        LOCFRAME XSTACK, 0, STACK
        LOCFRAME IOVERLAY, 0, STATIC
        LOCFRAME DOVERLAY, 0, STATIC
        ARGFRAME ISTACK, 2, STACK
        ARGFRAME PSTACK, 0, STACK
        ARGFRAME XSTACK, 0, STACK
        ARGFRAME IOVERLAY, 0, STATIC
        ARGFRAME DOVERLAY, 0, STATIC
        FUNCALL LCD_Init, LCD_WrCmd
        LOCFRAME ISTACK, 2, STACK
        LOCFRAME PSTACK, 0, STACK
        LOCFRAME XSTACK, 0, STACK
        LOCFRAME IOVERLAY, 0, STATIC
        LOCFRAME DOVERLAY, 0, STATIC
        ARGFRAME ISTACK, 2, STACK
        ARGFRAME PSTACK, 0, STACK
        ARGFRAME XSTACK, 0, STACK
        ARGFRAME IOVERLAY, 0, STATIC
        ARGFRAME DOVERLAY, 0, STATIC
        FUNCALL LCD_Init, LCD_WrCmd
        LOCFRAME ISTACK, 2, STACK
        LOCFRAME PSTACK, 0, STACK
        LOCFRAME XSTACK, 0, STACK
        LOCFRAME IOVERLAY, 0, STATIC
        LOCFRAME DOVERLAY, 0, STATIC
        ARGFRAME ISTACK, 2, STACK
        ARGFRAME PSTACK, 0, STACK
        ARGFRAME XSTACK, 0, STACK
        ARGFRAME IOVERLAY, 0, STATIC
        ARGFRAME DOVERLAY, 0, STATIC
        FUNCALL LCD_Init, LCD_WrCmd
        LOCFRAME ISTACK, 2, STACK
        LOCFRAME PSTACK, 0, STACK
        LOCFRAME XSTACK, 0, STACK
        LOCFRAME IOVERLAY, 0, STATIC
        LOCFRAME DOVERLAY, 0, STATIC
        ARGFRAME ISTACK, 2, STACK
        ARGFRAME PSTACK, 0, STACK
        ARGFRAME XSTACK, 0, STACK
        ARGFRAME IOVERLAY, 0, STATIC
        ARGFRAME DOVERLAY, 0, STATIC
        FUNCALL LCD_Init, LCD_WrCmd
        LOCFRAME ISTACK, 2, STACK
        LOCFRAME PSTACK, 0, STACK
        LOCFRAME XSTACK, 0, STACK
        LOCFRAME IOVERLAY, 0, STATIC
        LOCFRAME DOVERLAY, 0, STATIC
        ARGFRAME ISTACK, 2, STACK
        ARGFRAME PSTACK, 0, STACK
        ARGFRAME XSTACK, 0, STACK
        ARGFRAME IOVERLAY, 0, STATIC
        ARGFRAME DOVERLAY, 0, STATIC
        FUNCALL LCD_Init, LCD_WrCmd
        LOCFRAME ISTACK, 2, STACK
        LOCFRAME PSTACK, 0, STACK
        LOCFRAME XSTACK, 0, STACK
        LOCFRAME IOVERLAY, 0, STATIC
        LOCFRAME DOVERLAY, 0, STATIC
        ARGFRAME ISTACK, 2, STACK
        ARGFRAME PSTACK, 0, STACK
        ARGFRAME XSTACK, 0, STACK
        ARGFRAME IOVERLAY, 0, STATIC
        ARGFRAME DOVERLAY, 0, STATIC
        FUNCALL LCD_Init, LCD_WrCmd
        LOCFRAME ISTACK, 2, STACK
        LOCFRAME PSTACK, 0, STACK
        LOCFRAME XSTACK, 0, STACK
        LOCFRAME IOVERLAY, 0, STATIC
        LOCFRAME DOVERLAY, 0, STATIC
        ARGFRAME ISTACK, 2, STACK
        ARGFRAME PSTACK, 0, STACK
        ARGFRAME XSTACK, 0, STACK
        ARGFRAME IOVERLAY, 0, STATIC
        ARGFRAME DOVERLAY, 0, STATIC
        FUNCALL LCD_Init, LCD_WrCmd
        LOCFRAME ISTACK, 2, STACK
        LOCFRAME PSTACK, 0, STACK
        LOCFRAME XSTACK, 0, STACK
        LOCFRAME IOVERLAY, 0, STATIC
        LOCFRAME DOVERLAY, 0, STATIC
        ARGFRAME ISTACK, 2, STACK
        ARGFRAME PSTACK, 0, STACK
        ARGFRAME XSTACK, 0, STACK
        ARGFRAME IOVERLAY, 0, STATIC
        ARGFRAME DOVERLAY, 0, STATIC
        FUNCALL LCD_Init, LCD_WrCmd
        LOCFRAME ISTACK, 2, STACK
        LOCFRAME PSTACK, 0, STACK
        LOCFRAME XSTACK, 0, STACK
        LOCFRAME IOVERLAY, 0, STATIC
        LOCFRAME DOVERLAY, 0, STATIC
        ARGFRAME ISTACK, 2, STACK
        ARGFRAME PSTACK, 0, STACK
        ARGFRAME XSTACK, 0, STACK
        ARGFRAME IOVERLAY, 0, STATIC
        ARGFRAME DOVERLAY, 0, STATIC
        FUNCALL LCD_Init, LCD_WrCmd
        LOCFRAME ISTACK, 2, STACK
        LOCFRAME PSTACK, 0, STACK
        LOCFRAME XSTACK, 0, STACK
        LOCFRAME IOVERLAY, 0, STATIC
        LOCFRAME DOVERLAY, 0, STATIC
        ARGFRAME ISTACK, 2, STACK
        ARGFRAME PSTACK, 0, STACK
        ARGFRAME XSTACK, 0, STACK
        ARGFRAME IOVERLAY, 0, STATIC
        ARGFRAME DOVERLAY, 0, STATIC
        FUNCALL LCD_Init, LCD_WrCmd
        LOCFRAME ISTACK, 2, STACK
        LOCFRAME PSTACK, 0, STACK
        LOCFRAME XSTACK, 0, STACK
        LOCFRAME IOVERLAY, 0, STATIC
        LOCFRAME DOVERLAY, 0, STATIC
        ARGFRAME ISTACK, 2, STACK
        ARGFRAME PSTACK, 0, STACK
        ARGFRAME XSTACK, 0, STACK
        ARGFRAME IOVERLAY, 0, STATIC
        ARGFRAME DOVERLAY, 0, STATIC
        FUNCALL LCD_Init, LCD_WrCmd
        LOCFRAME ISTACK, 2, STACK
        LOCFRAME PSTACK, 0, STACK
        LOCFRAME XSTACK, 0, STACK
        LOCFRAME IOVERLAY, 0, STATIC
        LOCFRAME DOVERLAY, 0, STATIC
        ARGFRAME ISTACK, 2, STACK
        ARGFRAME PSTACK, 0, STACK
        ARGFRAME XSTACK, 0, STACK
        ARGFRAME IOVERLAY, 0, STATIC
        ARGFRAME DOVERLAY, 0, STATIC
        FUNCALL LCD_Init, LCD_WrCmd
        LOCFRAME ISTACK, 2, STACK
        LOCFRAME PSTACK, 0, STACK
        LOCFRAME XSTACK, 0, STACK
        LOCFRAME IOVERLAY, 0, STATIC
        LOCFRAME DOVERLAY, 0, STATIC
        ARGFRAME ISTACK, 2, STACK
        ARGFRAME PSTACK, 0, STACK
        ARGFRAME XSTACK, 0, STACK
        ARGFRAME IOVERLAY, 0, STATIC
        ARGFRAME DOVERLAY, 0, STATIC
        FUNCALL LCD_Init, LCD_WrCmd
        LOCFRAME ISTACK, 2, STACK
        LOCFRAME PSTACK, 0, STACK
        LOCFRAME XSTACK, 0, STACK
        LOCFRAME IOVERLAY, 0, STATIC
        LOCFRAME DOVERLAY, 0, STATIC
        ARGFRAME ISTACK, 2, STACK
        ARGFRAME PSTACK, 0, STACK
        ARGFRAME XSTACK, 0, STACK
        ARGFRAME IOVERLAY, 0, STATIC
        ARGFRAME DOVERLAY, 0, STATIC
        FUNCALL LCD_Init, LCD_WrCmd
        LOCFRAME ISTACK, 2, STACK
        LOCFRAME PSTACK, 0, STACK
        LOCFRAME XSTACK, 0, STACK
        LOCFRAME IOVERLAY, 0, STATIC
        LOCFRAME DOVERLAY, 0, STATIC
        ARGFRAME ISTACK, 2, STACK
        ARGFRAME PSTACK, 0, STACK
        ARGFRAME XSTACK, 0, STACK
        ARGFRAME IOVERLAY, 0, STATIC
        ARGFRAME DOVERLAY, 0, STATIC
        FUNCALL LCD_Init, LCD_WrCmd
        LOCFRAME ISTACK, 2, STACK
        LOCFRAME PSTACK, 0, STACK
        LOCFRAME XSTACK, 0, STACK
        LOCFRAME IOVERLAY, 0, STATIC
        LOCFRAME DOVERLAY, 0, STATIC
        ARGFRAME ISTACK, 2, STACK
        ARGFRAME PSTACK, 0, STACK
        ARGFRAME XSTACK, 0, STACK
        ARGFRAME IOVERLAY, 0, STATIC
        ARGFRAME DOVERLAY, 0, STATIC
        FUNCALL LCD_Init, LCD_WrCmd
        LOCFRAME ISTACK, 2, STACK
        LOCFRAME PSTACK, 0, STACK
        LOCFRAME XSTACK, 0, STACK
        LOCFRAME IOVERLAY, 0, STATIC
        LOCFRAME DOVERLAY, 0, STATIC
        ARGFRAME ISTACK, 2, STACK
        ARGFRAME PSTACK, 0, STACK
        ARGFRAME XSTACK, 0, STACK
        ARGFRAME IOVERLAY, 0, STATIC
        ARGFRAME DOVERLAY, 0, STATIC
        FUNCALL LCD_Init, LCD_WrCmd
        LOCFRAME ISTACK, 2, STACK
        LOCFRAME PSTACK, 0, STACK
        LOCFRAME XSTACK, 0, STACK
        LOCFRAME IOVERLAY, 0, STATIC
        LOCFRAME DOVERLAY, 0, STATIC
        ARGFRAME ISTACK, 2, STACK
        ARGFRAME PSTACK, 0, STACK
        ARGFRAME XSTACK, 0, STACK
        ARGFRAME IOVERLAY, 0, STATIC
        ARGFRAME DOVERLAY, 0, STATIC
        FUNCALL LCD_Init, LCD_WrCmd
        LOCFRAME ISTACK, 2, STACK
        LOCFRAME PSTACK, 0, STACK
        LOCFRAME XSTACK, 0, STACK
        LOCFRAME IOVERLAY, 0, STATIC
        LOCFRAME DOVERLAY, 0, STATIC
        ARGFRAME ISTACK, 2, STACK
        ARGFRAME PSTACK, 0, STACK
        ARGFRAME XSTACK, 0, STACK
        ARGFRAME IOVERLAY, 0, STATIC
        ARGFRAME DOVERLAY, 0, STATIC
        FUNCALL LCD_Init, LCD_WrCmd
        LOCFRAME ISTACK, 2, STACK
        LOCFRAME PSTACK, 0, STACK
        LOCFRAME XSTACK, 0, STACK
        LOCFRAME IOVERLAY, 0, STATIC
        LOCFRAME DOVERLAY, 0, STATIC
        ARGFRAME ISTACK, 2, STACK
        ARGFRAME PSTACK, 0, STACK
        ARGFRAME XSTACK, 0, STACK
        ARGFRAME IOVERLAY, 0, STATIC
        ARGFRAME DOVERLAY, 0, STATIC
        FUNCALL LCD_Init, LCD_WrCmd
        LOCFRAME ISTACK, 2, STACK
        LOCFRAME PSTACK, 0, STACK
        LOCFRAME XSTACK, 0, STACK
        LOCFRAME IOVERLAY, 0, STATIC
        LOCFRAME DOVERLAY, 0, STATIC
        ARGFRAME ISTACK, 2, STACK
        ARGFRAME PSTACK, 0, STACK
        ARGFRAME XSTACK, 0, STACK
        ARGFRAME IOVERLAY, 0, STATIC
        ARGFRAME DOVERLAY, 0, STATIC
        FUNCALL LCD_Init, LCD_Fill
        LOCFRAME ISTACK, 2, STACK
        LOCFRAME PSTACK, 0, STACK
        LOCFRAME XSTACK, 0, STACK
        LOCFRAME IOVERLAY, 0, STATIC
        LOCFRAME DOVERLAY, 0, STATIC
        ARGFRAME ISTACK, 2, STACK
        ARGFRAME PSTACK, 0, STACK
        ARGFRAME XSTACK, 0, STACK
        ARGFRAME IOVERLAY, 0, STATIC
        ARGFRAME DOVERLAY, 0, STATIC
        FUNCALL LCD_Init, LCD_Set_Pos
        LOCFRAME ISTACK, 2, STACK
        LOCFRAME PSTACK, 0, STACK
        LOCFRAME XSTACK, 0, STACK
        LOCFRAME IOVERLAY, 0, STATIC
        LOCFRAME DOVERLAY, 0, STATIC
        ARGFRAME ISTACK, 2, STACK
        ARGFRAME PSTACK, 0, STACK
        ARGFRAME XSTACK, 0, STACK
        ARGFRAME IOVERLAY, 0, STATIC
        ARGFRAME DOVERLAY, 0, STATIC
        PUSH    DPL
        CFI DPL0 Frame(CFA_SP, 4)
        CFI CFA_SP SP+-4
        PUSH    DPH
        CFI DPH0 Frame(CFA_SP, 5)
        CFI CFA_SP SP+-5
        ; Saved register size: 2
        ; Auto size: 0
        ANL     0xf3,#0xfe
        ORL     0xfd,#0x1
        ANL     0xf4,#0xa7
        ORL     0xfe,#0x58
        SETB    0x90.4
        CLR     0x90.6
        ; Setup parameters for call to function LCD_DLY_ms
        MOV     R2,#0x32
        MOV     R3,#0x0
        LCALL   ??LCD_DLY_ms?relay
        SETB    0x90.6
        ; Setup parameters for call to function LCD_WrCmd
        MOV     R1,#-0x52
        LCALL   ?Subroutine9 & 0xFFFF
??CrossCallReturnLabel_8:
        ; Setup parameters for call to function LCD_WrCmd
        MOV     R1,#0x10
        LCALL   ?Subroutine10 & 0xFFFF
??CrossCallReturnLabel_10:
        ; Setup parameters for call to function LCD_WrCmd
        MOV     R1,#-0x7f
        LCALL   ??LCD_WrCmd?relay
        ; Setup parameters for call to function LCD_WrCmd
        MOV     R1,#-0x31
        LCALL   ??LCD_WrCmd?relay
        ; Setup parameters for call to function LCD_WrCmd
        MOV     R1,#-0x5f
        LCALL   ??LCD_WrCmd?relay
        ; Setup parameters for call to function LCD_WrCmd
        MOV     R1,#-0x38
        LCALL   ?Subroutine11 & 0xFFFF
??CrossCallReturnLabel_12:
        ; Setup parameters for call to function LCD_WrCmd
        MOV     R1,#-0x58
        LCALL   ??LCD_WrCmd?relay
        ; Setup parameters for call to function LCD_WrCmd
        MOV     R1,#0x3f
        LCALL   ??LCD_WrCmd?relay
        ; Setup parameters for call to function LCD_WrCmd
        MOV     R1,#-0x2d
        LCALL   ?Subroutine9 & 0xFFFF
??CrossCallReturnLabel_9:
        ; Setup parameters for call to function LCD_WrCmd
        MOV     R1,#-0x2b
        LCALL   ??LCD_WrCmd?relay
        ; Setup parameters for call to function LCD_WrCmd
        MOV     R1,#-0x80
        LCALL   ??LCD_WrCmd?relay
        ; Setup parameters for call to function LCD_WrCmd
        MOV     R1,#-0x27
        LCALL   ??LCD_WrCmd?relay
        ; Setup parameters for call to function LCD_WrCmd
        MOV     R1,#-0xf
        LCALL   ??LCD_WrCmd?relay
        ; Setup parameters for call to function LCD_WrCmd
        MOV     R1,#-0x26
        LCALL   ??LCD_WrCmd?relay
        ; Setup parameters for call to function LCD_WrCmd
        MOV     R1,#0x12
        LCALL   ??LCD_WrCmd?relay
        ; Setup parameters for call to function LCD_WrCmd
        MOV     R1,#-0x25
        LCALL   ?Subroutine10 & 0xFFFF
??CrossCallReturnLabel_11:
        ; Setup parameters for call to function LCD_WrCmd
        MOV     R1,#0x20
        LCALL   ??LCD_WrCmd?relay
        ; Setup parameters for call to function LCD_WrCmd
        MOV     R1,#0x2
        LCALL   ??LCD_WrCmd?relay
        ; Setup parameters for call to function LCD_WrCmd
        MOV     R1,#-0x73
        LCALL   ??LCD_WrCmd?relay
        ; Setup parameters for call to function LCD_WrCmd
        MOV     R1,#0x14
        LCALL   ??LCD_WrCmd?relay
        ; Setup parameters for call to function LCD_WrCmd
        MOV     R1,#-0x5c
        LCALL   ?Subroutine11 & 0xFFFF
??CrossCallReturnLabel_13:
        ; Setup parameters for call to function LCD_WrCmd
        MOV     R1,#-0x51
        LCALL   ??LCD_WrCmd?relay
        ; Setup parameters for call to function LCD_Fill
        MOV     R1,#-0x1
        LCALL   ??LCD_Fill?relay
        ; Setup parameters for call to function LCD_Set_Pos
        MOV     R2,#0x0
        MOV     R1,#0x0
        LCALL   ??LCD_Set_Pos?relay
        POP     DPH
        CFI DPH0 SameValue
        CFI CFA_SP SP+-4
        POP     DPL
        CFI DPL0 SameValue
        CFI CFA_SP SP+-3
        LJMP    ?BRET
        CFI EndBlock cfiBlock11
        REQUIRE P0SEL
        REQUIRE P0DIR
        REQUIRE P1SEL
        REQUIRE P1DIR
        REQUIRE _A_P1

        RSEG BANKED_CODE:CODE:NOROOT(0)
?Subroutine11:
        CFI Block cfiCond12 Using cfiCommon0
        CFI NoFunction
        CFI Conditional ??CrossCallReturnLabel_12
        CFI DPL0 Frame(CFA_SP, 4)
        CFI DPH0 Frame(CFA_SP, 5)
        CFI CFA_SP SP+-5
        CFI Block cfiCond13 Using cfiCommon0
        CFI (cfiCond13) NoFunction
        CFI (cfiCond13) Conditional ??CrossCallReturnLabel_13
        CFI (cfiCond13) DPL0 Frame(CFA_SP, 4)
        CFI (cfiCond13) DPH0 Frame(CFA_SP, 5)
        CFI (cfiCond13) CFA_SP SP+-5
        CFI Block cfiPicker14 Using cfiCommon1
        CFI (cfiPicker14) NoFunction
        CFI (cfiPicker14) Picker
        LCALL   ??LCD_WrCmd?relay
        ; Setup parameters for call to function LCD_WrCmd
        ; Setup parameters for call to function LCD_WrCmd
        MOV     R1,#-0x5a
        LCALL   ??LCD_WrCmd?relay
        RET
        CFI EndBlock cfiCond12
        CFI EndBlock cfiCond13
        CFI EndBlock cfiPicker14

        RSEG BANKED_CODE:CODE:NOROOT(0)
?Subroutine10:
        CFI Block cfiCond15 Using cfiCommon0
        CFI NoFunction
        CFI Conditional ??CrossCallReturnLabel_10
        CFI DPL0 Frame(CFA_SP, 4)
        CFI DPH0 Frame(CFA_SP, 5)
        CFI CFA_SP SP+-5
        CFI Block cfiCond16 Using cfiCommon0
        CFI (cfiCond16) NoFunction
        CFI (cfiCond16) Conditional ??CrossCallReturnLabel_11
        CFI (cfiCond16) DPL0 Frame(CFA_SP, 4)
        CFI (cfiCond16) DPH0 Frame(CFA_SP, 5)
        CFI (cfiCond16) CFA_SP SP+-5
        CFI Block cfiPicker17 Using cfiCommon1
        CFI (cfiPicker17) NoFunction
        CFI (cfiPicker17) Picker
        LCALL   ??LCD_WrCmd?relay
        ; Setup parameters for call to function LCD_WrCmd
        ; Setup parameters for call to function LCD_WrCmd
        MOV     R1,#0x40
        LCALL   ??LCD_WrCmd?relay
        RET
        CFI EndBlock cfiCond15
        CFI EndBlock cfiCond16
        CFI EndBlock cfiPicker17

        RSEG BANKED_CODE:CODE:NOROOT(0)
?Subroutine9:
        CFI Block cfiCond18 Using cfiCommon0
        CFI NoFunction
        CFI Conditional ??CrossCallReturnLabel_8
        CFI DPL0 Frame(CFA_SP, 4)
        CFI DPH0 Frame(CFA_SP, 5)
        CFI CFA_SP SP+-5
        CFI Block cfiCond19 Using cfiCommon0
        CFI (cfiCond19) NoFunction
        CFI (cfiCond19) Conditional ??CrossCallReturnLabel_9
        CFI (cfiCond19) DPL0 Frame(CFA_SP, 4)
        CFI (cfiCond19) DPH0 Frame(CFA_SP, 5)
        CFI (cfiCond19) CFA_SP SP+-5
        CFI Block cfiPicker20 Using cfiCommon1
        CFI (cfiPicker20) NoFunction
        CFI (cfiPicker20) Picker
        LCALL   ??LCD_WrCmd?relay
        ; Setup parameters for call to function LCD_WrCmd
        ; Setup parameters for call to function LCD_WrCmd
        MOV     R1,#0x0
        LCALL   ??LCD_WrCmd?relay
        RET
        CFI EndBlock cfiCond18
        CFI EndBlock cfiCond19
        CFI EndBlock cfiPicker20

        RSEG BANKED_CODE:CODE:NOROOT(0)
// __banked_func __xdata_reentrant void LCD_P6x8Str(unsigned char, unsigned char, unsigned char *)
LCD_P6x8Str:
        CFI Block cfiBlock21 Using cfiCommon0
        CFI Function LCD_P6x8Str
        CODE
        FUNCALL LCD_P6x8Str, LCD_Set_Pos
        LOCFRAME ISTACK, 0, STACK
        LOCFRAME PSTACK, 0, STACK
        LOCFRAME XSTACK, 15, STACK
        LOCFRAME IOVERLAY, 0, STATIC
        LOCFRAME DOVERLAY, 0, STATIC
        ARGFRAME ISTACK, 0, STACK
        ARGFRAME PSTACK, 0, STACK
        ARGFRAME XSTACK, 15, STACK
        ARGFRAME IOVERLAY, 0, STATIC
        ARGFRAME DOVERLAY, 0, STATIC
        FUNCALL LCD_P6x8Str, LCD_WrDat
        LOCFRAME ISTACK, 0, STACK
        LOCFRAME PSTACK, 0, STACK
        LOCFRAME XSTACK, 15, STACK
        LOCFRAME IOVERLAY, 0, STATIC
        LOCFRAME DOVERLAY, 0, STATIC
        ARGFRAME ISTACK, 0, STACK
        ARGFRAME PSTACK, 0, STACK
        ARGFRAME XSTACK, 15, STACK
        ARGFRAME IOVERLAY, 0, STATIC
        ARGFRAME DOVERLAY, 0, STATIC
        MOV     A,#-0xf
        LCALL   ?BANKED_ENTER_XDATA
        CFI DPH0 load(1, XDATA, add(CFA_XSP16, literal(-1)))
        CFI DPL0 load(1, XDATA, add(CFA_XSP16, literal(-2)))
        CFI ?BRET_EXT load(1, XDATA, add(CFA_XSP16, literal(-3)))
        CFI ?RET_HIGH load(1, XDATA, add(CFA_XSP16, literal(-4)))
        CFI ?RET_LOW load(1, XDATA, add(CFA_XSP16, literal(-5)))
        CFI R7 load(1, XDATA, add(CFA_XSP16, literal(-6)))
        CFI V6 load(1, XDATA, add(CFA_XSP16, literal(-7)))
        CFI V5 load(1, XDATA, add(CFA_XSP16, literal(-8)))
        CFI V4 load(1, XDATA, add(CFA_XSP16, literal(-9)))
        CFI V3 load(1, XDATA, add(CFA_XSP16, literal(-10)))
        CFI V2 load(1, XDATA, add(CFA_XSP16, literal(-11)))
        CFI V1 load(1, XDATA, add(CFA_XSP16, literal(-12)))
        CFI V0 load(1, XDATA, add(CFA_XSP16, literal(-13)))
        CFI VB load(1, XDATA, add(CFA_XSP16, literal(-14)))
        CFI R6 load(1, XDATA, add(CFA_XSP16, literal(-15)))
        CFI CFA_SP SP+0
        CFI CFA_XSP16 add(XSP16, 15)
        ; Saved register size: 15
        ; Auto size: 0
        MOV     ?V0 + 0,R1
        MOV     ?V0 + 1,R2
        MOV     A,R4
        MOV     R6,A
        MOV     A,R5
        MOV     R7,A
        MOV     ?V0 + 4,#0x0
        SJMP    ??LCD_P6x8Str_0
??LCD_P6x8Str_1:
        ADD     A,#-0x20
        MOV     ?V0 + 6,A
        MOV     A,?V0 + 0
        CLR     C
        SUBB    A,#0x7f
        JC      ??LCD_P6x8Str_2
        MOV     ?V0 + 0,#0x0
        INC     ?V0 + 1
??LCD_P6x8Str_2:
        ; Setup parameters for call to function LCD_Set_Pos
        MOV     R2,?V0 + 1
        MOV     R1,?V0 + 0
        LCALL   ??LCD_Set_Pos?relay
        MOV     ?V0 + 5,#0x0
??LCD_P6x8Str_3:
        ; Setup parameters for call to function LCD_WrDat
        MOV     ?V0 + 2,?V0 + 5
        MOV     A,?V0 + 6
        MOV     B,#0x6
        MUL     AB
        MOV     R0,A
        MOV     R1,B
        MOV     A,#F6x8 & 0xff
        ADD     A,R0
        MOV     R0,A
        MOV     A,#(F6x8 >> 8) & 0xff
        ADDC    A,R1
        MOV     R1,A
        MOV     A,R0
        ADD     A,?V0 + 2
        MOV     DPL,A
        MOV     A,R1
        LCALL   ??Subroutine24_0 & 0xFFFF
??CrossCallReturnLabel_47:
        MOV     R1,A
        LCALL   ??LCD_WrDat?relay
        INC     ?V0 + 5
        MOV     A,?V0 + 5
        CLR     C
        SUBB    A,#0x6
        JC      ??LCD_P6x8Str_3
        MOV     A,#0x6
        ADD     A,?V0 + 0
        MOV     ?V0 + 0,A
        INC     ?V0 + 4
??LCD_P6x8Str_0:
        MOV     ?V0 + 2,?V0 + 4
        LCALL   ?Subroutine8 & 0xFFFF
??CrossCallReturnLabel_49:
        JNZ     ??LCD_P6x8Str_1
        MOV     R7,#0x7
        LJMP    ?BANKED_LEAVE_XDATA
        CFI EndBlock cfiBlock21

        RSEG BANKED_CODE:CODE:NOROOT(0)
// __banked_func __xdata_reentrant void LCD_P8x16Str(unsigned char, unsigned char, unsigned char *)
LCD_P8x16Str:
        CFI Block cfiBlock22 Using cfiCommon0
        CFI Function LCD_P8x16Str
        CODE
        FUNCALL LCD_P8x16Str, LCD_Set_Pos
        LOCFRAME ISTACK, 0, STACK
        LOCFRAME PSTACK, 0, STACK
        LOCFRAME XSTACK, 17, STACK
        LOCFRAME IOVERLAY, 0, STATIC
        LOCFRAME DOVERLAY, 0, STATIC
        ARGFRAME ISTACK, 0, STACK
        ARGFRAME PSTACK, 0, STACK
        ARGFRAME XSTACK, 17, STACK
        ARGFRAME IOVERLAY, 0, STATIC
        ARGFRAME DOVERLAY, 0, STATIC
        FUNCALL LCD_P8x16Str, LCD_WrDat
        LOCFRAME ISTACK, 0, STACK
        LOCFRAME PSTACK, 0, STACK
        LOCFRAME XSTACK, 17, STACK
        LOCFRAME IOVERLAY, 0, STATIC
        LOCFRAME DOVERLAY, 0, STATIC
        ARGFRAME ISTACK, 0, STACK
        ARGFRAME PSTACK, 0, STACK
        ARGFRAME XSTACK, 17, STACK
        ARGFRAME IOVERLAY, 0, STATIC
        ARGFRAME DOVERLAY, 0, STATIC
        FUNCALL LCD_P8x16Str, LCD_Set_Pos
        LOCFRAME ISTACK, 0, STACK
        LOCFRAME PSTACK, 0, STACK
        LOCFRAME XSTACK, 17, STACK
        LOCFRAME IOVERLAY, 0, STATIC
        LOCFRAME DOVERLAY, 0, STATIC
        ARGFRAME ISTACK, 0, STACK
        ARGFRAME PSTACK, 0, STACK
        ARGFRAME XSTACK, 17, STACK
        ARGFRAME IOVERLAY, 0, STATIC
        ARGFRAME DOVERLAY, 0, STATIC
        FUNCALL LCD_P8x16Str, LCD_WrDat
        LOCFRAME ISTACK, 0, STACK
        LOCFRAME PSTACK, 0, STACK
        LOCFRAME XSTACK, 17, STACK
        LOCFRAME IOVERLAY, 0, STATIC
        LOCFRAME DOVERLAY, 0, STATIC
        ARGFRAME ISTACK, 0, STACK
        ARGFRAME PSTACK, 0, STACK
        ARGFRAME XSTACK, 17, STACK
        ARGFRAME IOVERLAY, 0, STATIC
        ARGFRAME DOVERLAY, 0, STATIC
        MOV     A,#-0x11
        LCALL   ?BANKED_ENTER_XDATA
        CFI DPH0 load(1, XDATA, add(CFA_XSP16, literal(-1)))
        CFI DPL0 load(1, XDATA, add(CFA_XSP16, literal(-2)))
        CFI ?BRET_EXT load(1, XDATA, add(CFA_XSP16, literal(-3)))
        CFI ?RET_HIGH load(1, XDATA, add(CFA_XSP16, literal(-4)))
        CFI ?RET_LOW load(1, XDATA, add(CFA_XSP16, literal(-5)))
        CFI R7 load(1, XDATA, add(CFA_XSP16, literal(-6)))
        CFI V8 load(1, XDATA, add(CFA_XSP16, literal(-7)))
        CFI V7 load(1, XDATA, add(CFA_XSP16, literal(-8)))
        CFI V6 load(1, XDATA, add(CFA_XSP16, literal(-9)))
        CFI V5 load(1, XDATA, add(CFA_XSP16, literal(-10)))
        CFI V4 load(1, XDATA, add(CFA_XSP16, literal(-11)))
        CFI V3 load(1, XDATA, add(CFA_XSP16, literal(-12)))
        CFI V2 load(1, XDATA, add(CFA_XSP16, literal(-13)))
        CFI V1 load(1, XDATA, add(CFA_XSP16, literal(-14)))
        CFI V0 load(1, XDATA, add(CFA_XSP16, literal(-15)))
        CFI VB load(1, XDATA, add(CFA_XSP16, literal(-16)))
        CFI R6 load(1, XDATA, add(CFA_XSP16, literal(-17)))
        CFI CFA_SP SP+0
        CFI CFA_XSP16 add(XSP16, 17)
        ; Saved register size: 17
        ; Auto size: 0
        MOV     ?V0 + 0,R1
        MOV     ?V0 + 1,R2
        MOV     A,R4
        MOV     R6,A
        MOV     A,R5
        MOV     R7,A
        MOV     ?V0 + 7,#0x0
        SJMP    ??LCD_P8x16Str_0
??LCD_P8x16Str_1:
        ADD     A,#-0x20
        MOV     ?V0 + 8,A
        MOV     A,?V0 + 0
        CLR     C
        SUBB    A,#0x79
        JC      ??LCD_P8x16Str_2
        MOV     ?V0 + 0,#0x0
        INC     ?V0 + 1
??LCD_P8x16Str_2:
        ; Setup parameters for call to function LCD_Set_Pos
        MOV     R2,?V0 + 1
        MOV     R1,?V0 + 0
        LCALL   ??LCD_Set_Pos?relay
        MOV     ?V0 + 6,#0x0
??LCD_P8x16Str_3:
        ; Setup parameters for call to function LCD_WrDat
        MOV     ?V0 + 4,?V0 + 8
        MOV     ?V0 + 5,#0x0
        MOV     A,#0x4
        MOV     R0,#?V0 + 4
        LCALL   ?S_SHL
        LCALL   ?Subroutine16 & 0xFFFF
??CrossCallReturnLabel_28:
        MOV     A,#F8X16 & 0xff
        ADD     A,R0
        MOV     DPL,A
        MOV     A,#(F8X16 >> 8) & 0xff
        LCALL   ?Subroutine6 & 0xFFFF
??CrossCallReturnLabel_4:
        JC      ??LCD_P8x16Str_3
        ; Setup parameters for call to function LCD_Set_Pos
        LCALL   ?Subroutine15 & 0xFFFF
??CrossCallReturnLabel_26:
        MOV     ?V0 + 6,#0x0
??LCD_P8x16Str_4:
        ; Setup parameters for call to function LCD_WrDat
        MOV     ?V0 + 4,?V0 + 8
        MOV     ?V0 + 5,#0x0
        MOV     A,#0x4
        MOV     R0,#?V0 + 4
        LCALL   ?S_SHL
        LCALL   ?Subroutine16 & 0xFFFF
??CrossCallReturnLabel_29:
        MOV     A,#(F8X16 + 8) & 0xff
        ADD     A,R0
        MOV     DPL,A
        MOV     A,#((F8X16 + 8) >> 8) & 0xff
        LCALL   ?Subroutine6 & 0xFFFF
??CrossCallReturnLabel_5:
        JC      ??LCD_P8x16Str_4
        MOV     A,#0x8
        ADD     A,?V0 + 0
        MOV     ?V0 + 0,A
        INC     ?V0 + 7
??LCD_P8x16Str_0:
        MOV     ?V0 + 2,?V0 + 7
        LCALL   ?Subroutine8 & 0xFFFF
??CrossCallReturnLabel_50:
        JNZ     ??LCD_P8x16Str_1
        MOV     R7,#0x9
        LJMP    ?BANKED_LEAVE_XDATA
        CFI EndBlock cfiBlock22

        RSEG BANKED_CODE:CODE:NOROOT(0)
?Subroutine16:
        CFI Block cfiCond23 Using cfiCommon0
        CFI NoFunction
        CFI Conditional ??CrossCallReturnLabel_28
        CFI R6 load(1, XDATA, add(CFA_XSP16, literal(-17)))
        CFI VB load(1, XDATA, add(CFA_XSP16, literal(-16)))
        CFI V0 load(1, XDATA, add(CFA_XSP16, literal(-15)))
        CFI V1 load(1, XDATA, add(CFA_XSP16, literal(-14)))
        CFI V2 load(1, XDATA, add(CFA_XSP16, literal(-13)))
        CFI V3 load(1, XDATA, add(CFA_XSP16, literal(-12)))
        CFI V4 load(1, XDATA, add(CFA_XSP16, literal(-11)))
        CFI V5 load(1, XDATA, add(CFA_XSP16, literal(-10)))
        CFI V6 load(1, XDATA, add(CFA_XSP16, literal(-9)))
        CFI V7 load(1, XDATA, add(CFA_XSP16, literal(-8)))
        CFI V8 load(1, XDATA, add(CFA_XSP16, literal(-7)))
        CFI R7 load(1, XDATA, add(CFA_XSP16, literal(-6)))
        CFI ?RET_LOW load(1, XDATA, add(CFA_XSP16, literal(-5)))
        CFI ?RET_HIGH load(1, XDATA, add(CFA_XSP16, literal(-4)))
        CFI ?BRET_EXT load(1, XDATA, add(CFA_XSP16, literal(-3)))
        CFI DPL0 load(1, XDATA, add(CFA_XSP16, literal(-2)))
        CFI DPH0 load(1, XDATA, add(CFA_XSP16, literal(-1)))
        CFI CFA_SP SP+0
        CFI CFA_XSP16 add(XSP16, 17)
        CFI Block cfiCond24 Using cfiCommon0
        CFI (cfiCond24) NoFunction
        CFI (cfiCond24) Conditional ??CrossCallReturnLabel_29
        CFI (cfiCond24) R6 load(1, XDATA, add(CFA_XSP16, literal(-17)))
        CFI (cfiCond24) VB load(1, XDATA, add(CFA_XSP16, literal(-16)))
        CFI (cfiCond24) V0 load(1, XDATA, add(CFA_XSP16, literal(-15)))
        CFI (cfiCond24) V1 load(1, XDATA, add(CFA_XSP16, literal(-14)))
        CFI (cfiCond24) V2 load(1, XDATA, add(CFA_XSP16, literal(-13)))
        CFI (cfiCond24) V3 load(1, XDATA, add(CFA_XSP16, literal(-12)))
        CFI (cfiCond24) V4 load(1, XDATA, add(CFA_XSP16, literal(-11)))
        CFI (cfiCond24) V5 load(1, XDATA, add(CFA_XSP16, literal(-10)))
        CFI (cfiCond24) V6 load(1, XDATA, add(CFA_XSP16, literal(-9)))
        CFI (cfiCond24) V7 load(1, XDATA, add(CFA_XSP16, literal(-8)))
        CFI (cfiCond24) V8 load(1, XDATA, add(CFA_XSP16, literal(-7)))
        CFI (cfiCond24) R7 load(1, XDATA, add(CFA_XSP16, literal(-6)))
        CFI (cfiCond24) ?RET_LOW load(1, XDATA, add(CFA_XSP16, literal(-5)))
        CFI (cfiCond24) ?RET_HIGH load(1, XDATA, add(CFA_XSP16, literal(-4)))
        CFI (cfiCond24) ?BRET_EXT load(1, XDATA, add(CFA_XSP16, literal(-3)))
        CFI (cfiCond24) DPL0 load(1, XDATA, add(CFA_XSP16, literal(-2)))
        CFI (cfiCond24) DPH0 load(1, XDATA, add(CFA_XSP16, literal(-1)))
        CFI (cfiCond24) CFA_SP SP+0
        CFI (cfiCond24) CFA_XSP16 add(XSP16, 17)
        CFI Block cfiPicker25 Using cfiCommon1
        CFI (cfiPicker25) NoFunction
        CFI (cfiPicker25) Picker
        MOV     ?V0 + 2,?V0 + 6
        MOV     A,?V0 + 4
        ADD     A,?V0 + 2
        MOV     R0,A
        MOV     A,?V0 + 5
        ADDC    A,#0x0
        MOV     R1,A
        RET
        CFI EndBlock cfiCond23
        CFI EndBlock cfiCond24
        CFI EndBlock cfiPicker25

        RSEG BANKED_CODE:CODE:NOROOT(0)
?Subroutine6:
        CFI Block cfiCond26 Using cfiCommon0
        CFI NoFunction
        CFI Conditional ??CrossCallReturnLabel_4
        CFI R6 load(1, XDATA, add(CFA_XSP16, literal(-17)))
        CFI VB load(1, XDATA, add(CFA_XSP16, literal(-16)))
        CFI V0 load(1, XDATA, add(CFA_XSP16, literal(-15)))
        CFI V1 load(1, XDATA, add(CFA_XSP16, literal(-14)))
        CFI V2 load(1, XDATA, add(CFA_XSP16, literal(-13)))
        CFI V3 load(1, XDATA, add(CFA_XSP16, literal(-12)))
        CFI V4 load(1, XDATA, add(CFA_XSP16, literal(-11)))
        CFI V5 load(1, XDATA, add(CFA_XSP16, literal(-10)))
        CFI V6 load(1, XDATA, add(CFA_XSP16, literal(-9)))
        CFI V7 load(1, XDATA, add(CFA_XSP16, literal(-8)))
        CFI V8 load(1, XDATA, add(CFA_XSP16, literal(-7)))
        CFI R7 load(1, XDATA, add(CFA_XSP16, literal(-6)))
        CFI ?RET_LOW load(1, XDATA, add(CFA_XSP16, literal(-5)))
        CFI ?RET_HIGH load(1, XDATA, add(CFA_XSP16, literal(-4)))
        CFI ?BRET_EXT load(1, XDATA, add(CFA_XSP16, literal(-3)))
        CFI DPL0 load(1, XDATA, add(CFA_XSP16, literal(-2)))
        CFI DPH0 load(1, XDATA, add(CFA_XSP16, literal(-1)))
        CFI CFA_SP SP+0
        CFI CFA_XSP16 add(XSP16, 17)
        CFI Block cfiCond27 Using cfiCommon0
        CFI (cfiCond27) NoFunction
        CFI (cfiCond27) Conditional ??CrossCallReturnLabel_5
        CFI (cfiCond27) R6 load(1, XDATA, add(CFA_XSP16, literal(-17)))
        CFI (cfiCond27) VB load(1, XDATA, add(CFA_XSP16, literal(-16)))
        CFI (cfiCond27) V0 load(1, XDATA, add(CFA_XSP16, literal(-15)))
        CFI (cfiCond27) V1 load(1, XDATA, add(CFA_XSP16, literal(-14)))
        CFI (cfiCond27) V2 load(1, XDATA, add(CFA_XSP16, literal(-13)))
        CFI (cfiCond27) V3 load(1, XDATA, add(CFA_XSP16, literal(-12)))
        CFI (cfiCond27) V4 load(1, XDATA, add(CFA_XSP16, literal(-11)))
        CFI (cfiCond27) V5 load(1, XDATA, add(CFA_XSP16, literal(-10)))
        CFI (cfiCond27) V6 load(1, XDATA, add(CFA_XSP16, literal(-9)))
        CFI (cfiCond27) V7 load(1, XDATA, add(CFA_XSP16, literal(-8)))
        CFI (cfiCond27) V8 load(1, XDATA, add(CFA_XSP16, literal(-7)))
        CFI (cfiCond27) R7 load(1, XDATA, add(CFA_XSP16, literal(-6)))
        CFI (cfiCond27) ?RET_LOW load(1, XDATA, add(CFA_XSP16, literal(-5)))
        CFI (cfiCond27) ?RET_HIGH load(1, XDATA, add(CFA_XSP16, literal(-4)))
        CFI (cfiCond27) ?BRET_EXT load(1, XDATA, add(CFA_XSP16, literal(-3)))
        CFI (cfiCond27) DPL0 load(1, XDATA, add(CFA_XSP16, literal(-2)))
        CFI (cfiCond27) DPH0 load(1, XDATA, add(CFA_XSP16, literal(-1)))
        CFI (cfiCond27) CFA_SP SP+0
        CFI (cfiCond27) CFA_XSP16 add(XSP16, 17)
        CFI Block cfiPicker28 Using cfiCommon1
        CFI (cfiPicker28) NoFunction
        CFI (cfiPicker28) Picker
        ADDC    A,R1
        LCALL   ?Subroutine21 & 0xFFFF
??CrossCallReturnLabel_41:
        INC     ?V0 + 6
        MOV     A,?V0 + 6
        CLR     C
        SUBB    A,#0x8
        RET
        CFI EndBlock cfiCond26
        CFI EndBlock cfiCond27
        CFI EndBlock cfiPicker28

        RSEG BANKED_CODE:CODE:NOROOT(0)
// __banked_func __xdata_reentrant void LCD_P16x16Ch(unsigned char, unsigned char, unsigned char)
LCD_P16x16Ch:
        CFI Block cfiBlock29 Using cfiCommon0
        CFI Function LCD_P16x16Ch
        CODE
        FUNCALL LCD_P16x16Ch, LCD_Set_Pos
        LOCFRAME ISTACK, 0, STACK
        LOCFRAME PSTACK, 0, STACK
        LOCFRAME XSTACK, 13, STACK
        LOCFRAME IOVERLAY, 0, STATIC
        LOCFRAME DOVERLAY, 0, STATIC
        ARGFRAME ISTACK, 0, STACK
        ARGFRAME PSTACK, 0, STACK
        ARGFRAME XSTACK, 13, STACK
        ARGFRAME IOVERLAY, 0, STATIC
        ARGFRAME DOVERLAY, 0, STATIC
        FUNCALL LCD_P16x16Ch, LCD_WrDat
        LOCFRAME ISTACK, 0, STACK
        LOCFRAME PSTACK, 0, STACK
        LOCFRAME XSTACK, 13, STACK
        LOCFRAME IOVERLAY, 0, STATIC
        LOCFRAME DOVERLAY, 0, STATIC
        ARGFRAME ISTACK, 0, STACK
        ARGFRAME PSTACK, 0, STACK
        ARGFRAME XSTACK, 13, STACK
        ARGFRAME IOVERLAY, 0, STATIC
        ARGFRAME DOVERLAY, 0, STATIC
        FUNCALL LCD_P16x16Ch, LCD_Set_Pos
        LOCFRAME ISTACK, 0, STACK
        LOCFRAME PSTACK, 0, STACK
        LOCFRAME XSTACK, 13, STACK
        LOCFRAME IOVERLAY, 0, STATIC
        LOCFRAME DOVERLAY, 0, STATIC
        ARGFRAME ISTACK, 0, STACK
        ARGFRAME PSTACK, 0, STACK
        ARGFRAME XSTACK, 13, STACK
        ARGFRAME IOVERLAY, 0, STATIC
        ARGFRAME DOVERLAY, 0, STATIC
        FUNCALL LCD_P16x16Ch, LCD_WrDat
        LOCFRAME ISTACK, 0, STACK
        LOCFRAME PSTACK, 0, STACK
        LOCFRAME XSTACK, 13, STACK
        LOCFRAME IOVERLAY, 0, STATIC
        LOCFRAME DOVERLAY, 0, STATIC
        ARGFRAME ISTACK, 0, STACK
        ARGFRAME PSTACK, 0, STACK
        ARGFRAME XSTACK, 13, STACK
        ARGFRAME IOVERLAY, 0, STATIC
        ARGFRAME DOVERLAY, 0, STATIC
        MOV     A,#-0xd
        LCALL   ?BANKED_ENTER_XDATA
        CFI DPH0 load(1, XDATA, add(CFA_XSP16, literal(-1)))
        CFI DPL0 load(1, XDATA, add(CFA_XSP16, literal(-2)))
        CFI ?BRET_EXT load(1, XDATA, add(CFA_XSP16, literal(-3)))
        CFI ?RET_HIGH load(1, XDATA, add(CFA_XSP16, literal(-4)))
        CFI ?RET_LOW load(1, XDATA, add(CFA_XSP16, literal(-5)))
        CFI R7 load(1, XDATA, add(CFA_XSP16, literal(-6)))
        CFI V4 load(1, XDATA, add(CFA_XSP16, literal(-7)))
        CFI V3 load(1, XDATA, add(CFA_XSP16, literal(-8)))
        CFI V2 load(1, XDATA, add(CFA_XSP16, literal(-9)))
        CFI V1 load(1, XDATA, add(CFA_XSP16, literal(-10)))
        CFI V0 load(1, XDATA, add(CFA_XSP16, literal(-11)))
        CFI VB load(1, XDATA, add(CFA_XSP16, literal(-12)))
        CFI R6 load(1, XDATA, add(CFA_XSP16, literal(-13)))
        CFI CFA_SP SP+0
        CFI CFA_XSP16 add(XSP16, 13)
        ; Saved register size: 13
        ; Auto size: 0
        MOV     ?V0 + 0,R1
        MOV     ?V0 + 1,R2
        MOV     ?V0 + 2,R3
        MOV     ?V0 + 3,#0x0
        MOV     A,#0x5
        MOV     R0,#?V0 + 2
        LCALL   ?S_SHL
        MOV     R6,?V0 + 2
        MOV     R7,?V0 + 3
        ; Setup parameters for call to function LCD_Set_Pos
        LCALL   ??LCD_Set_Pos?relay
        MOV     ?V0 + 2,#0x10
??LCD_P16x16Ch_0:
        ; Setup parameters for call to function LCD_WrDat
        LCALL   ?Subroutine4 & 0xFFFF
??CrossCallReturnLabel_0:
        JNZ     ??LCD_P16x16Ch_0
        ; Setup parameters for call to function LCD_Set_Pos
        LCALL   ?Subroutine15 & 0xFFFF
??CrossCallReturnLabel_27:
        MOV     ?V0 + 2,#0x10
??LCD_P16x16Ch_1:
        ; Setup parameters for call to function LCD_WrDat
        LCALL   ?Subroutine4 & 0xFFFF
??CrossCallReturnLabel_1:
        JNZ     ??LCD_P16x16Ch_1
        MOV     R7,#0x5
        LJMP    ?BANKED_LEAVE_XDATA
        CFI EndBlock cfiBlock29

        RSEG BANKED_CODE:CODE:NOROOT(0)
?Subroutine15:
        CFI Block cfiCond30 Using cfiCommon0
        CFI NoFunction
        CFI Conditional ??CrossCallReturnLabel_26
        CFI R6 load(1, XDATA, add(CFA_XSP16, literal(-17)))
        CFI VB load(1, XDATA, add(CFA_XSP16, literal(-16)))
        CFI V0 load(1, XDATA, add(CFA_XSP16, literal(-15)))
        CFI V1 load(1, XDATA, add(CFA_XSP16, literal(-14)))
        CFI V2 load(1, XDATA, add(CFA_XSP16, literal(-13)))
        CFI V3 load(1, XDATA, add(CFA_XSP16, literal(-12)))
        CFI V4 load(1, XDATA, add(CFA_XSP16, literal(-11)))
        CFI V5 load(1, XDATA, add(CFA_XSP16, literal(-10)))
        CFI V6 load(1, XDATA, add(CFA_XSP16, literal(-9)))
        CFI V7 load(1, XDATA, add(CFA_XSP16, literal(-8)))
        CFI V8 load(1, XDATA, add(CFA_XSP16, literal(-7)))
        CFI R7 load(1, XDATA, add(CFA_XSP16, literal(-6)))
        CFI ?RET_LOW load(1, XDATA, add(CFA_XSP16, literal(-5)))
        CFI ?RET_HIGH load(1, XDATA, add(CFA_XSP16, literal(-4)))
        CFI ?BRET_EXT load(1, XDATA, add(CFA_XSP16, literal(-3)))
        CFI DPL0 load(1, XDATA, add(CFA_XSP16, literal(-2)))
        CFI DPH0 load(1, XDATA, add(CFA_XSP16, literal(-1)))
        CFI CFA_SP SP+0
        CFI CFA_XSP16 add(XSP16, 17)
        CFI Block cfiCond31 Using cfiCommon0
        CFI (cfiCond31) NoFunction
        CFI (cfiCond31) Conditional ??CrossCallReturnLabel_27
        CFI (cfiCond31) R6 load(1, XDATA, add(CFA_XSP16, literal(-13)))
        CFI (cfiCond31) VB load(1, XDATA, add(CFA_XSP16, literal(-12)))
        CFI (cfiCond31) V0 load(1, XDATA, add(CFA_XSP16, literal(-11)))
        CFI (cfiCond31) V1 load(1, XDATA, add(CFA_XSP16, literal(-10)))
        CFI (cfiCond31) V2 load(1, XDATA, add(CFA_XSP16, literal(-9)))
        CFI (cfiCond31) V3 load(1, XDATA, add(CFA_XSP16, literal(-8)))
        CFI (cfiCond31) V4 load(1, XDATA, add(CFA_XSP16, literal(-7)))
        CFI (cfiCond31) R7 load(1, XDATA, add(CFA_XSP16, literal(-6)))
        CFI (cfiCond31) ?RET_LOW load(1, XDATA, add(CFA_XSP16, literal(-5)))
        CFI (cfiCond31) ?RET_HIGH load(1, XDATA, add(CFA_XSP16, literal(-4)))
        CFI (cfiCond31) ?BRET_EXT load(1, XDATA, add(CFA_XSP16, literal(-3)))
        CFI (cfiCond31) DPL0 load(1, XDATA, add(CFA_XSP16, literal(-2)))
        CFI (cfiCond31) DPH0 load(1, XDATA, add(CFA_XSP16, literal(-1)))
        CFI (cfiCond31) CFA_SP SP+0
        CFI (cfiCond31) CFA_XSP16 add(XSP16, 13)
        CFI Block cfiPicker32 Using cfiCommon1
        CFI (cfiPicker32) NoFunction
        CFI (cfiPicker32) Picker
        MOV     A,#0x1
        ADD     A,?V0 + 1
        MOV     R2,A
        MOV     R1,?V0 + 0
        LCALL   ??LCD_Set_Pos?relay
        RET
        CFI EndBlock cfiCond30
        CFI EndBlock cfiCond31
        CFI EndBlock cfiPicker32

        RSEG BANKED_CODE:CODE:NOROOT(0)
?Subroutine4:
        CFI Block cfiCond33 Using cfiCommon0
        CFI NoFunction
        CFI Conditional ??CrossCallReturnLabel_0
        CFI R6 load(1, XDATA, add(CFA_XSP16, literal(-13)))
        CFI VB load(1, XDATA, add(CFA_XSP16, literal(-12)))
        CFI V0 load(1, XDATA, add(CFA_XSP16, literal(-11)))
        CFI V1 load(1, XDATA, add(CFA_XSP16, literal(-10)))
        CFI V2 load(1, XDATA, add(CFA_XSP16, literal(-9)))
        CFI V3 load(1, XDATA, add(CFA_XSP16, literal(-8)))
        CFI V4 load(1, XDATA, add(CFA_XSP16, literal(-7)))
        CFI R7 load(1, XDATA, add(CFA_XSP16, literal(-6)))
        CFI ?RET_LOW load(1, XDATA, add(CFA_XSP16, literal(-5)))
        CFI ?RET_HIGH load(1, XDATA, add(CFA_XSP16, literal(-4)))
        CFI ?BRET_EXT load(1, XDATA, add(CFA_XSP16, literal(-3)))
        CFI DPL0 load(1, XDATA, add(CFA_XSP16, literal(-2)))
        CFI DPH0 load(1, XDATA, add(CFA_XSP16, literal(-1)))
        CFI CFA_SP SP+0
        CFI CFA_XSP16 add(XSP16, 13)
        CFI Block cfiCond34 Using cfiCommon0
        CFI (cfiCond34) NoFunction
        CFI (cfiCond34) Conditional ??CrossCallReturnLabel_1
        CFI (cfiCond34) R6 load(1, XDATA, add(CFA_XSP16, literal(-13)))
        CFI (cfiCond34) VB load(1, XDATA, add(CFA_XSP16, literal(-12)))
        CFI (cfiCond34) V0 load(1, XDATA, add(CFA_XSP16, literal(-11)))
        CFI (cfiCond34) V1 load(1, XDATA, add(CFA_XSP16, literal(-10)))
        CFI (cfiCond34) V2 load(1, XDATA, add(CFA_XSP16, literal(-9)))
        CFI (cfiCond34) V3 load(1, XDATA, add(CFA_XSP16, literal(-8)))
        CFI (cfiCond34) V4 load(1, XDATA, add(CFA_XSP16, literal(-7)))
        CFI (cfiCond34) R7 load(1, XDATA, add(CFA_XSP16, literal(-6)))
        CFI (cfiCond34) ?RET_LOW load(1, XDATA, add(CFA_XSP16, literal(-5)))
        CFI (cfiCond34) ?RET_HIGH load(1, XDATA, add(CFA_XSP16, literal(-4)))
        CFI (cfiCond34) ?BRET_EXT load(1, XDATA, add(CFA_XSP16, literal(-3)))
        CFI (cfiCond34) DPL0 load(1, XDATA, add(CFA_XSP16, literal(-2)))
        CFI (cfiCond34) DPH0 load(1, XDATA, add(CFA_XSP16, literal(-1)))
        CFI (cfiCond34) CFA_SP SP+0
        CFI (cfiCond34) CFA_XSP16 add(XSP16, 13)
        CFI Block cfiPicker35 Using cfiCommon1
        CFI (cfiPicker35) NoFunction
        CFI (cfiPicker35) Picker
        MOV     A,#F16x16 & 0xff
        ADD     A,R6
        MOV     DPL,A
        MOV     A,#(F16x16 >> 8) & 0xff
        ADDC    A,R7
        LCALL   ?Subroutine21 & 0xFFFF
??CrossCallReturnLabel_42:
        MOV     A,R6
        ADD     A,#0x1
        INC     R6
        MOV     A,R7
        ADDC    A,#0x0
        MOV     R7,A
        DEC     ?V0 + 2
        MOV     A,?V0 + 2
        RET
        CFI EndBlock cfiCond33
        CFI EndBlock cfiCond34
        CFI EndBlock cfiPicker35

        RSEG BANKED_CODE:CODE:NOROOT(0)
?Subroutine21:
        CFI Block cfiCond36 Using cfiCommon0
        CFI NoFunction
        CFI Conditional ??CrossCallReturnLabel_41, ??CrossCallReturnLabel_4
        CFI R6 load(1, XDATA, add(CFA_XSP16, literal(-17)))
        CFI VB load(1, XDATA, add(CFA_XSP16, literal(-16)))
        CFI V0 load(1, XDATA, add(CFA_XSP16, literal(-15)))
        CFI V1 load(1, XDATA, add(CFA_XSP16, literal(-14)))
        CFI V2 load(1, XDATA, add(CFA_XSP16, literal(-13)))
        CFI V3 load(1, XDATA, add(CFA_XSP16, literal(-12)))
        CFI V4 load(1, XDATA, add(CFA_XSP16, literal(-11)))
        CFI V5 load(1, XDATA, add(CFA_XSP16, literal(-10)))
        CFI V6 load(1, XDATA, add(CFA_XSP16, literal(-9)))
        CFI V7 load(1, XDATA, add(CFA_XSP16, literal(-8)))
        CFI V8 load(1, XDATA, add(CFA_XSP16, literal(-7)))
        CFI R7 load(1, XDATA, add(CFA_XSP16, literal(-6)))
        CFI ?RET_LOW load(1, XDATA, add(CFA_XSP16, literal(-5)))
        CFI ?RET_HIGH load(1, XDATA, add(CFA_XSP16, literal(-4)))
        CFI ?BRET_EXT load(1, XDATA, add(CFA_XSP16, literal(-3)))
        CFI DPL0 load(1, XDATA, add(CFA_XSP16, literal(-2)))
        CFI DPH0 load(1, XDATA, add(CFA_XSP16, literal(-1)))
        CFI CFA_SP SP+0
        CFI CFA_XSP16 add(XSP16, 17)
        CFI Block cfiCond37 Using cfiCommon0
        CFI (cfiCond37) NoFunction
        CFI (cfiCond37) Conditional ??CrossCallReturnLabel_41, ??CrossCallReturnLabel_5
        CFI (cfiCond37) R6 load(1, XDATA, add(CFA_XSP16, literal(-17)))
        CFI (cfiCond37) VB load(1, XDATA, add(CFA_XSP16, literal(-16)))
        CFI (cfiCond37) V0 load(1, XDATA, add(CFA_XSP16, literal(-15)))
        CFI (cfiCond37) V1 load(1, XDATA, add(CFA_XSP16, literal(-14)))
        CFI (cfiCond37) V2 load(1, XDATA, add(CFA_XSP16, literal(-13)))
        CFI (cfiCond37) V3 load(1, XDATA, add(CFA_XSP16, literal(-12)))
        CFI (cfiCond37) V4 load(1, XDATA, add(CFA_XSP16, literal(-11)))
        CFI (cfiCond37) V5 load(1, XDATA, add(CFA_XSP16, literal(-10)))
        CFI (cfiCond37) V6 load(1, XDATA, add(CFA_XSP16, literal(-9)))
        CFI (cfiCond37) V7 load(1, XDATA, add(CFA_XSP16, literal(-8)))
        CFI (cfiCond37) V8 load(1, XDATA, add(CFA_XSP16, literal(-7)))
        CFI (cfiCond37) R7 load(1, XDATA, add(CFA_XSP16, literal(-6)))
        CFI (cfiCond37) ?RET_LOW load(1, XDATA, add(CFA_XSP16, literal(-5)))
        CFI (cfiCond37) ?RET_HIGH load(1, XDATA, add(CFA_XSP16, literal(-4)))
        CFI (cfiCond37) ?BRET_EXT load(1, XDATA, add(CFA_XSP16, literal(-3)))
        CFI (cfiCond37) DPL0 load(1, XDATA, add(CFA_XSP16, literal(-2)))
        CFI (cfiCond37) DPH0 load(1, XDATA, add(CFA_XSP16, literal(-1)))
        CFI (cfiCond37) CFA_SP SP+0
        CFI (cfiCond37) CFA_XSP16 add(XSP16, 17)
        CFI Block cfiCond38 Using cfiCommon0
        CFI (cfiCond38) NoFunction
        CFI (cfiCond38) Conditional ??CrossCallReturnLabel_42, ??CrossCallReturnLabel_0
        CFI (cfiCond38) R6 load(1, XDATA, add(CFA_XSP16, literal(-13)))
        CFI (cfiCond38) VB load(1, XDATA, add(CFA_XSP16, literal(-12)))
        CFI (cfiCond38) V0 load(1, XDATA, add(CFA_XSP16, literal(-11)))
        CFI (cfiCond38) V1 load(1, XDATA, add(CFA_XSP16, literal(-10)))
        CFI (cfiCond38) V2 load(1, XDATA, add(CFA_XSP16, literal(-9)))
        CFI (cfiCond38) V3 load(1, XDATA, add(CFA_XSP16, literal(-8)))
        CFI (cfiCond38) V4 load(1, XDATA, add(CFA_XSP16, literal(-7)))
        CFI (cfiCond38) R7 load(1, XDATA, add(CFA_XSP16, literal(-6)))
        CFI (cfiCond38) ?RET_LOW load(1, XDATA, add(CFA_XSP16, literal(-5)))
        CFI (cfiCond38) ?RET_HIGH load(1, XDATA, add(CFA_XSP16, literal(-4)))
        CFI (cfiCond38) ?BRET_EXT load(1, XDATA, add(CFA_XSP16, literal(-3)))
        CFI (cfiCond38) DPL0 load(1, XDATA, add(CFA_XSP16, literal(-2)))
        CFI (cfiCond38) DPH0 load(1, XDATA, add(CFA_XSP16, literal(-1)))
        CFI (cfiCond38) CFA_SP SP+0
        CFI (cfiCond38) CFA_XSP16 add(XSP16, 13)
        CFI Block cfiCond39 Using cfiCommon0
        CFI (cfiCond39) NoFunction
        CFI (cfiCond39) Conditional ??CrossCallReturnLabel_42, ??CrossCallReturnLabel_1
        CFI (cfiCond39) R6 load(1, XDATA, add(CFA_XSP16, literal(-13)))
        CFI (cfiCond39) VB load(1, XDATA, add(CFA_XSP16, literal(-12)))
        CFI (cfiCond39) V0 load(1, XDATA, add(CFA_XSP16, literal(-11)))
        CFI (cfiCond39) V1 load(1, XDATA, add(CFA_XSP16, literal(-10)))
        CFI (cfiCond39) V2 load(1, XDATA, add(CFA_XSP16, literal(-9)))
        CFI (cfiCond39) V3 load(1, XDATA, add(CFA_XSP16, literal(-8)))
        CFI (cfiCond39) V4 load(1, XDATA, add(CFA_XSP16, literal(-7)))
        CFI (cfiCond39) R7 load(1, XDATA, add(CFA_XSP16, literal(-6)))
        CFI (cfiCond39) ?RET_LOW load(1, XDATA, add(CFA_XSP16, literal(-5)))
        CFI (cfiCond39) ?RET_HIGH load(1, XDATA, add(CFA_XSP16, literal(-4)))
        CFI (cfiCond39) ?BRET_EXT load(1, XDATA, add(CFA_XSP16, literal(-3)))
        CFI (cfiCond39) DPL0 load(1, XDATA, add(CFA_XSP16, literal(-2)))
        CFI (cfiCond39) DPH0 load(1, XDATA, add(CFA_XSP16, literal(-1)))
        CFI (cfiCond39) CFA_SP SP+0
        CFI (cfiCond39) CFA_XSP16 add(XSP16, 13)
        CFI Block cfiCond40 Using cfiCommon0
        CFI (cfiCond40) NoFunction
        CFI (cfiCond40) Conditional ??CrossCallReturnLabel_43
        CFI (cfiCond40) R6 load(1, XDATA, add(CFA_XSP16, literal(-16)))
        CFI (cfiCond40) VB load(1, XDATA, add(CFA_XSP16, literal(-15)))
        CFI (cfiCond40) V0 load(1, XDATA, add(CFA_XSP16, literal(-14)))
        CFI (cfiCond40) V1 load(1, XDATA, add(CFA_XSP16, literal(-13)))
        CFI (cfiCond40) V2 load(1, XDATA, add(CFA_XSP16, literal(-12)))
        CFI (cfiCond40) V3 load(1, XDATA, add(CFA_XSP16, literal(-11)))
        CFI (cfiCond40) V4 load(1, XDATA, add(CFA_XSP16, literal(-10)))
        CFI (cfiCond40) V5 load(1, XDATA, add(CFA_XSP16, literal(-9)))
        CFI (cfiCond40) V6 load(1, XDATA, add(CFA_XSP16, literal(-8)))
        CFI (cfiCond40) V7 load(1, XDATA, add(CFA_XSP16, literal(-7)))
        CFI (cfiCond40) R7 load(1, XDATA, add(CFA_XSP16, literal(-6)))
        CFI (cfiCond40) ?RET_LOW load(1, XDATA, add(CFA_XSP16, literal(-5)))
        CFI (cfiCond40) ?RET_HIGH load(1, XDATA, add(CFA_XSP16, literal(-4)))
        CFI (cfiCond40) ?BRET_EXT load(1, XDATA, add(CFA_XSP16, literal(-3)))
        CFI (cfiCond40) DPL0 load(1, XDATA, add(CFA_XSP16, literal(-2)))
        CFI (cfiCond40) DPH0 load(1, XDATA, add(CFA_XSP16, literal(-1)))
        CFI (cfiCond40) CFA_SP SP+0
        CFI (cfiCond40) CFA_XSP16 add(XSP16, 16)
        CFI Block cfiPicker41 Using cfiCommon1
        CFI (cfiPicker41) NoFunction
        CFI (cfiPicker41) Picker
        MOV     DPH,A
        MOVX    A,@DPTR
        MOV     R1,A
        LCALL   ??LCD_WrDat?relay
        RET
        CFI EndBlock cfiCond36
        CFI EndBlock cfiCond37
        CFI EndBlock cfiCond38
        CFI EndBlock cfiCond39
        CFI EndBlock cfiCond40
        CFI EndBlock cfiPicker41

        RSEG BANKED_CODE:CODE:NOROOT(0)
// __banked_func __xdata_reentrant void Draw_BMP(unsigned char, unsigned char, unsigned char, unsigned char, unsigned char *)
Draw_BMP:
        CFI Block cfiBlock42 Using cfiCommon0
        CFI Function Draw_BMP
        CODE
        FUNCALL Draw_BMP, LCD_WrDat
        LOCFRAME ISTACK, 0, STACK
        LOCFRAME PSTACK, 0, STACK
        LOCFRAME XSTACK, 16, STACK
        LOCFRAME IOVERLAY, 0, STATIC
        LOCFRAME DOVERLAY, 0, STATIC
        ARGFRAME ISTACK, 0, STACK
        ARGFRAME PSTACK, 0, STACK
        ARGFRAME XSTACK, 16, STACK
        ARGFRAME IOVERLAY, 0, STATIC
        ARGFRAME DOVERLAY, 0, STATIC
        FUNCALL Draw_BMP, LCD_Set_Pos
        LOCFRAME ISTACK, 0, STACK
        LOCFRAME PSTACK, 0, STACK
        LOCFRAME XSTACK, 16, STACK
        LOCFRAME IOVERLAY, 0, STATIC
        LOCFRAME DOVERLAY, 0, STATIC
        ARGFRAME ISTACK, 0, STACK
        ARGFRAME PSTACK, 0, STACK
        ARGFRAME XSTACK, 16, STACK
        ARGFRAME IOVERLAY, 0, STATIC
        ARGFRAME DOVERLAY, 0, STATIC
        MOV     A,#-0x10
        LCALL   ?BANKED_ENTER_XDATA
        CFI DPH0 load(1, XDATA, add(CFA_XSP16, literal(-1)))
        CFI DPL0 load(1, XDATA, add(CFA_XSP16, literal(-2)))
        CFI ?BRET_EXT load(1, XDATA, add(CFA_XSP16, literal(-3)))
        CFI ?RET_HIGH load(1, XDATA, add(CFA_XSP16, literal(-4)))
        CFI ?RET_LOW load(1, XDATA, add(CFA_XSP16, literal(-5)))
        CFI R7 load(1, XDATA, add(CFA_XSP16, literal(-6)))
        CFI V7 load(1, XDATA, add(CFA_XSP16, literal(-7)))
        CFI V6 load(1, XDATA, add(CFA_XSP16, literal(-8)))
        CFI V5 load(1, XDATA, add(CFA_XSP16, literal(-9)))
        CFI V4 load(1, XDATA, add(CFA_XSP16, literal(-10)))
        CFI V3 load(1, XDATA, add(CFA_XSP16, literal(-11)))
        CFI V2 load(1, XDATA, add(CFA_XSP16, literal(-12)))
        CFI V1 load(1, XDATA, add(CFA_XSP16, literal(-13)))
        CFI V0 load(1, XDATA, add(CFA_XSP16, literal(-14)))
        CFI VB load(1, XDATA, add(CFA_XSP16, literal(-15)))
        CFI R6 load(1, XDATA, add(CFA_XSP16, literal(-16)))
        CFI CFA_SP SP+0
        CFI CFA_XSP16 add(XSP16, 16)
        ; Saved register size: 16
        ; Auto size: 0
        MOV     ?V0 + 3,R1
        MOV     ?V0 + 6,R3
        MOV     ?V0 + 7,R4
        MOV     A,#0x10
        LCALL   ?XSTACK_DISP0_8
        MOVX    A,@DPTR
        MOV     R0,A
        INC     DPTR
        MOVX    A,@DPTR
        MOV     R1,A
        MOV     A,R0
        MOV     R6,A
        MOV     A,R1
        MOV     R7,A
        MOV     ?V0 + 0,#0x0
        MOV     ?V0 + 1,#0x0
        MOV     ?V0 + 2,R2
        SJMP    ??Draw_BMP_0
??Draw_BMP_1:
        ; Setup parameters for call to function LCD_WrDat
        MOV     A,R6
        ADD     A,?V0 + 0
        MOV     DPL,A
        MOV     A,R7
        ADDC    A,?V0 + 1
        LCALL   ?Subroutine21 & 0xFFFF
??CrossCallReturnLabel_43:
        MOV     A,?V0 + 0
        ADD     A,#0x1
        MOV     ?V0 + 0,A
        MOV     A,?V0 + 1
        ADDC    A,#0x0
        MOV     ?V0 + 1,A
        INC     ?V0 + 4
??Draw_BMP_2:
        MOV     A,?V0 + 4
        CLR     C
        SUBB    A,?V0 + 6
        JC      ??Draw_BMP_1
        INC     ?V0 + 2
??Draw_BMP_0:
        MOV     A,?V0 + 2
        CLR     C
        SUBB    A,?V0 + 7
        JNC     ??Draw_BMP_3
        ; Setup parameters for call to function LCD_Set_Pos
        MOV     R2,?V0 + 2
        MOV     R1,?V0 + 3
        LCALL   ??LCD_Set_Pos?relay
        MOV     ?V0 + 4,?V0 + 3
        SJMP    ??Draw_BMP_2
        CFI EndBlock cfiBlock42
??Draw_BMP_3:
        REQUIRE ?Subroutine1
        ; // Fall through to label ?Subroutine1

        RSEG BANKED_CODE:CODE:NOROOT(0)
?Subroutine1:
        CFI Block cfiBlock43 Using cfiCommon0
        CFI NoFunction
        CFI CFA_SP SP+0
        CFI CFA_XSP16 add(XSP16, 16)
        CFI VB load(1, XDATA, add(CFA_XSP16, literal(-15)))
        CFI DPL0 load(1, XDATA, add(CFA_XSP16, literal(-2)))
        CFI DPH0 load(1, XDATA, add(CFA_XSP16, literal(-1)))
        CFI R6 load(1, XDATA, add(CFA_XSP16, literal(-16)))
        CFI R7 load(1, XDATA, add(CFA_XSP16, literal(-6)))
        CFI V0 load(1, XDATA, add(CFA_XSP16, literal(-14)))
        CFI V1 load(1, XDATA, add(CFA_XSP16, literal(-13)))
        CFI V2 load(1, XDATA, add(CFA_XSP16, literal(-12)))
        CFI V3 load(1, XDATA, add(CFA_XSP16, literal(-11)))
        CFI V4 load(1, XDATA, add(CFA_XSP16, literal(-10)))
        CFI V5 load(1, XDATA, add(CFA_XSP16, literal(-9)))
        CFI V6 load(1, XDATA, add(CFA_XSP16, literal(-8)))
        CFI V7 load(1, XDATA, add(CFA_XSP16, literal(-7)))
        CFI ?BRET_EXT load(1, XDATA, add(CFA_XSP16, literal(-3)))
        CFI ?RET_HIGH load(1, XDATA, add(CFA_XSP16, literal(-4)))
        CFI ?RET_LOW load(1, XDATA, add(CFA_XSP16, literal(-5)))
        MOV     R7,#0x8
        LJMP    ?BANKED_LEAVE_XDATA
        CFI EndBlock cfiBlock43

        RSEG BANKED_CODE:CODE:NOROOT(0)
// __banked_func __xdata_reentrant void LCD_Clear(void)
LCD_Clear:
        CFI Block cfiBlock44 Using cfiCommon0
        CFI Function LCD_Clear
        CODE
        FUNCALL LCD_Clear, memset
        LOCFRAME ISTACK, 0, STACK
        LOCFRAME PSTACK, 0, STACK
        LOCFRAME XSTACK, 12, STACK
        LOCFRAME IOVERLAY, 0, STATIC
        LOCFRAME DOVERLAY, 0, STATIC
        ARGFRAME ISTACK, 0, STACK
        ARGFRAME PSTACK, 0, STACK
        ARGFRAME XSTACK, 12, STACK
        ARGFRAME IOVERLAY, 0, STATIC
        ARGFRAME DOVERLAY, 0, STATIC
        MOV     A,#-0xa
        LCALL   ?BANKED_ENTER_XDATA
        CFI DPH0 load(1, XDATA, add(CFA_XSP16, literal(-1)))
        CFI DPL0 load(1, XDATA, add(CFA_XSP16, literal(-2)))
        CFI ?BRET_EXT load(1, XDATA, add(CFA_XSP16, literal(-3)))
        CFI ?RET_HIGH load(1, XDATA, add(CFA_XSP16, literal(-4)))
        CFI ?RET_LOW load(1, XDATA, add(CFA_XSP16, literal(-5)))
        CFI R7 load(1, XDATA, add(CFA_XSP16, literal(-6)))
        CFI V1 load(1, XDATA, add(CFA_XSP16, literal(-7)))
        CFI V0 load(1, XDATA, add(CFA_XSP16, literal(-8)))
        CFI VB load(1, XDATA, add(CFA_XSP16, literal(-9)))
        CFI R6 load(1, XDATA, add(CFA_XSP16, literal(-10)))
        CFI CFA_SP SP+0
        CFI CFA_XSP16 add(XSP16, 10)
        ; Saved register size: 10
        ; Auto size: 0
        ; Setup parameters for call to function memset
        MOV     ?V0 + 0,#0x0
        MOV     ?V0 + 1,#0x4
        MOV     R0,#?V0 + 0
        LCALL   ?PUSH_XSTACK_I_TWO
        CFI CFA_XSP16 add(XSP16, 12)
        MOV     R4,#0x0
        MOV     R5,#0x0
        MOV     R2,#g_LcdBuff & 0xff
        MOV     R3,#(g_LcdBuff >> 8) & 0xff
        LCALL   ??memset?relay
        MOV     A,#0x2
        CFI EndBlock cfiBlock44
        REQUIRE ?Subroutine2
        ; // Fall through to label ?Subroutine2

        RSEG BANKED_CODE:CODE:NOROOT(0)
?Subroutine2:
        CFI Block cfiBlock45 Using cfiCommon0
        CFI NoFunction
        CFI CFA_SP SP+0
        CFI CFA_XSP16 add(XSP16, 12)
        CFI VB load(1, XDATA, add(CFA_XSP16, literal(-9)))
        CFI DPL0 load(1, XDATA, add(CFA_XSP16, literal(-2)))
        CFI DPH0 load(1, XDATA, add(CFA_XSP16, literal(-1)))
        CFI R6 load(1, XDATA, add(CFA_XSP16, literal(-10)))
        CFI R7 load(1, XDATA, add(CFA_XSP16, literal(-6)))
        CFI V0 load(1, XDATA, add(CFA_XSP16, literal(-8)))
        CFI V1 load(1, XDATA, add(CFA_XSP16, literal(-7)))
        CFI ?BRET_EXT load(1, XDATA, add(CFA_XSP16, literal(-3)))
        CFI ?RET_HIGH load(1, XDATA, add(CFA_XSP16, literal(-4)))
        CFI ?RET_LOW load(1, XDATA, add(CFA_XSP16, literal(-5)))
        CFI Invalid
        LCALL   ?DEALLOC_XSTACK8
        CFI EndBlock cfiBlock45
        REQUIRE ??Subroutine22_0
        ; // Fall through to label ??Subroutine22_0

        RSEG BANKED_CODE:CODE:NOROOT(0)
??Subroutine22_0:
        CFI Block cfiBlock46 Using cfiCommon0
        CFI NoFunction
        CFI CFA_SP SP+0
        CFI CFA_XSP16 add(XSP16, 10)
        CFI VB load(1, XDATA, add(CFA_XSP16, literal(-9)))
        CFI DPL0 load(1, XDATA, add(CFA_XSP16, literal(-2)))
        CFI DPH0 load(1, XDATA, add(CFA_XSP16, literal(-1)))
        CFI R6 load(1, XDATA, add(CFA_XSP16, literal(-10)))
        CFI R7 load(1, XDATA, add(CFA_XSP16, literal(-6)))
        CFI V0 load(1, XDATA, add(CFA_XSP16, literal(-8)))
        CFI V1 load(1, XDATA, add(CFA_XSP16, literal(-7)))
        CFI ?BRET_EXT load(1, XDATA, add(CFA_XSP16, literal(-3)))
        CFI ?RET_HIGH load(1, XDATA, add(CFA_XSP16, literal(-4)))
        CFI ?RET_LOW load(1, XDATA, add(CFA_XSP16, literal(-5)))
        MOV     R7,#0x2
        LJMP    ?BANKED_LEAVE_XDATA
        CFI EndBlock cfiBlock46
//    8 #include "SG90.h"
//    9 #include "MQ-2.h"
//   10 #include "out.h"
//   11 #include "RFP.h"
//   12 #include "OnBoard.h"
//   13 #include "stdio.h"
//   14 #include "string.h"
//   15 
//   16 #if 1
//   17   #define NUM_LED_1 1
//   18   #define NUM_LED_2 2
//   19 #elif 0
//   20   #define NUM_LED_1 3
//   21   #define NUM_LED_2 4
//   22 #else
//   23   #define NUM_LED_1 5
//   24   #define NUM_LED_2 6
//   25 #endif
//   26 
//   27 #define LEDNUM  2

        RSEG XDATA_I:XDATA:NOROOT(0)
//   28 uint8 ledIdList[LEDNUM]={NUM_LED_1,NUM_LED_2};
ledIdList:
        DATA16
        DS 2
        REQUIRE `?<Initializer for ledIdList>`
        REQUIRE __INIT_XDATA_I
//   29 
//   30 #define NUM_IN_CMD_LEDDEVICE 1
//   31 #define NUM_OUT_CMD_LEDDEVICE 2
//   32 extern int BZ,LZ;

        RSEG XDATA_Z:XDATA:NOROOT(0)
        DATA8
//   33 static unsigned char buffer[8];
buffer:
        DS 8
        REQUIRE __INIT_XDATA_Z

        RSEG XDATA_ROM_C:CONST:REORDER:NOROOT(0)
        DATA16
//   34 const cId_t ledDeviceInputCommandList[NUM_IN_CMD_LEDDEVICE]=
ledDeviceInputCommandList:
        DW 2
//   35                                 {TOGGLE_LED_CMD_ID};

        RSEG XDATA_ROM_C:CONST:REORDER:NOROOT(0)
        DATA32
//   36 const cId_t ledDeviceOutputCommandList[NUM_OUT_CMD_LEDDEVICE]=
ledDeviceOutputCommandList:
        DATA16
        DW 1
        DW 3
//   37                                 {LEDJOINNET_CMD_ID,HEART_BEAT_CMD_ID};

        RSEG XDATA_ROM_C:CONST:REORDER:NOROOT(0)
        DATA8
//   38 const SimpleDescriptionFormat_t zb_SimpleDesc=
zb_SimpleDesc:
        DB 1
        DATA16
        DW 1281
        DW 2
        DATA8
        DB 0
        DB 1
        DATA16
        DW ledDeviceInputCommandList
        DATA8
        DB 2
        DATA16
        DW ledDeviceOutputCommandList
//   39 {
//   40   ENDPOINT_ID_SMARTHOME,
//   41   PROFILE_ID_SMARTHOME,
//   42   DEVICE_ID_LEDDEVICE,
//   43   DEVIDE_VERSION_ID,
//   44   0,
//   45   NUM_IN_CMD_LEDDEVICE,
//   46   (cId_t*)ledDeviceInputCommandList,
//   47   NUM_OUT_CMD_LEDDEVICE,
//   48   (cId_t*)ledDeviceOutputCommandList  
//   49 };
//   50 /***********
//   51 
//   52 handle:
//   53 status:ZSUCCESS
//   54 ************/

        RSEG BANKED_CODE:CODE:NOROOT(0)
//   55 void zb_SendDataConfirm( uint8 handle, uint8 status )
zb_SendDataConfirm:
        CFI Block cfiBlock47 Using cfiCommon0
        CFI Function zb_SendDataConfirm
        CODE
//   56 {
        ; Saved register size: 0
        ; Auto size: 0
//   57   
//   58 }
        LJMP    ?BRET
        CFI EndBlock cfiBlock47
//   59 
//   60 /***********
//   61 
//   62 ************/

        RSEG BANKED_CODE:CODE:NOROOT(0)
//   63 void zb_ReceiveDataIndication( uint16 source, uint16 command, 
zb_ReceiveDataIndication:
        CFI Block cfiBlock48 Using cfiCommon0
        CFI Function zb_ReceiveDataIndication
        CODE
//   64                               uint16 len, uint8 *pData  )
//   65 {
        FUNCALL zb_ReceiveDataIndication, HalLedSet
        LOCFRAME ISTACK, 0, STACK
        LOCFRAME PSTACK, 0, STACK
        LOCFRAME XSTACK, 17, STACK
        LOCFRAME IOVERLAY, 0, STATIC
        LOCFRAME DOVERLAY, 0, STATIC
        ARGFRAME ISTACK, 0, STACK
        ARGFRAME PSTACK, 0, STACK
        ARGFRAME XSTACK, 17, STACK
        ARGFRAME IOVERLAY, 0, STATIC
        ARGFRAME DOVERLAY, 0, STATIC
        FUNCALL zb_ReceiveDataIndication, HalLedSet
        LOCFRAME ISTACK, 0, STACK
        LOCFRAME PSTACK, 0, STACK
        LOCFRAME XSTACK, 17, STACK
        LOCFRAME IOVERLAY, 0, STATIC
        LOCFRAME DOVERLAY, 0, STATIC
        ARGFRAME ISTACK, 0, STACK
        ARGFRAME PSTACK, 0, STACK
        ARGFRAME XSTACK, 17, STACK
        ARGFRAME IOVERLAY, 0, STATIC
        ARGFRAME DOVERLAY, 0, STATIC
        FUNCALL zb_ReceiveDataIndication, LCD_P8x16Str
        LOCFRAME ISTACK, 0, STACK
        LOCFRAME PSTACK, 0, STACK
        LOCFRAME XSTACK, 17, STACK
        LOCFRAME IOVERLAY, 0, STATIC
        LOCFRAME DOVERLAY, 0, STATIC
        ARGFRAME ISTACK, 0, STACK
        ARGFRAME PSTACK, 0, STACK
        ARGFRAME XSTACK, 17, STACK
        ARGFRAME IOVERLAY, 0, STATIC
        ARGFRAME DOVERLAY, 0, STATIC
        FUNCALL zb_ReceiveDataIndication, LCD_P8x16Str
        LOCFRAME ISTACK, 0, STACK
        LOCFRAME PSTACK, 0, STACK
        LOCFRAME XSTACK, 17, STACK
        LOCFRAME IOVERLAY, 0, STATIC
        LOCFRAME DOVERLAY, 0, STATIC
        ARGFRAME ISTACK, 0, STACK
        ARGFRAME PSTACK, 0, STACK
        ARGFRAME XSTACK, 17, STACK
        ARGFRAME IOVERLAY, 0, STATIC
        ARGFRAME DOVERLAY, 0, STATIC
        FUNCALL zb_ReceiveDataIndication, memset
        LOCFRAME ISTACK, 0, STACK
        LOCFRAME PSTACK, 0, STACK
        LOCFRAME XSTACK, 19, STACK
        LOCFRAME IOVERLAY, 0, STATIC
        LOCFRAME DOVERLAY, 0, STATIC
        ARGFRAME ISTACK, 0, STACK
        ARGFRAME PSTACK, 0, STACK
        ARGFRAME XSTACK, 19, STACK
        ARGFRAME IOVERLAY, 0, STATIC
        ARGFRAME DOVERLAY, 0, STATIC
        FUNCALL zb_ReceiveDataIndication, LCD_P16x16Ch
        LOCFRAME ISTACK, 0, STACK
        LOCFRAME PSTACK, 0, STACK
        LOCFRAME XSTACK, 17, STACK
        LOCFRAME IOVERLAY, 0, STATIC
        LOCFRAME DOVERLAY, 0, STATIC
        ARGFRAME ISTACK, 0, STACK
        ARGFRAME PSTACK, 0, STACK
        ARGFRAME XSTACK, 17, STACK
        ARGFRAME IOVERLAY, 0, STATIC
        ARGFRAME DOVERLAY, 0, STATIC
        FUNCALL zb_ReceiveDataIndication, LCD_P8x16Str
        LOCFRAME ISTACK, 0, STACK
        LOCFRAME PSTACK, 0, STACK
        LOCFRAME XSTACK, 17, STACK
        LOCFRAME IOVERLAY, 0, STATIC
        LOCFRAME DOVERLAY, 0, STATIC
        ARGFRAME ISTACK, 0, STACK
        ARGFRAME PSTACK, 0, STACK
        ARGFRAME XSTACK, 17, STACK
        ARGFRAME IOVERLAY, 0, STATIC
        ARGFRAME DOVERLAY, 0, STATIC
        FUNCALL zb_ReceiveDataIndication, sprintf
        LOCFRAME ISTACK, 0, STACK
        LOCFRAME PSTACK, 0, STACK
        LOCFRAME XSTACK, 19, STACK
        LOCFRAME IOVERLAY, 0, STATIC
        LOCFRAME DOVERLAY, 0, STATIC
        ARGFRAME ISTACK, 0, STACK
        ARGFRAME PSTACK, 0, STACK
        ARGFRAME XSTACK, 19, STACK
        ARGFRAME IOVERLAY, 0, STATIC
        ARGFRAME DOVERLAY, 0, STATIC
        FUNCALL zb_ReceiveDataIndication, LCD_P8x16Str
        LOCFRAME ISTACK, 0, STACK
        LOCFRAME PSTACK, 0, STACK
        LOCFRAME XSTACK, 17, STACK
        LOCFRAME IOVERLAY, 0, STATIC
        LOCFRAME DOVERLAY, 0, STATIC
        ARGFRAME ISTACK, 0, STACK
        ARGFRAME PSTACK, 0, STACK
        ARGFRAME XSTACK, 17, STACK
        ARGFRAME IOVERLAY, 0, STATIC
        ARGFRAME DOVERLAY, 0, STATIC
        FUNCALL zb_ReceiveDataIndication, LCD_P8x16Str
        LOCFRAME ISTACK, 0, STACK
        LOCFRAME PSTACK, 0, STACK
        LOCFRAME XSTACK, 17, STACK
        LOCFRAME IOVERLAY, 0, STATIC
        LOCFRAME DOVERLAY, 0, STATIC
        ARGFRAME ISTACK, 0, STACK
        ARGFRAME PSTACK, 0, STACK
        ARGFRAME XSTACK, 17, STACK
        ARGFRAME IOVERLAY, 0, STATIC
        ARGFRAME DOVERLAY, 0, STATIC
        FUNCALL zb_ReceiveDataIndication, sprintf
        LOCFRAME ISTACK, 0, STACK
        LOCFRAME PSTACK, 0, STACK
        LOCFRAME XSTACK, 19, STACK
        LOCFRAME IOVERLAY, 0, STATIC
        LOCFRAME DOVERLAY, 0, STATIC
        ARGFRAME ISTACK, 0, STACK
        ARGFRAME PSTACK, 0, STACK
        ARGFRAME XSTACK, 19, STACK
        ARGFRAME IOVERLAY, 0, STATIC
        ARGFRAME DOVERLAY, 0, STATIC
        FUNCALL zb_ReceiveDataIndication, LCD_P8x16Str
        LOCFRAME ISTACK, 0, STACK
        LOCFRAME PSTACK, 0, STACK
        LOCFRAME XSTACK, 17, STACK
        LOCFRAME IOVERLAY, 0, STATIC
        LOCFRAME DOVERLAY, 0, STATIC
        ARGFRAME ISTACK, 0, STACK
        ARGFRAME PSTACK, 0, STACK
        ARGFRAME XSTACK, 17, STACK
        ARGFRAME IOVERLAY, 0, STATIC
        ARGFRAME DOVERLAY, 0, STATIC
        FUNCALL zb_ReceiveDataIndication, LCD_P8x16Str
        LOCFRAME ISTACK, 0, STACK
        LOCFRAME PSTACK, 0, STACK
        LOCFRAME XSTACK, 17, STACK
        LOCFRAME IOVERLAY, 0, STATIC
        LOCFRAME DOVERLAY, 0, STATIC
        ARGFRAME ISTACK, 0, STACK
        ARGFRAME PSTACK, 0, STACK
        ARGFRAME XSTACK, 17, STACK
        ARGFRAME IOVERLAY, 0, STATIC
        ARGFRAME DOVERLAY, 0, STATIC
        FUNCALL zb_ReceiveDataIndication, sprintf
        LOCFRAME ISTACK, 0, STACK
        LOCFRAME PSTACK, 0, STACK
        LOCFRAME XSTACK, 19, STACK
        LOCFRAME IOVERLAY, 0, STATIC
        LOCFRAME DOVERLAY, 0, STATIC
        ARGFRAME ISTACK, 0, STACK
        ARGFRAME PSTACK, 0, STACK
        ARGFRAME XSTACK, 19, STACK
        ARGFRAME IOVERLAY, 0, STATIC
        ARGFRAME DOVERLAY, 0, STATIC
        FUNCALL zb_ReceiveDataIndication, LCD_P8x16Str
        LOCFRAME ISTACK, 0, STACK
        LOCFRAME PSTACK, 0, STACK
        LOCFRAME XSTACK, 17, STACK
        LOCFRAME IOVERLAY, 0, STATIC
        LOCFRAME DOVERLAY, 0, STATIC
        ARGFRAME ISTACK, 0, STACK
        ARGFRAME PSTACK, 0, STACK
        ARGFRAME XSTACK, 17, STACK
        ARGFRAME IOVERLAY, 0, STATIC
        ARGFRAME DOVERLAY, 0, STATIC
        FUNCALL zb_ReceiveDataIndication, LCD_P8x16Str
        LOCFRAME ISTACK, 0, STACK
        LOCFRAME PSTACK, 0, STACK
        LOCFRAME XSTACK, 17, STACK
        LOCFRAME IOVERLAY, 0, STATIC
        LOCFRAME DOVERLAY, 0, STATIC
        ARGFRAME ISTACK, 0, STACK
        ARGFRAME PSTACK, 0, STACK
        ARGFRAME XSTACK, 17, STACK
        ARGFRAME IOVERLAY, 0, STATIC
        ARGFRAME DOVERLAY, 0, STATIC
        FUNCALL zb_ReceiveDataIndication, LCD_P16x16Ch
        LOCFRAME ISTACK, 0, STACK
        LOCFRAME PSTACK, 0, STACK
        LOCFRAME XSTACK, 17, STACK
        LOCFRAME IOVERLAY, 0, STATIC
        LOCFRAME DOVERLAY, 0, STATIC
        ARGFRAME ISTACK, 0, STACK
        ARGFRAME PSTACK, 0, STACK
        ARGFRAME XSTACK, 17, STACK
        ARGFRAME IOVERLAY, 0, STATIC
        ARGFRAME DOVERLAY, 0, STATIC
        FUNCALL zb_ReceiveDataIndication, LCD_P16x16Ch
        LOCFRAME ISTACK, 0, STACK
        LOCFRAME PSTACK, 0, STACK
        LOCFRAME XSTACK, 17, STACK
        LOCFRAME IOVERLAY, 0, STATIC
        LOCFRAME DOVERLAY, 0, STATIC
        ARGFRAME ISTACK, 0, STACK
        ARGFRAME PSTACK, 0, STACK
        ARGFRAME XSTACK, 17, STACK
        ARGFRAME IOVERLAY, 0, STATIC
        ARGFRAME DOVERLAY, 0, STATIC
        FUNCALL zb_ReceiveDataIndication, LCD_P8x16Str
        LOCFRAME ISTACK, 0, STACK
        LOCFRAME PSTACK, 0, STACK
        LOCFRAME XSTACK, 17, STACK
        LOCFRAME IOVERLAY, 0, STATIC
        LOCFRAME DOVERLAY, 0, STATIC
        ARGFRAME ISTACK, 0, STACK
        ARGFRAME PSTACK, 0, STACK
        ARGFRAME XSTACK, 17, STACK
        ARGFRAME IOVERLAY, 0, STATIC
        ARGFRAME DOVERLAY, 0, STATIC
        FUNCALL zb_ReceiveDataIndication, sprintf
        LOCFRAME ISTACK, 0, STACK
        LOCFRAME PSTACK, 0, STACK
        LOCFRAME XSTACK, 19, STACK
        LOCFRAME IOVERLAY, 0, STATIC
        LOCFRAME DOVERLAY, 0, STATIC
        ARGFRAME ISTACK, 0, STACK
        ARGFRAME PSTACK, 0, STACK
        ARGFRAME XSTACK, 19, STACK
        ARGFRAME IOVERLAY, 0, STATIC
        ARGFRAME DOVERLAY, 0, STATIC
        FUNCALL zb_ReceiveDataIndication, LCD_P8x16Str
        LOCFRAME ISTACK, 0, STACK
        LOCFRAME PSTACK, 0, STACK
        LOCFRAME XSTACK, 17, STACK
        LOCFRAME IOVERLAY, 0, STATIC
        LOCFRAME DOVERLAY, 0, STATIC
        ARGFRAME ISTACK, 0, STACK
        ARGFRAME PSTACK, 0, STACK
        ARGFRAME XSTACK, 17, STACK
        ARGFRAME IOVERLAY, 0, STATIC
        ARGFRAME DOVERLAY, 0, STATIC
        FUNCALL zb_ReceiveDataIndication, LCD_P8x16Str
        LOCFRAME ISTACK, 0, STACK
        LOCFRAME PSTACK, 0, STACK
        LOCFRAME XSTACK, 17, STACK
        LOCFRAME IOVERLAY, 0, STATIC
        LOCFRAME DOVERLAY, 0, STATIC
        ARGFRAME ISTACK, 0, STACK
        ARGFRAME PSTACK, 0, STACK
        ARGFRAME XSTACK, 17, STACK
        ARGFRAME IOVERLAY, 0, STATIC
        ARGFRAME DOVERLAY, 0, STATIC
        FUNCALL zb_ReceiveDataIndication, sprintf
        LOCFRAME ISTACK, 0, STACK
        LOCFRAME PSTACK, 0, STACK
        LOCFRAME XSTACK, 19, STACK
        LOCFRAME IOVERLAY, 0, STATIC
        LOCFRAME DOVERLAY, 0, STATIC
        ARGFRAME ISTACK, 0, STACK
        ARGFRAME PSTACK, 0, STACK
        ARGFRAME XSTACK, 19, STACK
        ARGFRAME IOVERLAY, 0, STATIC
        ARGFRAME DOVERLAY, 0, STATIC
        FUNCALL zb_ReceiveDataIndication, LCD_P8x16Str
        LOCFRAME ISTACK, 0, STACK
        LOCFRAME PSTACK, 0, STACK
        LOCFRAME XSTACK, 17, STACK
        LOCFRAME IOVERLAY, 0, STATIC
        LOCFRAME DOVERLAY, 0, STATIC
        ARGFRAME ISTACK, 0, STACK
        ARGFRAME PSTACK, 0, STACK
        ARGFRAME XSTACK, 17, STACK
        ARGFRAME IOVERLAY, 0, STATIC
        ARGFRAME DOVERLAY, 0, STATIC
        FUNCALL zb_ReceiveDataIndication, LCD_P8x16Str
        LOCFRAME ISTACK, 0, STACK
        LOCFRAME PSTACK, 0, STACK
        LOCFRAME XSTACK, 17, STACK
        LOCFRAME IOVERLAY, 0, STATIC
        LOCFRAME DOVERLAY, 0, STATIC
        ARGFRAME ISTACK, 0, STACK
        ARGFRAME PSTACK, 0, STACK
        ARGFRAME XSTACK, 17, STACK
        ARGFRAME IOVERLAY, 0, STATIC
        ARGFRAME DOVERLAY, 0, STATIC
        FUNCALL zb_ReceiveDataIndication, LCD_P16x16Ch
        LOCFRAME ISTACK, 0, STACK
        LOCFRAME PSTACK, 0, STACK
        LOCFRAME XSTACK, 17, STACK
        LOCFRAME IOVERLAY, 0, STATIC
        LOCFRAME DOVERLAY, 0, STATIC
        ARGFRAME ISTACK, 0, STACK
        ARGFRAME PSTACK, 0, STACK
        ARGFRAME XSTACK, 17, STACK
        ARGFRAME IOVERLAY, 0, STATIC
        ARGFRAME DOVERLAY, 0, STATIC
        FUNCALL zb_ReceiveDataIndication, SG90start
        LOCFRAME ISTACK, 0, STACK
        LOCFRAME PSTACK, 0, STACK
        LOCFRAME XSTACK, 17, STACK
        LOCFRAME IOVERLAY, 0, STATIC
        LOCFRAME DOVERLAY, 0, STATIC
        ARGFRAME ISTACK, 0, STACK
        ARGFRAME PSTACK, 0, STACK
        ARGFRAME XSTACK, 17, STACK
        ARGFRAME IOVERLAY, 0, STATIC
        ARGFRAME DOVERLAY, 0, STATIC
        FUNCALL zb_ReceiveDataIndication, LCD_P8x16Str
        LOCFRAME ISTACK, 0, STACK
        LOCFRAME PSTACK, 0, STACK
        LOCFRAME XSTACK, 17, STACK
        LOCFRAME IOVERLAY, 0, STATIC
        LOCFRAME DOVERLAY, 0, STATIC
        ARGFRAME ISTACK, 0, STACK
        ARGFRAME PSTACK, 0, STACK
        ARGFRAME XSTACK, 17, STACK
        ARGFRAME IOVERLAY, 0, STATIC
        ARGFRAME DOVERLAY, 0, STATIC
        FUNCALL zb_ReceiveDataIndication, LCD_P8x16Str
        LOCFRAME ISTACK, 0, STACK
        LOCFRAME PSTACK, 0, STACK
        LOCFRAME XSTACK, 17, STACK
        LOCFRAME IOVERLAY, 0, STATIC
        LOCFRAME DOVERLAY, 0, STATIC
        ARGFRAME ISTACK, 0, STACK
        ARGFRAME PSTACK, 0, STACK
        ARGFRAME XSTACK, 17, STACK
        ARGFRAME IOVERLAY, 0, STATIC
        ARGFRAME DOVERLAY, 0, STATIC
        FUNCALL zb_ReceiveDataIndication, memset
        LOCFRAME ISTACK, 0, STACK
        LOCFRAME PSTACK, 0, STACK
        LOCFRAME XSTACK, 19, STACK
        LOCFRAME IOVERLAY, 0, STATIC
        LOCFRAME DOVERLAY, 0, STATIC
        ARGFRAME ISTACK, 0, STACK
        ARGFRAME PSTACK, 0, STACK
        ARGFRAME XSTACK, 19, STACK
        ARGFRAME IOVERLAY, 0, STATIC
        ARGFRAME DOVERLAY, 0, STATIC
        FUNCALL zb_ReceiveDataIndication, LCD_P16x16Ch
        LOCFRAME ISTACK, 0, STACK
        LOCFRAME PSTACK, 0, STACK
        LOCFRAME XSTACK, 17, STACK
        LOCFRAME IOVERLAY, 0, STATIC
        LOCFRAME DOVERLAY, 0, STATIC
        ARGFRAME ISTACK, 0, STACK
        ARGFRAME PSTACK, 0, STACK
        ARGFRAME XSTACK, 17, STACK
        ARGFRAME IOVERLAY, 0, STATIC
        ARGFRAME DOVERLAY, 0, STATIC
        FUNCALL zb_ReceiveDataIndication, Onboard_wait
        LOCFRAME ISTACK, 0, STACK
        LOCFRAME PSTACK, 0, STACK
        LOCFRAME XSTACK, 17, STACK
        LOCFRAME IOVERLAY, 0, STATIC
        LOCFRAME DOVERLAY, 0, STATIC
        ARGFRAME ISTACK, 0, STACK
        ARGFRAME PSTACK, 0, STACK
        ARGFRAME XSTACK, 17, STACK
        ARGFRAME IOVERLAY, 0, STATIC
        ARGFRAME DOVERLAY, 0, STATIC
        FUNCALL zb_ReceiveDataIndication, LCD_CLS
        LOCFRAME ISTACK, 0, STACK
        LOCFRAME PSTACK, 0, STACK
        LOCFRAME XSTACK, 17, STACK
        LOCFRAME IOVERLAY, 0, STATIC
        LOCFRAME DOVERLAY, 0, STATIC
        ARGFRAME ISTACK, 0, STACK
        ARGFRAME PSTACK, 0, STACK
        ARGFRAME XSTACK, 17, STACK
        ARGFRAME IOVERLAY, 0, STATIC
        ARGFRAME DOVERLAY, 0, STATIC
        FUNCALL zb_ReceiveDataIndication, Draw_BMP
        LOCFRAME ISTACK, 0, STACK
        LOCFRAME PSTACK, 0, STACK
        LOCFRAME XSTACK, 19, STACK
        LOCFRAME IOVERLAY, 0, STATIC
        LOCFRAME DOVERLAY, 0, STATIC
        ARGFRAME ISTACK, 0, STACK
        ARGFRAME PSTACK, 0, STACK
        ARGFRAME XSTACK, 19, STACK
        ARGFRAME IOVERLAY, 0, STATIC
        ARGFRAME DOVERLAY, 0, STATIC
        FUNCALL zb_ReceiveDataIndication, Onboard_wait
        LOCFRAME ISTACK, 0, STACK
        LOCFRAME PSTACK, 0, STACK
        LOCFRAME XSTACK, 17, STACK
        LOCFRAME IOVERLAY, 0, STATIC
        LOCFRAME DOVERLAY, 0, STATIC
        ARGFRAME ISTACK, 0, STACK
        ARGFRAME PSTACK, 0, STACK
        ARGFRAME XSTACK, 17, STACK
        ARGFRAME IOVERLAY, 0, STATIC
        ARGFRAME DOVERLAY, 0, STATIC
        FUNCALL zb_ReceiveDataIndication, HalLedSet
        LOCFRAME ISTACK, 0, STACK
        LOCFRAME PSTACK, 0, STACK
        LOCFRAME XSTACK, 17, STACK
        LOCFRAME IOVERLAY, 0, STATIC
        LOCFRAME DOVERLAY, 0, STATIC
        ARGFRAME ISTACK, 0, STACK
        ARGFRAME PSTACK, 0, STACK
        ARGFRAME XSTACK, 17, STACK
        ARGFRAME IOVERLAY, 0, STATIC
        ARGFRAME DOVERLAY, 0, STATIC
        FUNCALL zb_ReceiveDataIndication, HalLedSet
        LOCFRAME ISTACK, 0, STACK
        LOCFRAME PSTACK, 0, STACK
        LOCFRAME XSTACK, 17, STACK
        LOCFRAME IOVERLAY, 0, STATIC
        LOCFRAME DOVERLAY, 0, STATIC
        ARGFRAME ISTACK, 0, STACK
        ARGFRAME PSTACK, 0, STACK
        ARGFRAME XSTACK, 17, STACK
        ARGFRAME IOVERLAY, 0, STATIC
        ARGFRAME DOVERLAY, 0, STATIC
        MOV     A,#-0x10
        LCALL   ?BANKED_ENTER_XDATA
        CFI DPH0 load(1, XDATA, add(CFA_XSP16, literal(-1)))
        CFI DPL0 load(1, XDATA, add(CFA_XSP16, literal(-2)))
        CFI ?BRET_EXT load(1, XDATA, add(CFA_XSP16, literal(-3)))
        CFI ?RET_HIGH load(1, XDATA, add(CFA_XSP16, literal(-4)))
        CFI ?RET_LOW load(1, XDATA, add(CFA_XSP16, literal(-5)))
        CFI R7 load(1, XDATA, add(CFA_XSP16, literal(-6)))
        CFI V7 load(1, XDATA, add(CFA_XSP16, literal(-7)))
        CFI V6 load(1, XDATA, add(CFA_XSP16, literal(-8)))
        CFI V5 load(1, XDATA, add(CFA_XSP16, literal(-9)))
        CFI V4 load(1, XDATA, add(CFA_XSP16, literal(-10)))
        CFI V3 load(1, XDATA, add(CFA_XSP16, literal(-11)))
        CFI V2 load(1, XDATA, add(CFA_XSP16, literal(-12)))
        CFI V1 load(1, XDATA, add(CFA_XSP16, literal(-13)))
        CFI V0 load(1, XDATA, add(CFA_XSP16, literal(-14)))
        CFI VB load(1, XDATA, add(CFA_XSP16, literal(-15)))
        CFI R6 load(1, XDATA, add(CFA_XSP16, literal(-16)))
        CFI CFA_SP SP+0
        CFI CFA_XSP16 add(XSP16, 16)
        ; Saved register size: 16
        ; Auto size: 1
        MOV     A,#-0x1
        LCALL   ?ALLOC_XSTACK8
        CFI CFA_XSP16 add(XSP16, 17)
        MOV     A,#0x13
        LCALL   ?XSTACK_DISP0_8
        MOVX    A,@DPTR
        MOV     R0,A
        INC     DPTR
        MOVX    A,@DPTR
        MOV     R1,A
//   66   if(command==TOGGLE_LED_CMD_ID)
        MOV     A,#0x2
        XRL     A,R4
        JNZ     ??zb_ReceiveDataIndication_0
        MOV     A,R5
??zb_ReceiveDataIndication_0:
        JZ      $+5
        LJMP    ??zb_ReceiveDataIndication_1 & 0xFFFF
//   67   {
//   68     uint8 led_num=pData[0];
        MOV     DPL,R0
        MOV     DPH,R1
        MOVX    A,@DPTR
        MOV     R2,A
//   69     uint8 led_status=pData[1];
        INC     DPTR
        MOVX    A,@DPTR
        MOV     R3,A
//   70     //*
//   71     uint8 unit=pData[2];
        MOV     DPL,R0
        MOV     DPH,R1
        INC     DPTR
        INC     DPTR
        MOVX    A,@DPTR
        MOV     ?V0 + 3,A
//   72     uint8 ten=pData[3];
        MOV     DPL,R0
        MOV     DPH,R1
        INC     DPTR
        INC     DPTR
        INC     DPTR
        MOVX    A,@DPTR
        MOV     ?V0 + 2,A
//   73     uint8 hundred=pData[4];
        MOV     DPL,R0
        MOV     DPH,R1
        INC     DPTR
        INC     DPTR
        INC     DPTR
        INC     DPTR
        MOVX    A,@DPTR
        MOV     ?V0 + 1,A
//   74     uint8 unit1=pData[5];
        MOV     DPL,R0
        MOV     DPH,R1
        INC     DPTR
        INC     DPTR
        INC     DPTR
        INC     DPTR
        INC     DPTR
        MOVX    A,@DPTR
        MOV     ?V0 + 4,A
//   75     uint8 ten1=pData[6];
        MOV     DPL,R0
        MOV     DPH,R1
        INC     DPTR
        INC     DPTR
        INC     DPTR
        INC     DPTR
        INC     DPTR
        INC     DPTR
        MOVX    A,@DPTR
        MOV     ?V0 + 0,A
//   76     //*/
//   77     if(led_num==NUM_LED_1)
        MOV     A,#0x1
        XRL     A,R2
        JZ      $+5
        LJMP    ??zb_ReceiveDataIndication_2 & 0xFFFF
//   78     {
//   79       if(led_status==1)
        MOV     A,#0x1
        XRL     A,R3
        JNZ     ??zb_ReceiveDataIndication_3
//   80         HalLedSet(HAL_LED_1,HAL_LED_MODE_ON);
        ; Setup parameters for call to function HalLedSet
        MOV     R2,#0x1
??zb_ReceiveDataIndication_4:
        MOV     R1,#0x1
        LJMP    ??zb_ReceiveDataIndication_5 & 0xFFFF
//   81       else if(led_status==0)
??zb_ReceiveDataIndication_3:
        MOV     A,R3
        JNZ     ??zb_ReceiveDataIndication_6
//   82         HalLedSet(HAL_LED_1,HAL_LED_MODE_OFF);
        ; Setup parameters for call to function HalLedSet
        MOV     R2,#0x0
        SJMP    ??zb_ReceiveDataIndication_4
//   83       //*
//   84       else if(led_status==2)
??zb_ReceiveDataIndication_6:
        MOV     A,#0x2
        XRL     A,R3
        JZ      $+5
        LJMP    ??zb_ReceiveDataIndication_7 & 0xFFFF
//   85       {
//   86         LCD_P8x16Str(8,0, "ID:");
        ; Setup parameters for call to function LCD_P8x16Str
        LCALL   ?Subroutine14 & 0xFFFF
//   87         LCD_P8x16Str(33,0,buffer);    
//   88         memset(buffer,0,8); 
??CrossCallReturnLabel_24:
        ; Setup parameters for call to function memset
        MOV     ?V0 + 6,#0x8
        MOV     ?V0 + 7,#0x0
        MOV     R0,#?V0 + 6
        LCALL   ?PUSH_XSTACK_I_TWO
        CFI CFA_XSP16 add(XSP16, 19)
        MOV     R4,#0x0
        MOV     R5,#0x0
        MOV     R2,#buffer & 0xff
        MOV     R3,#(buffer >> 8) & 0xff
        LCALL   ??memset?relay
        MOV     A,#0x2
        LCALL   ?DEALLOC_XSTACK8
        CFI CFA_XSP16 add(XSP16, 17)
//   89         for(int i=0; i<2; i++) 
        MOV     R6,#0x0
        MOV     R7,#0x0
//   90         {
//   91           LCD_P16x16Ch(16*i+8, 3, i);   
??zb_ReceiveDataIndication_8:
        ; Setup parameters for call to function LCD_P16x16Ch
        LCALL   ?Subroutine3 & 0xFFFF
//   92         }
??CrossCallReturnLabel_51:
        SUBB    A,#0x2
        LCALL   ?Subroutine18 & 0xFFFF
??CrossCallReturnLabel_30:
        JC      ??zb_ReceiveDataIndication_8
//   93         LCD_P8x16Str(40,3, ":");
        ; Setup parameters for call to function LCD_P8x16Str
        MOV     R4,#`?<Constant ":">` & 0xff
        MOV     R5,#(`?<Constant ":">` >> 8) & 0xff
        MOV     R2,#0x3
        MOV     R1,#0x28
        LCALL   ??LCD_P8x16Str?relay
//   94         unsigned char buffe[1];
//   95         sprintf(buffe,"%d",unit);
        ; Setup parameters for call to function sprintf
        MOV     ?V0 + 6,?V0 + 3
        MOV     R0,#?V0 + 6
        LCALL   ?PUSH_XSTACK_I_TWO
        CFI CFA_XSP16 add(XSP16, 19)
        MOV     R4,#`?<Constant "%d">` & 0xff
        MOV     R5,#(`?<Constant "%d">` >> 8) & 0xff
        MOV     A,#0x2
        LCALL   ?XSTACK_DISP0_8
        LCALL   ?Subroutine19 & 0xFFFF
??CrossCallReturnLabel_34:
        LCALL   ?DEALLOC_XSTACK8
        CFI CFA_XSP16 add(XSP16, 17)
//   96         if(unit!=10)
        MOV     A,#0xa
        XRL     A,?V0 + 3
        JZ      ??zb_ReceiveDataIndication_9
//   97           LCD_P8x16Str(64,3,buffe);
        ; Setup parameters for call to function LCD_P8x16Str
        MOV     DPL,?XSP + 0
        MOV     DPH,?XSP + 1
        MOV     R4,DPL
        MOV     R5,DPH
        SJMP    ??zb_ReceiveDataIndication_10
//   98         else
//   99           LCD_P8x16Str(64,3,"0");
??zb_ReceiveDataIndication_9:
        ; Setup parameters for call to function LCD_P8x16Str
        MOV     R4,#`?<Constant "0">` & 0xff
        MOV     R5,#(`?<Constant "0">` >> 8) & 0xff
??zb_ReceiveDataIndication_10:
        MOV     R2,#0x3
        MOV     R1,#0x40
        LCALL   ??LCD_P8x16Str?relay
//  100         sprintf(buffe,"%d",ten);
        ; Setup parameters for call to function sprintf
        MOV     ?V0 + 6,?V0 + 2
        MOV     R0,#?V0 + 6
        LCALL   ?PUSH_XSTACK_I_TWO
        CFI CFA_XSP16 add(XSP16, 19)
        MOV     R4,#`?<Constant "%d">` & 0xff
        MOV     R5,#(`?<Constant "%d">` >> 8) & 0xff
        MOV     A,#0x2
        LCALL   ?XSTACK_DISP0_8
        LCALL   ?Subroutine19 & 0xFFFF
??CrossCallReturnLabel_35:
        LCALL   ?DEALLOC_XSTACK8
        CFI CFA_XSP16 add(XSP16, 17)
//  101         if(ten!=10)
        MOV     A,#0xa
        XRL     A,?V0 + 2
        JZ      ??zb_ReceiveDataIndication_11
//  102           LCD_P8x16Str(56,3,buffe);
        ; Setup parameters for call to function LCD_P8x16Str
        MOV     DPL,?XSP + 0
        MOV     DPH,?XSP + 1
        MOV     R4,DPL
        MOV     R5,DPH
        SJMP    ??zb_ReceiveDataIndication_12
//  103         else
//  104           LCD_P8x16Str(56,3,"0");
??zb_ReceiveDataIndication_11:
        ; Setup parameters for call to function LCD_P8x16Str
        MOV     R4,#`?<Constant "0">` & 0xff
        MOV     R5,#(`?<Constant "0">` >> 8) & 0xff
??zb_ReceiveDataIndication_12:
        MOV     R2,#0x3
        MOV     R1,#0x38
        LCALL   ??LCD_P8x16Str?relay
//  105         sprintf(buffe,"%d",hundred);
        ; Setup parameters for call to function sprintf
        MOV     ?V0 + 2,?V0 + 1
        MOV     ?V0 + 3,#0x0
        MOV     R0,#?V0 + 2
        LCALL   ?PUSH_XSTACK_I_TWO
        CFI CFA_XSP16 add(XSP16, 19)
        MOV     R4,#`?<Constant "%d">` & 0xff
        MOV     R5,#(`?<Constant "%d">` >> 8) & 0xff
        MOV     A,#0x2
        LCALL   ?XSTACK_DISP0_8
        LCALL   ?Subroutine19 & 0xFFFF
??CrossCallReturnLabel_36:
        LCALL   ?DEALLOC_XSTACK8
        CFI CFA_XSP16 add(XSP16, 17)
//  106         if(hundred!=10)
        MOV     A,#0xa
        XRL     A,?V0 + 1
        JZ      ??zb_ReceiveDataIndication_13
//  107           LCD_P8x16Str(48,3,buffe);
        ; Setup parameters for call to function LCD_P8x16Str
        MOV     DPL,?XSP + 0
        MOV     DPH,?XSP + 1
        MOV     R4,DPL
        MOV     R5,DPH
        SJMP    ??zb_ReceiveDataIndication_14
//  108         else
//  109           LCD_P8x16Str(48,3,"0");
??zb_ReceiveDataIndication_13:
        ; Setup parameters for call to function LCD_P8x16Str
        MOV     R4,#`?<Constant "0">` & 0xff
        MOV     R5,#(`?<Constant "0">` >> 8) & 0xff
??zb_ReceiveDataIndication_14:
        MOV     R2,#0x3
        MOV     R1,#0x30
        LCALL   ??LCD_P8x16Str?relay
//  110         LCD_P16x16Ch(72, 3, 4);
        ; Setup parameters for call to function LCD_P16x16Ch
        MOV     R3,#0x4
        MOV     R2,#0x3
        MOV     R1,#0x48
        LCALL   ??LCD_P16x16Ch?relay
//  111         for(int j=0,k=5;k<9;j++,k++)
        MOV     ?V0 + 2,#0x0
        MOV     R6,#0x5
        MOV     R7,#0x0
//  112         {
//  113           LCD_P16x16Ch(16*j+8, 6, k);
??zb_ReceiveDataIndication_15:
        ; Setup parameters for call to function LCD_P16x16Ch
        MOV     A,R6
        MOV     R3,A
        MOV     R2,#0x6
        MOV     A,?V0 + 2
        LCALL   ?Subroutine20 & 0xFFFF
//  114         }
??CrossCallReturnLabel_39:
        MOV     A,?V0 + 2
        INC     A
        MOV     ?V0 + 2,A
        LCALL   ??Subroutine25_0 & 0xFFFF
??CrossCallReturnLabel_53:
        SUBB    A,#0x9
        LCALL   ?Subroutine18 & 0xFFFF
??CrossCallReturnLabel_31:
        JC      ??zb_ReceiveDataIndication_15
//  115         LCD_P8x16Str(72,6, ":");
        ; Setup parameters for call to function LCD_P8x16Str
        MOV     R4,#`?<Constant ":">` & 0xff
        MOV     R5,#(`?<Constant ":">` >> 8) & 0xff
        MOV     R2,#0x6
        MOV     R1,#0x48
        LCALL   ??LCD_P8x16Str?relay
//  116         sprintf(buffe,"%d",unit1);
        ; Setup parameters for call to function sprintf
        MOV     ?V0 + 2,?V0 + 4
        MOV     R0,#?V0 + 2
        LCALL   ?PUSH_XSTACK_I_TWO
        CFI CFA_XSP16 add(XSP16, 19)
        MOV     R4,#`?<Constant "%d">` & 0xff
        MOV     R5,#(`?<Constant "%d">` >> 8) & 0xff
        MOV     A,#0x2
        LCALL   ?XSTACK_DISP0_8
        LCALL   ?Subroutine19 & 0xFFFF
??CrossCallReturnLabel_37:
        LCALL   ?DEALLOC_XSTACK8
        CFI CFA_XSP16 add(XSP16, 17)
//  117         if(unit1!=10)
        MOV     A,#0xa
        XRL     A,?V0 + 4
        JZ      ??zb_ReceiveDataIndication_16
//  118           LCD_P8x16Str(88,6,buffe);
        ; Setup parameters for call to function LCD_P8x16Str
        MOV     DPL,?XSP + 0
        MOV     DPH,?XSP + 1
        MOV     R4,DPL
        MOV     R5,DPH
        SJMP    ??zb_ReceiveDataIndication_17
//  119         else
//  120           LCD_P8x16Str(88,6,"0");
??zb_ReceiveDataIndication_16:
        ; Setup parameters for call to function LCD_P8x16Str
        MOV     R4,#`?<Constant "0">` & 0xff
        MOV     R5,#(`?<Constant "0">` >> 8) & 0xff
??zb_ReceiveDataIndication_17:
        MOV     R2,#0x6
        MOV     R1,#0x58
        LCALL   ??LCD_P8x16Str?relay
//  121         sprintf(buffe,"%d",ten1);
        ; Setup parameters for call to function sprintf
        MOV     ?V0 + 2,?V0 + 0
        MOV     R0,#?V0 + 2
        LCALL   ?PUSH_XSTACK_I_TWO
        CFI CFA_XSP16 add(XSP16, 19)
        MOV     R4,#`?<Constant "%d">` & 0xff
        MOV     R5,#(`?<Constant "%d">` >> 8) & 0xff
        MOV     A,#0x2
        LCALL   ?XSTACK_DISP0_8
        LCALL   ?Subroutine19 & 0xFFFF
??CrossCallReturnLabel_38:
        LCALL   ?DEALLOC_XSTACK8
        CFI CFA_XSP16 add(XSP16, 17)
//  122         if(ten1!=10)
        MOV     A,#0xa
        XRL     A,?V0 + 0
        JZ      ??zb_ReceiveDataIndication_18
//  123           LCD_P8x16Str(80,6,buffe);
        ; Setup parameters for call to function LCD_P8x16Str
        MOV     DPL,?XSP + 0
        MOV     DPH,?XSP + 1
        MOV     R4,DPL
        MOV     R5,DPH
        SJMP    ??zb_ReceiveDataIndication_19
//  124         else
//  125           LCD_P8x16Str(80,6,"0");
??zb_ReceiveDataIndication_18:
        ; Setup parameters for call to function LCD_P8x16Str
        MOV     R4,#`?<Constant "0">` & 0xff
        MOV     R5,#(`?<Constant "0">` >> 8) & 0xff
??zb_ReceiveDataIndication_19:
        MOV     R2,#0x6
        MOV     R1,#0x50
        LCALL   ??LCD_P8x16Str?relay
//  126         LCD_P16x16Ch(96, 6, 9);
        ; Setup parameters for call to function LCD_P16x16Ch
        MOV     R3,#0x9
        MOV     R2,#0x6
        MOV     R1,#0x60
        LCALL   ??LCD_P16x16Ch?relay
//  127         SG90start(); 
        ; Setup parameters for call to function SG90start
        LCALL   ??SG90start?relay
        SJMP    ??zb_ReceiveDataIndication_20
//  128         LCD_CLS(); 
//  129       }
//  130       else if(led_status==3)
??zb_ReceiveDataIndication_7:
        MOV     A,#0x3
        XRL     A,R3
        JNZ     ??zb_ReceiveDataIndication_21
//  131       {
//  132         LCD_P8x16Str(8,0, "ID:");
        ; Setup parameters for call to function LCD_P8x16Str
        LCALL   ?Subroutine14 & 0xFFFF
//  133         LCD_P8x16Str(33,0,buffer);    
//  134         memset(buffer,0,8); 
??CrossCallReturnLabel_25:
        ; Setup parameters for call to function memset
        MOV     ?V0 + 0,#0x8
        MOV     ?V0 + 1,#0x0
        MOV     R0,#?V0 + 0
        LCALL   ?PUSH_XSTACK_I_TWO
        CFI CFA_XSP16 add(XSP16, 19)
        MOV     R4,#0x0
        MOV     R5,#0x0
        MOV     R2,#buffer & 0xff
        MOV     R3,#(buffer >> 8) & 0xff
        LCALL   ??memset?relay
        MOV     A,#0x2
        LCALL   ?DEALLOC_XSTACK8
        CFI CFA_XSP16 add(XSP16, 17)
//  135         for(int i=0; i<4; i++) 
        MOV     R6,#0x0
        MOV     R7,#0x0
//  136         {
//  137           LCD_P16x16Ch(16*i+8, 3, i);   
??zb_ReceiveDataIndication_22:
        ; Setup parameters for call to function LCD_P16x16Ch
        LCALL   ?Subroutine3 & 0xFFFF
//  138         }
??CrossCallReturnLabel_52:
        SUBB    A,#0x4
        LCALL   ?Subroutine18 & 0xFFFF
??CrossCallReturnLabel_32:
        JC      ??zb_ReceiveDataIndication_22
//  139         for(int a=0;a<100;a++)
        MOV     R6,#0x64
//  140         {
//  141           MicroWait(10000);
??zb_ReceiveDataIndication_23:
        ; Setup parameters for call to function Onboard_wait
        MOV     R2,#0x10
        MOV     R3,#0x27
        LCALL   ??Onboard_wait?relay
//  142         }
        DEC     R6
        MOV     A,R6
        JNZ     ??zb_ReceiveDataIndication_23
//  143         LCD_CLS(); 
??zb_ReceiveDataIndication_20:
        ; Setup parameters for call to function LCD_CLS
        LCALL   ??LCD_CLS?relay
        SJMP    ??zb_ReceiveDataIndication_1
//  144       }
//  145       else if(led_status==4)
??zb_ReceiveDataIndication_21:
        MOV     A,#0x4
        XRL     A,R3
        JNZ     ??zb_ReceiveDataIndication_1
//  146       {
//  147         Draw_BMP(0,0,127,7,BMP2);
        ; Setup parameters for call to function Draw_BMP
        MOV     ?V0 + 0,#BMP2 & 0xff
        MOV     ?V0 + 1,#(BMP2 >> 8) & 0xff
        MOV     R0,#?V0 + 0
        LCALL   ?PUSH_XSTACK_I_TWO
        CFI CFA_XSP16 add(XSP16, 19)
        MOV     R4,#0x7
        MOV     R3,#0x7f
        MOV     R2,#0x0
        MOV     R1,#0x0
        LCALL   ??Draw_BMP?relay
        MOV     A,#0x2
        LCALL   ?DEALLOC_XSTACK8
        CFI CFA_XSP16 add(XSP16, 17)
//  148         for(int a=0;a<100;a++)
        MOV     R6,#0x64
//  149         {
//  150           MicroWait(10000);
??zb_ReceiveDataIndication_24:
        ; Setup parameters for call to function Onboard_wait
        MOV     R2,#0x10
        MOV     R3,#0x27
        LCALL   ??Onboard_wait?relay
//  151         }
        DEC     R6
        MOV     A,R6
        JZ      ??zb_ReceiveDataIndication_20
        SJMP    ??zb_ReceiveDataIndication_24
//  152         LCD_CLS(); 
//  153       }
//  154       //*/
//  155       /*
//  156       else if(led_status==2)
//  157       {
//  158         BEEStart();
//  159       }
//  160       else if(led_status==3)
//  161       {
//  162         BEEClose();
//  163       }
//  164       else if(led_status==4)
//  165       {
//  166         JDQStart();
//  167       }
//  168       else if(led_status==5)
//  169       {
//  170         JDQClose();
//  171       }
//  172       else if(led_status==6)
//  173       {
//  174         BZ=1;
//  175       }
//  176       else if(led_status==7)
//  177       {
//  178         BZ=0;
//  179       }
//  180       //*/
//  181     }
//  182     else if(led_num==NUM_LED_2)
??zb_ReceiveDataIndication_2:
        MOV     A,#0x2
        XRL     A,R2
        JNZ     ??zb_ReceiveDataIndication_1
//  183     {
//  184       if(led_status==1)
        MOV     A,#0x1
        XRL     A,R3
        JNZ     ??zb_ReceiveDataIndication_25
//  185         HalLedSet(HAL_LED_2,HAL_LED_MODE_ON);
        ; Setup parameters for call to function HalLedSet
        MOV     R2,#0x1
        SJMP    ??zb_ReceiveDataIndication_26
//  186       else if(led_status==0)
??zb_ReceiveDataIndication_25:
        MOV     A,R3
        JNZ     ??zb_ReceiveDataIndication_1
//  187         HalLedSet(HAL_LED_2,HAL_LED_MODE_OFF);
        ; Setup parameters for call to function HalLedSet
        MOV     R2,#0x0
??zb_ReceiveDataIndication_26:
        MOV     R1,#0x2
??zb_ReceiveDataIndication_5:
        LCALL   ??HalLedSet?relay
//  188       /*
//  189       else if(led_status==2)
//  190       {
//  191         L298NStart();
//  192       }
//  193       else if(led_status==3)
//  194       {
//  195         L298NClose();
//  196       }
//  197       else if(led_status==4)
//  198       {
//  199         JDQ1Start();
//  200       }
//  201       else if(led_status==5)
//  202       {
//  203         JDQ1Close();
//  204       }
//  205       else if(led_status==6)
//  206       {
//  207         LZ=1;
//  208       }
//  209       else if(led_status==7)
//  210       {
//  211         LZ=0;
//  212       }
//  213       //*/
//  214       /*else if(led_status==2)
//  215       {
//  216         while(IC_Test()==1)
//  217           JDQ2Start();   
//  218         JDQ2Close(); 
//  219       }*/
//  220     }
//  221   }
//  222 }
??zb_ReceiveDataIndication_1:
        MOV     A,#0x1
        LCALL   ?DEALLOC_XSTACK8
        CFI CFA_XSP16 add(XSP16, 16)
        LJMP    ?Subroutine1 & 0xFFFF
        CFI EndBlock cfiBlock48

        RSEG BANKED_CODE:CODE:NOROOT(0)
?Subroutine19:
        CFI Block cfiCond49 Using cfiCommon0
        CFI NoFunction
        CFI Conditional ??CrossCallReturnLabel_34
        CFI R6 load(1, XDATA, add(CFA_XSP16, literal(-16)))
        CFI VB load(1, XDATA, add(CFA_XSP16, literal(-15)))
        CFI V0 load(1, XDATA, add(CFA_XSP16, literal(-14)))
        CFI V1 load(1, XDATA, add(CFA_XSP16, literal(-13)))
        CFI V2 load(1, XDATA, add(CFA_XSP16, literal(-12)))
        CFI V3 load(1, XDATA, add(CFA_XSP16, literal(-11)))
        CFI V4 load(1, XDATA, add(CFA_XSP16, literal(-10)))
        CFI V5 load(1, XDATA, add(CFA_XSP16, literal(-9)))
        CFI V6 load(1, XDATA, add(CFA_XSP16, literal(-8)))
        CFI V7 load(1, XDATA, add(CFA_XSP16, literal(-7)))
        CFI R7 load(1, XDATA, add(CFA_XSP16, literal(-6)))
        CFI ?RET_LOW load(1, XDATA, add(CFA_XSP16, literal(-5)))
        CFI ?RET_HIGH load(1, XDATA, add(CFA_XSP16, literal(-4)))
        CFI ?BRET_EXT load(1, XDATA, add(CFA_XSP16, literal(-3)))
        CFI DPL0 load(1, XDATA, add(CFA_XSP16, literal(-2)))
        CFI DPH0 load(1, XDATA, add(CFA_XSP16, literal(-1)))
        CFI CFA_SP SP+0
        CFI CFA_XSP16 add(XSP16, 19)
        CFI Block cfiCond50 Using cfiCommon0
        CFI (cfiCond50) NoFunction
        CFI (cfiCond50) Conditional ??CrossCallReturnLabel_35
        CFI (cfiCond50) R6 load(1, XDATA, add(CFA_XSP16, literal(-16)))
        CFI (cfiCond50) VB load(1, XDATA, add(CFA_XSP16, literal(-15)))
        CFI (cfiCond50) V0 load(1, XDATA, add(CFA_XSP16, literal(-14)))
        CFI (cfiCond50) V1 load(1, XDATA, add(CFA_XSP16, literal(-13)))
        CFI (cfiCond50) V2 load(1, XDATA, add(CFA_XSP16, literal(-12)))
        CFI (cfiCond50) V3 load(1, XDATA, add(CFA_XSP16, literal(-11)))
        CFI (cfiCond50) V4 load(1, XDATA, add(CFA_XSP16, literal(-10)))
        CFI (cfiCond50) V5 load(1, XDATA, add(CFA_XSP16, literal(-9)))
        CFI (cfiCond50) V6 load(1, XDATA, add(CFA_XSP16, literal(-8)))
        CFI (cfiCond50) V7 load(1, XDATA, add(CFA_XSP16, literal(-7)))
        CFI (cfiCond50) R7 load(1, XDATA, add(CFA_XSP16, literal(-6)))
        CFI (cfiCond50) ?RET_LOW load(1, XDATA, add(CFA_XSP16, literal(-5)))
        CFI (cfiCond50) ?RET_HIGH load(1, XDATA, add(CFA_XSP16, literal(-4)))
        CFI (cfiCond50) ?BRET_EXT load(1, XDATA, add(CFA_XSP16, literal(-3)))
        CFI (cfiCond50) DPL0 load(1, XDATA, add(CFA_XSP16, literal(-2)))
        CFI (cfiCond50) DPH0 load(1, XDATA, add(CFA_XSP16, literal(-1)))
        CFI (cfiCond50) CFA_SP SP+0
        CFI (cfiCond50) CFA_XSP16 add(XSP16, 19)
        CFI Block cfiCond51 Using cfiCommon0
        CFI (cfiCond51) NoFunction
        CFI (cfiCond51) Conditional ??CrossCallReturnLabel_36
        CFI (cfiCond51) R6 load(1, XDATA, add(CFA_XSP16, literal(-16)))
        CFI (cfiCond51) VB load(1, XDATA, add(CFA_XSP16, literal(-15)))
        CFI (cfiCond51) V0 load(1, XDATA, add(CFA_XSP16, literal(-14)))
        CFI (cfiCond51) V1 load(1, XDATA, add(CFA_XSP16, literal(-13)))
        CFI (cfiCond51) V2 load(1, XDATA, add(CFA_XSP16, literal(-12)))
        CFI (cfiCond51) V3 load(1, XDATA, add(CFA_XSP16, literal(-11)))
        CFI (cfiCond51) V4 load(1, XDATA, add(CFA_XSP16, literal(-10)))
        CFI (cfiCond51) V5 load(1, XDATA, add(CFA_XSP16, literal(-9)))
        CFI (cfiCond51) V6 load(1, XDATA, add(CFA_XSP16, literal(-8)))
        CFI (cfiCond51) V7 load(1, XDATA, add(CFA_XSP16, literal(-7)))
        CFI (cfiCond51) R7 load(1, XDATA, add(CFA_XSP16, literal(-6)))
        CFI (cfiCond51) ?RET_LOW load(1, XDATA, add(CFA_XSP16, literal(-5)))
        CFI (cfiCond51) ?RET_HIGH load(1, XDATA, add(CFA_XSP16, literal(-4)))
        CFI (cfiCond51) ?BRET_EXT load(1, XDATA, add(CFA_XSP16, literal(-3)))
        CFI (cfiCond51) DPL0 load(1, XDATA, add(CFA_XSP16, literal(-2)))
        CFI (cfiCond51) DPH0 load(1, XDATA, add(CFA_XSP16, literal(-1)))
        CFI (cfiCond51) CFA_SP SP+0
        CFI (cfiCond51) CFA_XSP16 add(XSP16, 19)
        CFI Block cfiCond52 Using cfiCommon0
        CFI (cfiCond52) NoFunction
        CFI (cfiCond52) Conditional ??CrossCallReturnLabel_37
        CFI (cfiCond52) R6 load(1, XDATA, add(CFA_XSP16, literal(-16)))
        CFI (cfiCond52) VB load(1, XDATA, add(CFA_XSP16, literal(-15)))
        CFI (cfiCond52) V0 load(1, XDATA, add(CFA_XSP16, literal(-14)))
        CFI (cfiCond52) V1 load(1, XDATA, add(CFA_XSP16, literal(-13)))
        CFI (cfiCond52) V2 load(1, XDATA, add(CFA_XSP16, literal(-12)))
        CFI (cfiCond52) V3 load(1, XDATA, add(CFA_XSP16, literal(-11)))
        CFI (cfiCond52) V4 load(1, XDATA, add(CFA_XSP16, literal(-10)))
        CFI (cfiCond52) V5 load(1, XDATA, add(CFA_XSP16, literal(-9)))
        CFI (cfiCond52) V6 load(1, XDATA, add(CFA_XSP16, literal(-8)))
        CFI (cfiCond52) V7 load(1, XDATA, add(CFA_XSP16, literal(-7)))
        CFI (cfiCond52) R7 load(1, XDATA, add(CFA_XSP16, literal(-6)))
        CFI (cfiCond52) ?RET_LOW load(1, XDATA, add(CFA_XSP16, literal(-5)))
        CFI (cfiCond52) ?RET_HIGH load(1, XDATA, add(CFA_XSP16, literal(-4)))
        CFI (cfiCond52) ?BRET_EXT load(1, XDATA, add(CFA_XSP16, literal(-3)))
        CFI (cfiCond52) DPL0 load(1, XDATA, add(CFA_XSP16, literal(-2)))
        CFI (cfiCond52) DPH0 load(1, XDATA, add(CFA_XSP16, literal(-1)))
        CFI (cfiCond52) CFA_SP SP+0
        CFI (cfiCond52) CFA_XSP16 add(XSP16, 19)
        CFI Block cfiCond53 Using cfiCommon0
        CFI (cfiCond53) NoFunction
        CFI (cfiCond53) Conditional ??CrossCallReturnLabel_38
        CFI (cfiCond53) R6 load(1, XDATA, add(CFA_XSP16, literal(-16)))
        CFI (cfiCond53) VB load(1, XDATA, add(CFA_XSP16, literal(-15)))
        CFI (cfiCond53) V0 load(1, XDATA, add(CFA_XSP16, literal(-14)))
        CFI (cfiCond53) V1 load(1, XDATA, add(CFA_XSP16, literal(-13)))
        CFI (cfiCond53) V2 load(1, XDATA, add(CFA_XSP16, literal(-12)))
        CFI (cfiCond53) V3 load(1, XDATA, add(CFA_XSP16, literal(-11)))
        CFI (cfiCond53) V4 load(1, XDATA, add(CFA_XSP16, literal(-10)))
        CFI (cfiCond53) V5 load(1, XDATA, add(CFA_XSP16, literal(-9)))
        CFI (cfiCond53) V6 load(1, XDATA, add(CFA_XSP16, literal(-8)))
        CFI (cfiCond53) V7 load(1, XDATA, add(CFA_XSP16, literal(-7)))
        CFI (cfiCond53) R7 load(1, XDATA, add(CFA_XSP16, literal(-6)))
        CFI (cfiCond53) ?RET_LOW load(1, XDATA, add(CFA_XSP16, literal(-5)))
        CFI (cfiCond53) ?RET_HIGH load(1, XDATA, add(CFA_XSP16, literal(-4)))
        CFI (cfiCond53) ?BRET_EXT load(1, XDATA, add(CFA_XSP16, literal(-3)))
        CFI (cfiCond53) DPL0 load(1, XDATA, add(CFA_XSP16, literal(-2)))
        CFI (cfiCond53) DPH0 load(1, XDATA, add(CFA_XSP16, literal(-1)))
        CFI (cfiCond53) CFA_SP SP+0
        CFI (cfiCond53) CFA_XSP16 add(XSP16, 19)
        CFI Block cfiPicker54 Using cfiCommon1
        CFI (cfiPicker54) NoFunction
        CFI (cfiPicker54) Picker
        MOV     R2,DPL
        MOV     R3,DPH
        LCALL   ??sprintf?relay
        MOV     A,#0x2
        RET
        CFI EndBlock cfiCond49
        CFI EndBlock cfiCond50
        CFI EndBlock cfiCond51
        CFI EndBlock cfiCond52
        CFI EndBlock cfiCond53
        CFI EndBlock cfiPicker54

        RSEG BANKED_CODE:CODE:NOROOT(0)
?Subroutine14:
        CFI Block cfiCond55 Using cfiCommon0
        CFI NoFunction
        CFI Conditional ??CrossCallReturnLabel_24
        CFI R6 load(1, XDATA, add(CFA_XSP16, literal(-16)))
        CFI VB load(1, XDATA, add(CFA_XSP16, literal(-15)))
        CFI V0 load(1, XDATA, add(CFA_XSP16, literal(-14)))
        CFI V1 load(1, XDATA, add(CFA_XSP16, literal(-13)))
        CFI V2 load(1, XDATA, add(CFA_XSP16, literal(-12)))
        CFI V3 load(1, XDATA, add(CFA_XSP16, literal(-11)))
        CFI V4 load(1, XDATA, add(CFA_XSP16, literal(-10)))
        CFI V5 load(1, XDATA, add(CFA_XSP16, literal(-9)))
        CFI V6 load(1, XDATA, add(CFA_XSP16, literal(-8)))
        CFI V7 load(1, XDATA, add(CFA_XSP16, literal(-7)))
        CFI R7 load(1, XDATA, add(CFA_XSP16, literal(-6)))
        CFI ?RET_LOW load(1, XDATA, add(CFA_XSP16, literal(-5)))
        CFI ?RET_HIGH load(1, XDATA, add(CFA_XSP16, literal(-4)))
        CFI ?BRET_EXT load(1, XDATA, add(CFA_XSP16, literal(-3)))
        CFI DPL0 load(1, XDATA, add(CFA_XSP16, literal(-2)))
        CFI DPH0 load(1, XDATA, add(CFA_XSP16, literal(-1)))
        CFI CFA_SP SP+0
        CFI CFA_XSP16 add(XSP16, 17)
        CFI Block cfiCond56 Using cfiCommon0
        CFI (cfiCond56) NoFunction
        CFI (cfiCond56) Conditional ??CrossCallReturnLabel_25
        CFI (cfiCond56) R6 load(1, XDATA, add(CFA_XSP16, literal(-16)))
        CFI (cfiCond56) VB load(1, XDATA, add(CFA_XSP16, literal(-15)))
        CFI (cfiCond56) V0 load(1, XDATA, add(CFA_XSP16, literal(-14)))
        CFI (cfiCond56) V1 load(1, XDATA, add(CFA_XSP16, literal(-13)))
        CFI (cfiCond56) V2 load(1, XDATA, add(CFA_XSP16, literal(-12)))
        CFI (cfiCond56) V3 load(1, XDATA, add(CFA_XSP16, literal(-11)))
        CFI (cfiCond56) V4 load(1, XDATA, add(CFA_XSP16, literal(-10)))
        CFI (cfiCond56) V5 load(1, XDATA, add(CFA_XSP16, literal(-9)))
        CFI (cfiCond56) V6 load(1, XDATA, add(CFA_XSP16, literal(-8)))
        CFI (cfiCond56) V7 load(1, XDATA, add(CFA_XSP16, literal(-7)))
        CFI (cfiCond56) R7 load(1, XDATA, add(CFA_XSP16, literal(-6)))
        CFI (cfiCond56) ?RET_LOW load(1, XDATA, add(CFA_XSP16, literal(-5)))
        CFI (cfiCond56) ?RET_HIGH load(1, XDATA, add(CFA_XSP16, literal(-4)))
        CFI (cfiCond56) ?BRET_EXT load(1, XDATA, add(CFA_XSP16, literal(-3)))
        CFI (cfiCond56) DPL0 load(1, XDATA, add(CFA_XSP16, literal(-2)))
        CFI (cfiCond56) DPH0 load(1, XDATA, add(CFA_XSP16, literal(-1)))
        CFI (cfiCond56) CFA_SP SP+0
        CFI (cfiCond56) CFA_XSP16 add(XSP16, 17)
        CFI Block cfiPicker57 Using cfiCommon1
        CFI (cfiPicker57) NoFunction
        CFI (cfiPicker57) Picker
        MOV     R4,#`?<Constant "ID:">` & 0xff
        MOV     R5,#(`?<Constant "ID:">` >> 8) & 0xff
        MOV     R2,#0x0
        MOV     R1,#0x8
        LCALL   ??LCD_P8x16Str?relay
        ; Setup parameters for call to function LCD_P8x16Str
        ; Setup parameters for call to function LCD_P8x16Str
        MOV     R4,#buffer & 0xff
        MOV     R5,#(buffer >> 8) & 0xff
        MOV     R2,#0x0
        MOV     R1,#0x21
        LCALL   ??LCD_P8x16Str?relay
        RET
        CFI EndBlock cfiCond55
        CFI EndBlock cfiCond56
        CFI EndBlock cfiPicker57
//  223 
//  224 

        RSEG BANKED_CODE:CODE:NOROOT(0)
//  225 void zb_AllowBindConfirm( uint16 source )
zb_AllowBindConfirm:
        CFI Block cfiBlock58 Using cfiCommon0
        CFI Function zb_AllowBindConfirm
        CODE
//  226 {
        ; Saved register size: 0
        ; Auto size: 0
//  227 }
        LJMP    ?BRET
        CFI EndBlock cfiBlock58
//  228 

        RSEG BANKED_CODE:CODE:NOROOT(0)
//  229 void zb_HandleKeys( uint8 shift, uint8 keys )
zb_HandleKeys:
        CFI Block cfiBlock59 Using cfiCommon0
        CFI Function zb_HandleKeys
        CODE
//  230 {
        ; Saved register size: 0
        ; Auto size: 0
//  231   
//  232 }
        LJMP    ?BRET
        CFI EndBlock cfiBlock59
//  233 

        RSEG BANKED_CODE:CODE:NOROOT(0)
//  234 void zb_BindConfirm( uint16 commandId, uint8 status )
zb_BindConfirm:
        CFI Block cfiBlock60 Using cfiCommon0
        CFI Function zb_BindConfirm
        CODE
//  235 {
        ; Saved register size: 0
        ; Auto size: 0
//  236 }
        LJMP    ?BRET
        CFI EndBlock cfiBlock60
//  237 
//  238 
//  239 //void zb_SendDataRequest ( uint16 destination, uint16 commandId, uint8 len,
//  240 //                          uint8 *pData, uint8 handle, uint8 ack, uint8 radius );

        RSEG BANKED_CODE:CODE:NOROOT(0)
//  241 void zb_StartConfirm( uint8 status )
zb_StartConfirm:
        CFI Block cfiBlock61 Using cfiCommon0
        CFI Function zb_StartConfirm
        CODE
//  242 {
        FUNCALL zb_StartConfirm, zb_SendDataRequest
        LOCFRAME ISTACK, 0, STACK
        LOCFRAME PSTACK, 0, STACK
        LOCFRAME XSTACK, 15, STACK
        LOCFRAME IOVERLAY, 0, STATIC
        LOCFRAME DOVERLAY, 0, STATIC
        ARGFRAME ISTACK, 0, STACK
        ARGFRAME PSTACK, 0, STACK
        ARGFRAME XSTACK, 15, STACK
        ARGFRAME IOVERLAY, 0, STATIC
        ARGFRAME DOVERLAY, 0, STATIC
        FUNCALL zb_StartConfirm, osal_start_timerEx
        LOCFRAME ISTACK, 0, STACK
        LOCFRAME PSTACK, 0, STACK
        LOCFRAME XSTACK, 10, STACK
        LOCFRAME IOVERLAY, 0, STATIC
        LOCFRAME DOVERLAY, 0, STATIC
        ARGFRAME ISTACK, 0, STACK
        ARGFRAME PSTACK, 0, STACK
        ARGFRAME XSTACK, 10, STACK
        ARGFRAME IOVERLAY, 0, STATIC
        ARGFRAME DOVERLAY, 0, STATIC
        FUNCALL zb_StartConfirm, osal_start_timerEx
        LOCFRAME ISTACK, 0, STACK
        LOCFRAME PSTACK, 0, STACK
        LOCFRAME XSTACK, 10, STACK
        LOCFRAME IOVERLAY, 0, STATIC
        LOCFRAME DOVERLAY, 0, STATIC
        ARGFRAME ISTACK, 0, STACK
        ARGFRAME PSTACK, 0, STACK
        ARGFRAME XSTACK, 10, STACK
        ARGFRAME IOVERLAY, 0, STATIC
        ARGFRAME DOVERLAY, 0, STATIC
        FUNCALL zb_StartConfirm, osal_start_timerEx
        LOCFRAME ISTACK, 0, STACK
        LOCFRAME PSTACK, 0, STACK
        LOCFRAME XSTACK, 10, STACK
        LOCFRAME IOVERLAY, 0, STATIC
        LOCFRAME DOVERLAY, 0, STATIC
        ARGFRAME ISTACK, 0, STACK
        ARGFRAME PSTACK, 0, STACK
        ARGFRAME XSTACK, 10, STACK
        ARGFRAME IOVERLAY, 0, STATIC
        ARGFRAME DOVERLAY, 0, STATIC
        FUNCALL zb_StartConfirm, osal_start_timerEx
        LOCFRAME ISTACK, 0, STACK
        LOCFRAME PSTACK, 0, STACK
        LOCFRAME XSTACK, 10, STACK
        LOCFRAME IOVERLAY, 0, STATIC
        LOCFRAME DOVERLAY, 0, STATIC
        ARGFRAME ISTACK, 0, STACK
        ARGFRAME PSTACK, 0, STACK
        ARGFRAME XSTACK, 10, STACK
        ARGFRAME IOVERLAY, 0, STATIC
        ARGFRAME DOVERLAY, 0, STATIC
        FUNCALL zb_StartConfirm, HalLedBlink
        LOCFRAME ISTACK, 0, STACK
        LOCFRAME PSTACK, 0, STACK
        LOCFRAME XSTACK, 10, STACK
        LOCFRAME IOVERLAY, 0, STATIC
        LOCFRAME DOVERLAY, 0, STATIC
        ARGFRAME ISTACK, 0, STACK
        ARGFRAME PSTACK, 0, STACK
        ARGFRAME XSTACK, 10, STACK
        ARGFRAME IOVERLAY, 0, STATIC
        ARGFRAME DOVERLAY, 0, STATIC
        FUNCALL zb_StartConfirm, IC_Init
        LOCFRAME ISTACK, 0, STACK
        LOCFRAME PSTACK, 0, STACK
        LOCFRAME XSTACK, 10, STACK
        LOCFRAME IOVERLAY, 0, STATIC
        LOCFRAME DOVERLAY, 0, STATIC
        ARGFRAME ISTACK, 0, STACK
        ARGFRAME PSTACK, 0, STACK
        ARGFRAME XSTACK, 10, STACK
        ARGFRAME IOVERLAY, 0, STATIC
        ARGFRAME DOVERLAY, 0, STATIC
        FUNCALL zb_StartConfirm, LCD_Init
        LOCFRAME ISTACK, 0, STACK
        LOCFRAME PSTACK, 0, STACK
        LOCFRAME XSTACK, 10, STACK
        LOCFRAME IOVERLAY, 0, STATIC
        LOCFRAME DOVERLAY, 0, STATIC
        ARGFRAME ISTACK, 0, STACK
        ARGFRAME PSTACK, 0, STACK
        ARGFRAME XSTACK, 10, STACK
        ARGFRAME IOVERLAY, 0, STATIC
        ARGFRAME DOVERLAY, 0, STATIC
        FUNCALL zb_StartConfirm, LCD_CLS
        LOCFRAME ISTACK, 0, STACK
        LOCFRAME PSTACK, 0, STACK
        LOCFRAME XSTACK, 10, STACK
        LOCFRAME IOVERLAY, 0, STATIC
        LOCFRAME DOVERLAY, 0, STATIC
        ARGFRAME ISTACK, 0, STACK
        ARGFRAME PSTACK, 0, STACK
        ARGFRAME XSTACK, 10, STACK
        ARGFRAME IOVERLAY, 0, STATIC
        ARGFRAME DOVERLAY, 0, STATIC
        MOV     A,#-0xa
        LCALL   ?BANKED_ENTER_XDATA
        CFI DPH0 load(1, XDATA, add(CFA_XSP16, literal(-1)))
        CFI DPL0 load(1, XDATA, add(CFA_XSP16, literal(-2)))
        CFI ?BRET_EXT load(1, XDATA, add(CFA_XSP16, literal(-3)))
        CFI ?RET_HIGH load(1, XDATA, add(CFA_XSP16, literal(-4)))
        CFI ?RET_LOW load(1, XDATA, add(CFA_XSP16, literal(-5)))
        CFI R7 load(1, XDATA, add(CFA_XSP16, literal(-6)))
        CFI V1 load(1, XDATA, add(CFA_XSP16, literal(-7)))
        CFI V0 load(1, XDATA, add(CFA_XSP16, literal(-8)))
        CFI VB load(1, XDATA, add(CFA_XSP16, literal(-9)))
        CFI R6 load(1, XDATA, add(CFA_XSP16, literal(-10)))
        CFI CFA_SP SP+0
        CFI CFA_XSP16 add(XSP16, 10)
        ; Saved register size: 10
        ; Auto size: 0
        MOV     A,R1
//  243   if(status==ZSUCCESS)
        JNZ     ??zb_StartConfirm_0
//  244   {
//  245     //ledID
//  246     zb_SendDataRequest(0X0,LEDJOINNET_CMD_ID,
//  247                        LEDNUM,ledIdList,0,FALSE,AF_DEFAULT_RADIUS);
        ; Setup parameters for call to function zb_SendDataRequest
        MOV     ?V0 + 0,#0x1e
        MOV     R0,#?V0 + 0
        LCALL   ?PUSH_XSTACK_I_ONE
        CFI CFA_XSP16 add(XSP16, 11)
        MOV     ?V0 + 0,#0x0
        MOV     R0,#?V0 + 0
        LCALL   ?PUSH_XSTACK_I_ONE
        CFI CFA_XSP16 add(XSP16, 12)
        MOV     R0,#?V0 + 0
        LCALL   ?PUSH_XSTACK_I_ONE
        CFI CFA_XSP16 add(XSP16, 13)
        MOV     ?V0 + 0,#ledIdList & 0xff
        MOV     ?V0 + 1,#(ledIdList >> 8) & 0xff
        MOV     R0,#?V0 + 0
        LCALL   ?PUSH_XSTACK_I_TWO
        CFI CFA_XSP16 add(XSP16, 15)
        MOV     R1,#0x2
        MOV     R4,#0x1
        MOV     R5,#0x0
        MOV     R2,#0x0
        MOV     R3,#0x0
        LCALL   ??zb_SendDataRequest?relay
        MOV     A,#0x5
        LCALL   ?DEALLOC_XSTACK8
        CFI CFA_XSP16 add(XSP16, 10)
//  248     osal_start_timerEx(sapi_TaskID,TIMER_TIMEOUT_EVT,4000);
        ; Setup parameters for call to function osal_start_timerEx
        LCALL   ?Subroutine17 & 0xFFFF
//  249     osal_start_timerEx(sapi_TaskID,DHT11_PERIOD_EVT,5000);
??CrossCallReturnLabel_44:
        ; Setup parameters for call to function osal_start_timerEx
        MOV     R4,#-0x78
        MOV     R5,#0x13
        MOV     R2,#0x2
        LCALL   ?Subroutine12 & 0xFFFF
//  250     osal_start_timerEx(sapi_TaskID,RC522_PERIOD_EVT,2000);
??CrossCallReturnLabel_14:
        MOV     R2,#0x3
        LCALL   ?Subroutine12 & 0xFFFF
//  251     osal_start_timerEx(sapi_TaskID,RC522b_PERIOD_EVT,2000);
??CrossCallReturnLabel_15:
        MOV     R2,#0x4
        LCALL   ?Subroutine12 & 0xFFFF
//  252     HalLedBlink(HAL_LED_ALL,5,50,2000);
??CrossCallReturnLabel_16:
        MOV     R3,#0x32
        MOV     R2,#0x5
        MOV     R1,#0xf
        LCALL   ??HalLedBlink?relay
//  253     
//  254     IC_Init();
        ; Setup parameters for call to function IC_Init
        LCALL   ??IC_Init?relay
//  255     LCD_Init(); //oled  
        ; Setup parameters for call to function LCD_Init
        LCALL   ??LCD_Init?relay
//  256     LCD_CLS(); //
        ; Setup parameters for call to function LCD_CLS
        LCALL   ??LCD_CLS?relay
//  257     //InitJDQ2();
//  258     //Initout();
//  259   }
//  260 }
??zb_StartConfirm_0:
        LJMP    ??Subroutine22_0 & 0xFFFF
        CFI EndBlock cfiBlock61

        RSEG BANKED_CODE:CODE:NOROOT(0)
?Subroutine17:
        CFI Block cfiCond62 Using cfiCommon0
        CFI NoFunction
        CFI Conditional ??CrossCallReturnLabel_44
        CFI R6 load(1, XDATA, add(CFA_XSP16, literal(-10)))
        CFI VB load(1, XDATA, add(CFA_XSP16, literal(-9)))
        CFI V0 load(1, XDATA, add(CFA_XSP16, literal(-8)))
        CFI V1 load(1, XDATA, add(CFA_XSP16, literal(-7)))
        CFI R7 load(1, XDATA, add(CFA_XSP16, literal(-6)))
        CFI ?RET_LOW load(1, XDATA, add(CFA_XSP16, literal(-5)))
        CFI ?RET_HIGH load(1, XDATA, add(CFA_XSP16, literal(-4)))
        CFI ?BRET_EXT load(1, XDATA, add(CFA_XSP16, literal(-3)))
        CFI DPL0 load(1, XDATA, add(CFA_XSP16, literal(-2)))
        CFI DPH0 load(1, XDATA, add(CFA_XSP16, literal(-1)))
        CFI CFA_SP SP+0
        CFI CFA_XSP16 add(XSP16, 10)
        CFI Block cfiCond63 Using cfiCommon0
        CFI (cfiCond63) NoFunction
        CFI (cfiCond63) Conditional ??CrossCallReturnLabel_45
        CFI (cfiCond63) R6 load(1, XDATA, add(CFA_XSP16, literal(-10)))
        CFI (cfiCond63) VB load(1, XDATA, add(CFA_XSP16, literal(-9)))
        CFI (cfiCond63) V0 load(1, XDATA, add(CFA_XSP16, literal(-8)))
        CFI (cfiCond63) V1 load(1, XDATA, add(CFA_XSP16, literal(-7)))
        CFI (cfiCond63) R7 load(1, XDATA, add(CFA_XSP16, literal(-6)))
        CFI (cfiCond63) ?RET_LOW load(1, XDATA, add(CFA_XSP16, literal(-5)))
        CFI (cfiCond63) ?RET_HIGH load(1, XDATA, add(CFA_XSP16, literal(-4)))
        CFI (cfiCond63) ?BRET_EXT load(1, XDATA, add(CFA_XSP16, literal(-3)))
        CFI (cfiCond63) DPL0 load(1, XDATA, add(CFA_XSP16, literal(-2)))
        CFI (cfiCond63) DPH0 load(1, XDATA, add(CFA_XSP16, literal(-1)))
        CFI (cfiCond63) CFA_SP SP+0
        CFI (cfiCond63) CFA_XSP16 add(XSP16, 34)
        CFI Block cfiPicker64 Using cfiCommon1
        CFI (cfiPicker64) NoFunction
        CFI (cfiPicker64) Picker
        MOV     R4,#-0x60
        MOV     R5,#0xf
        MOV     R2,#0x1
        CFI EndBlock cfiCond62
        CFI EndBlock cfiCond63
        CFI EndBlock cfiPicker64
        REQUIRE ??Subroutine23_0
        ; // Fall through to label ??Subroutine23_0

        RSEG BANKED_CODE:CODE:NOROOT(0)
??Subroutine23_0:
        CFI Block cfiCond65 Using cfiCommon0
        CFI NoFunction
        CFI Conditional ??CrossCallReturnLabel_46
        CFI R6 load(1, XDATA, add(CFA_XSP16, literal(-10)))
        CFI VB load(1, XDATA, add(CFA_XSP16, literal(-9)))
        CFI V0 load(1, XDATA, add(CFA_XSP16, literal(-8)))
        CFI V1 load(1, XDATA, add(CFA_XSP16, literal(-7)))
        CFI R7 load(1, XDATA, add(CFA_XSP16, literal(-6)))
        CFI ?RET_LOW load(1, XDATA, add(CFA_XSP16, literal(-5)))
        CFI ?RET_HIGH load(1, XDATA, add(CFA_XSP16, literal(-4)))
        CFI ?BRET_EXT load(1, XDATA, add(CFA_XSP16, literal(-3)))
        CFI DPL0 load(1, XDATA, add(CFA_XSP16, literal(-2)))
        CFI DPH0 load(1, XDATA, add(CFA_XSP16, literal(-1)))
        CFI CFA_SP SP+0
        CFI CFA_XSP16 add(XSP16, 34)
        CFI Block cfiCond66 Using cfiCommon0
        CFI (cfiCond66) NoFunction
        CFI (cfiCond66) Conditional ??CrossCallReturnLabel_44
        CFI (cfiCond66) R6 load(1, XDATA, add(CFA_XSP16, literal(-10)))
        CFI (cfiCond66) VB load(1, XDATA, add(CFA_XSP16, literal(-9)))
        CFI (cfiCond66) V0 load(1, XDATA, add(CFA_XSP16, literal(-8)))
        CFI (cfiCond66) V1 load(1, XDATA, add(CFA_XSP16, literal(-7)))
        CFI (cfiCond66) R7 load(1, XDATA, add(CFA_XSP16, literal(-6)))
        CFI (cfiCond66) ?RET_LOW load(1, XDATA, add(CFA_XSP16, literal(-5)))
        CFI (cfiCond66) ?RET_HIGH load(1, XDATA, add(CFA_XSP16, literal(-4)))
        CFI (cfiCond66) ?BRET_EXT load(1, XDATA, add(CFA_XSP16, literal(-3)))
        CFI (cfiCond66) DPL0 load(1, XDATA, add(CFA_XSP16, literal(-2)))
        CFI (cfiCond66) DPH0 load(1, XDATA, add(CFA_XSP16, literal(-1)))
        CFI (cfiCond66) CFA_SP SP+0
        CFI (cfiCond66) CFA_XSP16 add(XSP16, 10)
        CFI Block cfiCond67 Using cfiCommon0
        CFI (cfiCond67) NoFunction
        CFI (cfiCond67) Conditional ??CrossCallReturnLabel_45
        CFI (cfiCond67) R6 load(1, XDATA, add(CFA_XSP16, literal(-10)))
        CFI (cfiCond67) VB load(1, XDATA, add(CFA_XSP16, literal(-9)))
        CFI (cfiCond67) V0 load(1, XDATA, add(CFA_XSP16, literal(-8)))
        CFI (cfiCond67) V1 load(1, XDATA, add(CFA_XSP16, literal(-7)))
        CFI (cfiCond67) R7 load(1, XDATA, add(CFA_XSP16, literal(-6)))
        CFI (cfiCond67) ?RET_LOW load(1, XDATA, add(CFA_XSP16, literal(-5)))
        CFI (cfiCond67) ?RET_HIGH load(1, XDATA, add(CFA_XSP16, literal(-4)))
        CFI (cfiCond67) ?BRET_EXT load(1, XDATA, add(CFA_XSP16, literal(-3)))
        CFI (cfiCond67) DPL0 load(1, XDATA, add(CFA_XSP16, literal(-2)))
        CFI (cfiCond67) DPH0 load(1, XDATA, add(CFA_XSP16, literal(-1)))
        CFI (cfiCond67) CFA_SP SP+0
        CFI (cfiCond67) CFA_XSP16 add(XSP16, 34)
        CFI Block cfiPicker68 Using cfiCommon1
        CFI (cfiPicker68) NoFunction
        CFI (cfiPicker68) Picker
        MOV     R3,#0x0
        MOV     DPTR,#sapi_TaskID
        MOVX    A,@DPTR
        MOV     R1,A
        LCALL   ??osal_start_timerEx?relay
        RET
        CFI EndBlock cfiCond65
        CFI EndBlock cfiCond66
        CFI EndBlock cfiCond67
        CFI EndBlock cfiPicker68

        RSEG BANKED_CODE:CODE:NOROOT(0)
?Subroutine12:
        CFI Block cfiCond69 Using cfiCommon0
        CFI NoFunction
        CFI Conditional ??CrossCallReturnLabel_14
        CFI R6 load(1, XDATA, add(CFA_XSP16, literal(-10)))
        CFI VB load(1, XDATA, add(CFA_XSP16, literal(-9)))
        CFI V0 load(1, XDATA, add(CFA_XSP16, literal(-8)))
        CFI V1 load(1, XDATA, add(CFA_XSP16, literal(-7)))
        CFI R7 load(1, XDATA, add(CFA_XSP16, literal(-6)))
        CFI ?RET_LOW load(1, XDATA, add(CFA_XSP16, literal(-5)))
        CFI ?RET_HIGH load(1, XDATA, add(CFA_XSP16, literal(-4)))
        CFI ?BRET_EXT load(1, XDATA, add(CFA_XSP16, literal(-3)))
        CFI DPL0 load(1, XDATA, add(CFA_XSP16, literal(-2)))
        CFI DPH0 load(1, XDATA, add(CFA_XSP16, literal(-1)))
        CFI CFA_SP SP+0
        CFI CFA_XSP16 add(XSP16, 10)
        CFI Block cfiCond70 Using cfiCommon0
        CFI (cfiCond70) NoFunction
        CFI (cfiCond70) Conditional ??CrossCallReturnLabel_15
        CFI (cfiCond70) R6 load(1, XDATA, add(CFA_XSP16, literal(-10)))
        CFI (cfiCond70) VB load(1, XDATA, add(CFA_XSP16, literal(-9)))
        CFI (cfiCond70) V0 load(1, XDATA, add(CFA_XSP16, literal(-8)))
        CFI (cfiCond70) V1 load(1, XDATA, add(CFA_XSP16, literal(-7)))
        CFI (cfiCond70) R7 load(1, XDATA, add(CFA_XSP16, literal(-6)))
        CFI (cfiCond70) ?RET_LOW load(1, XDATA, add(CFA_XSP16, literal(-5)))
        CFI (cfiCond70) ?RET_HIGH load(1, XDATA, add(CFA_XSP16, literal(-4)))
        CFI (cfiCond70) ?BRET_EXT load(1, XDATA, add(CFA_XSP16, literal(-3)))
        CFI (cfiCond70) DPL0 load(1, XDATA, add(CFA_XSP16, literal(-2)))
        CFI (cfiCond70) DPH0 load(1, XDATA, add(CFA_XSP16, literal(-1)))
        CFI (cfiCond70) CFA_SP SP+0
        CFI (cfiCond70) CFA_XSP16 add(XSP16, 10)
        CFI Block cfiCond71 Using cfiCommon0
        CFI (cfiCond71) NoFunction
        CFI (cfiCond71) Conditional ??CrossCallReturnLabel_16
        CFI (cfiCond71) R6 load(1, XDATA, add(CFA_XSP16, literal(-10)))
        CFI (cfiCond71) VB load(1, XDATA, add(CFA_XSP16, literal(-9)))
        CFI (cfiCond71) V0 load(1, XDATA, add(CFA_XSP16, literal(-8)))
        CFI (cfiCond71) V1 load(1, XDATA, add(CFA_XSP16, literal(-7)))
        CFI (cfiCond71) R7 load(1, XDATA, add(CFA_XSP16, literal(-6)))
        CFI (cfiCond71) ?RET_LOW load(1, XDATA, add(CFA_XSP16, literal(-5)))
        CFI (cfiCond71) ?RET_HIGH load(1, XDATA, add(CFA_XSP16, literal(-4)))
        CFI (cfiCond71) ?BRET_EXT load(1, XDATA, add(CFA_XSP16, literal(-3)))
        CFI (cfiCond71) DPL0 load(1, XDATA, add(CFA_XSP16, literal(-2)))
        CFI (cfiCond71) DPH0 load(1, XDATA, add(CFA_XSP16, literal(-1)))
        CFI (cfiCond71) CFA_SP SP+0
        CFI (cfiCond71) CFA_XSP16 add(XSP16, 10)
        CFI Block cfiPicker72 Using cfiCommon1
        CFI (cfiPicker72) NoFunction
        CFI (cfiPicker72) Picker
        MOV     R3,#0x0
        MOV     DPTR,#sapi_TaskID
        MOVX    A,@DPTR
        MOV     R1,A
        LCALL   ??osal_start_timerEx?relay
        ; Setup parameters for call to function osal_start_timerEx
        ; Setup parameters for call to function osal_start_timerEx
        ; Setup parameters for call to function HalLedBlink
        MOV     R4,#-0x30
        MOV     R5,#0x7
        RET
        CFI EndBlock cfiCond69
        CFI EndBlock cfiCond70
        CFI EndBlock cfiCond71
        CFI EndBlock cfiPicker72
//  261 

        RSEG BANKED_CODE:CODE:NOROOT(0)
//  262 void zb_HandleOsalEvent( uint16 event )
zb_HandleOsalEvent:
        CFI Block cfiBlock73 Using cfiCommon0
        CFI Function zb_HandleOsalEvent
        CODE
//  263 {
        FUNCALL zb_HandleOsalEvent, osal_start_timerEx
        LOCFRAME ISTACK, 0, STACK
        LOCFRAME PSTACK, 0, STACK
        LOCFRAME XSTACK, 34, STACK
        LOCFRAME IOVERLAY, 0, STATIC
        LOCFRAME DOVERLAY, 0, STATIC
        ARGFRAME ISTACK, 0, STACK
        ARGFRAME PSTACK, 0, STACK
        ARGFRAME XSTACK, 34, STACK
        ARGFRAME IOVERLAY, 0, STATIC
        ARGFRAME DOVERLAY, 0, STATIC
        FUNCALL zb_HandleOsalEvent, zb_SendDataRequest
        LOCFRAME ISTACK, 0, STACK
        LOCFRAME PSTACK, 0, STACK
        LOCFRAME XSTACK, 39, STACK
        LOCFRAME IOVERLAY, 0, STATIC
        LOCFRAME DOVERLAY, 0, STATIC
        ARGFRAME ISTACK, 0, STACK
        ARGFRAME PSTACK, 0, STACK
        ARGFRAME XSTACK, 39, STACK
        ARGFRAME IOVERLAY, 0, STATIC
        ARGFRAME DOVERLAY, 0, STATIC
        FUNCALL zb_HandleOsalEvent, osal_start_timerEx
        LOCFRAME ISTACK, 0, STACK
        LOCFRAME PSTACK, 0, STACK
        LOCFRAME XSTACK, 34, STACK
        LOCFRAME IOVERLAY, 0, STATIC
        LOCFRAME DOVERLAY, 0, STATIC
        ARGFRAME ISTACK, 0, STACK
        ARGFRAME PSTACK, 0, STACK
        ARGFRAME XSTACK, 34, STACK
        ARGFRAME IOVERLAY, 0, STATIC
        ARGFRAME DOVERLAY, 0, STATIC
        FUNCALL zb_HandleOsalEvent, LCD_P16x16Ch
        LOCFRAME ISTACK, 0, STACK
        LOCFRAME PSTACK, 0, STACK
        LOCFRAME XSTACK, 34, STACK
        LOCFRAME IOVERLAY, 0, STATIC
        LOCFRAME DOVERLAY, 0, STATIC
        ARGFRAME ISTACK, 0, STACK
        ARGFRAME PSTACK, 0, STACK
        ARGFRAME XSTACK, 34, STACK
        ARGFRAME IOVERLAY, 0, STATIC
        ARGFRAME DOVERLAY, 0, STATIC
        FUNCALL zb_HandleOsalEvent, IC_Test
        LOCFRAME ISTACK, 0, STACK
        LOCFRAME PSTACK, 0, STACK
        LOCFRAME XSTACK, 34, STACK
        LOCFRAME IOVERLAY, 0, STATIC
        LOCFRAME DOVERLAY, 0, STATIC
        ARGFRAME ISTACK, 0, STACK
        ARGFRAME PSTACK, 0, STACK
        ARGFRAME XSTACK, 34, STACK
        ARGFRAME IOVERLAY, 0, STATIC
        ARGFRAME DOVERLAY, 0, STATIC
        FUNCALL zb_HandleOsalEvent, LCD_CLS
        LOCFRAME ISTACK, 0, STACK
        LOCFRAME PSTACK, 0, STACK
        LOCFRAME XSTACK, 34, STACK
        LOCFRAME IOVERLAY, 0, STATIC
        LOCFRAME DOVERLAY, 0, STATIC
        ARGFRAME ISTACK, 0, STACK
        ARGFRAME PSTACK, 0, STACK
        ARGFRAME XSTACK, 34, STACK
        ARGFRAME IOVERLAY, 0, STATIC
        ARGFRAME DOVERLAY, 0, STATIC
        FUNCALL zb_HandleOsalEvent, sprintf
        LOCFRAME ISTACK, 0, STACK
        LOCFRAME PSTACK, 0, STACK
        LOCFRAME XSTACK, 50, STACK
        LOCFRAME IOVERLAY, 0, STATIC
        LOCFRAME DOVERLAY, 0, STATIC
        ARGFRAME ISTACK, 0, STACK
        ARGFRAME PSTACK, 0, STACK
        ARGFRAME XSTACK, 50, STACK
        ARGFRAME IOVERLAY, 0, STATIC
        ARGFRAME DOVERLAY, 0, STATIC
        FUNCALL zb_HandleOsalEvent, zb_SendDataRequest
        LOCFRAME ISTACK, 0, STACK
        LOCFRAME PSTACK, 0, STACK
        LOCFRAME XSTACK, 39, STACK
        LOCFRAME IOVERLAY, 0, STATIC
        LOCFRAME DOVERLAY, 0, STATIC
        ARGFRAME ISTACK, 0, STACK
        ARGFRAME PSTACK, 0, STACK
        ARGFRAME XSTACK, 39, STACK
        ARGFRAME IOVERLAY, 0, STATIC
        ARGFRAME DOVERLAY, 0, STATIC
        MOV     A,#-0xa
        LCALL   ?BANKED_ENTER_XDATA
        CFI DPH0 load(1, XDATA, add(CFA_XSP16, literal(-1)))
        CFI DPL0 load(1, XDATA, add(CFA_XSP16, literal(-2)))
        CFI ?BRET_EXT load(1, XDATA, add(CFA_XSP16, literal(-3)))
        CFI ?RET_HIGH load(1, XDATA, add(CFA_XSP16, literal(-4)))
        CFI ?RET_LOW load(1, XDATA, add(CFA_XSP16, literal(-5)))
        CFI R7 load(1, XDATA, add(CFA_XSP16, literal(-6)))
        CFI V1 load(1, XDATA, add(CFA_XSP16, literal(-7)))
        CFI V0 load(1, XDATA, add(CFA_XSP16, literal(-8)))
        CFI VB load(1, XDATA, add(CFA_XSP16, literal(-9)))
        CFI R6 load(1, XDATA, add(CFA_XSP16, literal(-10)))
        CFI CFA_SP SP+0
        CFI CFA_XSP16 add(XSP16, 10)
        ; Saved register size: 10
        ; Auto size: 24
        MOV     A,#-0x18
        LCALL   ?ALLOC_XSTACK8
        CFI CFA_XSP16 add(XSP16, 34)
        MOV     A,R2
        MOV     R6,A
//  264   if(event&TIMER_TIMEOUT_EVT)
        MOV     C,0xE0 /* A   */.0
        JNC     ??zb_HandleOsalEvent_0
//  265   {
//  266     osal_start_timerEx(sapi_TaskID,TIMER_TIMEOUT_EVT,4000);
        ; Setup parameters for call to function osal_start_timerEx
        LCALL   ?Subroutine17 & 0xFFFF
//  267     zb_SendDataRequest(0X0,HEART_BEAT_CMD_ID,
//  268                        0,NULL,0,FALSE,AF_DEFAULT_RADIUS); 
??CrossCallReturnLabel_45:
        ; Setup parameters for call to function zb_SendDataRequest
        MOV     ?V0 + 0,#0x1e
        MOV     R0,#?V0 + 0
        LCALL   ?PUSH_XSTACK_I_ONE
        CFI CFA_XSP16 add(XSP16, 35)
        MOV     ?V0 + 0,#0x0
        MOV     R0,#?V0 + 0
        LCALL   ?PUSH_XSTACK_I_ONE
        CFI CFA_XSP16 add(XSP16, 36)
        MOV     R0,#?V0 + 0
        LCALL   ?PUSH_XSTACK_I_ONE
        CFI CFA_XSP16 add(XSP16, 37)
        CLR     A
        MOV     ?V0 + 1,A
        MOV     R0,#?V0 + 0
        LCALL   ?PUSH_XSTACK_I_TWO
        CFI CFA_XSP16 add(XSP16, 39)
        MOV     R1,#0x0
        MOV     R4,#0x3
        MOV     R5,#0x0
        MOV     R2,#0x0
        MOV     R3,#0x0
        LCALL   ??zb_SendDataRequest?relay
        MOV     A,#0x5
        LCALL   ?DEALLOC_XSTACK8
        CFI CFA_XSP16 add(XSP16, 34)
//  269   }
//  270   /*
//  271   if(event&DHT11_PERIOD_EVT)
//  272   {
//  273     unsigned char value[5];//0123,4
//  274     unsigned int lightvalue;
//  275     unsigned int AvgValue;
//  276     osal_start_timerEx(sapi_TaskID,DHT11_PERIOD_EVT,5000);
//  277     GetDht11Value(value,value+1);
//  278     Get_ADCValue(&lightvalue);
//  279     value[2]=lightvalue&0xff;
//  280     value[3]=(lightvalue>>8)&0xff;
//  281     value[4]=AirScan();
//  282     AvgValue = value[2] | ((unsigned int)value[3] << 8);
//  283     if(LZ==0)
//  284     {
//  285       if(AvgValue==32763)
//  286       {
//  287         HalLedSet(HAL_LED_1,HAL_LED_MODE_ON);
//  288         HalLedSet(HAL_LED_2,HAL_LED_MODE_ON);
//  289       }
//  290       else if(AvgValue<=6700)
//  291       {
//  292         HalLedSet(HAL_LED_1,HAL_LED_MODE_OFF);
//  293         HalLedSet(HAL_LED_2,HAL_LED_MODE_OFF);
//  294       }
//  295     }
//  296     zb_SendDataRequest(0X0,DHT11VALUE_CMD_ID,
//  297                        5,value,0,FALSE,AF_DEFAULT_RADIUS); 
//  298     
//  299   }
//  300   //*/
//  301   ///*
//  302   if(event&RC522_PERIOD_EVT)
??zb_HandleOsalEvent_0:
        MOV     A,R6
        ANL     A,#0x3
        JNZ     $+5
        LJMP    ??zb_HandleOsalEvent_1 & 0xFFFF
//  303   {
//  304     osal_start_timerEx(sapi_TaskID,RC522_PERIOD_EVT,2000);
        ; Setup parameters for call to function osal_start_timerEx
        MOV     R4,#-0x30
        MOV     R5,#0x7
        MOV     R2,#0x3
        LCALL   ??Subroutine23_0 & 0xFFFF
//  305     unsigned char asc_16[16]={'0','1','2','3','4','5','6','7','8','9','A','B','C','D','E','F'},i;
??CrossCallReturnLabel_46:
        MOV     A,#0x8
        LCALL   ?XSTACK_DISP0_8
        MOV     R4,DPL
        MOV     R5,DPH
        MOV     DPH,#(`?<Constant {48, 49, 50, 51, 52, 53, 54, 55, 56` >> 8) & 0xff
        MOV     DPL,#`?<Constant {48, 49, 50, 51, 52, 53, 54, 55, 56` & 0xff
        MOV     A,#0x10
        LCALL   ?MOVE_LONG8_XDATA_XDATA
//  306     unsigned char Card_Id[8]; //32
//  307     //unsigned char buffer[8];
//  308     for(int j=0,k=10;k<13;j++,k++)
        MOV     ?V0 + 0,A
        MOV     R6,#0xa
        MOV     R7,A
//  309     {
//  310       LCD_P16x16Ch(24*j+32, 3, k);
??zb_HandleOsalEvent_2:
        ; Setup parameters for call to function LCD_P16x16Ch
        MOV     A,R6
        MOV     R3,A
        MOV     R2,#0x3
        MOV     B,#0x18
        MOV     A,?V0 + 0
        MUL     AB
        ADD     A,#0x20
        MOV     R1,A
        LCALL   ??LCD_P16x16Ch?relay
//  311     }
        MOV     A,?V0 + 0
        INC     A
        MOV     ?V0 + 0,A
        LCALL   ??Subroutine25_0 & 0xFFFF
??CrossCallReturnLabel_54:
        SUBB    A,#0xd
        LCALL   ?Subroutine18 & 0xFFFF
??CrossCallReturnLabel_33:
        JC      ??zb_HandleOsalEvent_2
//  312     if(IC_Test()==1)
        ; Setup parameters for call to function IC_Test
        LCALL   ??IC_Test?relay
        MOV     A,R1
        XRL     A,#0x1
        JZ      $+5
        LJMP    ??zb_HandleOsalEvent_1 & 0xFFFF
//  313     {   
//  314       LCD_CLS(); 
        ; Setup parameters for call to function LCD_CLS
        LCALL   ??LCD_CLS?relay
//  315       //16ASC IC
//  316       for(i=0;i<4;i++)
        MOV     R4,#0x0
//  317       {
//  318         Card_Id[i*2]=asc_16[qq[i]/16];
??zb_HandleOsalEvent_3:
        MOV     DPL,R4
        MOV     R2,DPL
        MOV     A,R2
        CLR     C
        RLC     A
        MOV     R0,A
        CLR     A
        RLC     A
        MOV     R1,A
        MOV     DPL,?XSP + 0
        MOV     DPH,?XSP + 1
        MOV     A,DPL
        ADD     A,R0
        MOV     R0,A
        MOV     A,DPH
        ADDC    A,R1
        MOV     R1,A
        MOV     A,#qq & 0xff
        ADD     A,R2
        MOV     DPL,A
        MOV     A,#(qq >> 8) & 0xff
        LCALL   ??Subroutine24_0 & 0xFFFF
??CrossCallReturnLabel_48:
        MOV     R5,A
        SWAP    A
        ANL     A,#0xf
        MOV     R2,A
        MOV     A,#0x8
        LCALL   ?XSTACK_DISP0_8
        LCALL   ?Subroutine7 & 0xFFFF
??CrossCallReturnLabel_6:
        MOVX    @DPTR,A
//  319         Card_Id[i*2+1]=asc_16[qq[i]%16];        
        MOV     A,#0xf
        ANL     A,R5
        MOV     R2,A
        MOV     A,#0x8
        LCALL   ?XSTACK_DISP0_8
        LCALL   ?Subroutine7 & 0xFFFF
//  320       }
??CrossCallReturnLabel_7:
        INC     DPTR
        MOVX    @DPTR,A
        INC     R4
        MOV     A,R4
        CLR     C
        SUBB    A,#0x4
        JC      ??zb_HandleOsalEvent_3
//  321       sprintf(buffer,"%c%c%c%c%c%c%c%c",Card_Id[0],Card_Id[1],Card_Id[2],Card_Id[3],Card_Id[4],Card_Id[5],Card_Id[6],Card_Id[7]);
        ; Setup parameters for call to function sprintf
        MOV     A,#0x7
        LCALL   ?XSTACK_DISP0_8
        MOVX    A,@DPTR
        MOV     ?V0 + 0,A
        MOV     ?V0 + 1,#0x0
        MOV     R0,#?V0 + 0
        LCALL   ?PUSH_XSTACK_I_TWO
        CFI CFA_XSP16 add(XSP16, 36)
        MOV     A,#0x8
        LCALL   ?XSTACK_DISP0_8
        LCALL   ?Subroutine13 & 0xFFFF
??CrossCallReturnLabel_17:
        LCALL   ?PUSH_XSTACK_I_TWO
        CFI CFA_XSP16 add(XSP16, 38)
        MOV     A,#0x9
        LCALL   ?XSTACK_DISP0_8
        LCALL   ?Subroutine13 & 0xFFFF
??CrossCallReturnLabel_18:
        LCALL   ?PUSH_XSTACK_I_TWO
        CFI CFA_XSP16 add(XSP16, 40)
        MOV     A,#0xa
        LCALL   ?XSTACK_DISP0_8
        LCALL   ?Subroutine13 & 0xFFFF
??CrossCallReturnLabel_19:
        LCALL   ?PUSH_XSTACK_I_TWO
        CFI CFA_XSP16 add(XSP16, 42)
        MOV     A,#0xb
        LCALL   ?XSTACK_DISP0_8
        LCALL   ?Subroutine13 & 0xFFFF
??CrossCallReturnLabel_20:
        LCALL   ?PUSH_XSTACK_I_TWO
        CFI CFA_XSP16 add(XSP16, 44)
        MOV     A,#0xc
        LCALL   ?XSTACK_DISP0_8
        LCALL   ?Subroutine13 & 0xFFFF
??CrossCallReturnLabel_21:
        LCALL   ?PUSH_XSTACK_I_TWO
        CFI CFA_XSP16 add(XSP16, 46)
        MOV     A,#0xd
        LCALL   ?XSTACK_DISP0_8
        LCALL   ?Subroutine13 & 0xFFFF
??CrossCallReturnLabel_22:
        LCALL   ?PUSH_XSTACK_I_TWO
        CFI CFA_XSP16 add(XSP16, 48)
        MOV     A,#0xe
        LCALL   ?XSTACK_DISP0_8
        LCALL   ?Subroutine13 & 0xFFFF
??CrossCallReturnLabel_23:
        LCALL   ?PUSH_XSTACK_I_TWO
        CFI CFA_XSP16 add(XSP16, 50)
        MOV     R4,#`?<Constant "%c%c%c%c%c%c%c%c">` & 0xff
        MOV     R5,#(`?<Constant "%c%c%c%c%c%c%c%c">` >> 8) & 0xff
        MOV     R2,#buffer & 0xff
        MOV     R3,#(buffer >> 8) & 0xff
        LCALL   ??sprintf?relay
        MOV     A,#0x10
        LCALL   ?DEALLOC_XSTACK8
        CFI CFA_XSP16 add(XSP16, 34)
//  322       //LCD_P8x16Str(8,0, "ID:");
//  323       //LCD_P8x16Str(33,0,buffer);    
//  324       //memset(buffer,0,8);   
//  325       zb_SendDataRequest(0X0,RC522VALUE_CMD_ID,8,Card_Id,0,FALSE,AF_DEFAULT_RADIUS);
        ; Setup parameters for call to function zb_SendDataRequest
        MOV     ?V0 + 0,#0x1e
        MOV     R0,#?V0 + 0
        LCALL   ?PUSH_XSTACK_I_ONE
        CFI CFA_XSP16 add(XSP16, 35)
        MOV     ?V0 + 0,#0x0
        MOV     R0,#?V0 + 0
        LCALL   ?PUSH_XSTACK_I_ONE
        CFI CFA_XSP16 add(XSP16, 36)
        MOV     R0,#?V0 + 0
        LCALL   ?PUSH_XSTACK_I_ONE
        CFI CFA_XSP16 add(XSP16, 37)
        MOV     A,#0x3
        LCALL   ?XSTACK_DISP0_8
        MOV     ?V0 + 0,DPL
        MOV     ?V0 + 1,DPH
        MOV     R0,#?V0 + 0
        LCALL   ?PUSH_XSTACK_I_TWO
        CFI CFA_XSP16 add(XSP16, 39)
        MOV     R1,#0x8
        MOV     R4,#0x5
        MOV     R5,#0x0
        MOV     R2,#0x0
        MOV     R3,#0x0
        LCALL   ??zb_SendDataRequest?relay
        MOV     A,#0x5
        LCALL   ?DEALLOC_XSTACK8
        CFI CFA_XSP16 add(XSP16, 34)
//  326     }
//  327   }
//  328   //*/
//  329   /*
//  330   if(event&RC522b_PERIOD_EVT)
//  331   {
//  332     osal_start_timerEx(sapi_TaskID,RC522b_PERIOD_EVT,2000);
//  333     unsigned char asc_16[16]={'0','1','2','3','4','5','6','7','8','9','A','B','C','D','E','F'},i;
//  334     unsigned char Card_Id[9]; //+
//  335     
//  336     if(IC_Test()==1)
//  337     {   
//  338       //16ASC IC
//  339       for(i=0;i<4;i++)
//  340       {
//  341         Card_Id[i*2]=asc_16[qq[i]/16];
//  342         Card_Id[i*2+1]=asc_16[qq[i]%16];        
//  343       } 
//  344       Card_Id[8]=RfpScan();
//  345       zb_SendDataRequest(0X0,RC522bVALUE_CMD_ID,9,Card_Id,0,FALSE,AF_DEFAULT_RADIUS);
//  346     }
//  347   }
//  348   //*/
//  349 }
??zb_HandleOsalEvent_1:
        MOV     A,#0x18
        LJMP    ?Subroutine2 & 0xFFFF
        CFI EndBlock cfiBlock73

        RSEG BANKED_CODE:CODE:NOROOT(0)
?Subroutine18:
        CFI Block cfiCond74 Using cfiCommon0
        CFI NoFunction
        CFI Conditional ??CrossCallReturnLabel_30
        CFI R6 load(1, XDATA, add(CFA_XSP16, literal(-16)))
        CFI VB load(1, XDATA, add(CFA_XSP16, literal(-15)))
        CFI V0 load(1, XDATA, add(CFA_XSP16, literal(-14)))
        CFI V1 load(1, XDATA, add(CFA_XSP16, literal(-13)))
        CFI V2 load(1, XDATA, add(CFA_XSP16, literal(-12)))
        CFI V3 load(1, XDATA, add(CFA_XSP16, literal(-11)))
        CFI V4 load(1, XDATA, add(CFA_XSP16, literal(-10)))
        CFI V5 load(1, XDATA, add(CFA_XSP16, literal(-9)))
        CFI V6 load(1, XDATA, add(CFA_XSP16, literal(-8)))
        CFI V7 load(1, XDATA, add(CFA_XSP16, literal(-7)))
        CFI R7 load(1, XDATA, add(CFA_XSP16, literal(-6)))
        CFI ?RET_LOW load(1, XDATA, add(CFA_XSP16, literal(-5)))
        CFI ?RET_HIGH load(1, XDATA, add(CFA_XSP16, literal(-4)))
        CFI ?BRET_EXT load(1, XDATA, add(CFA_XSP16, literal(-3)))
        CFI DPL0 load(1, XDATA, add(CFA_XSP16, literal(-2)))
        CFI DPH0 load(1, XDATA, add(CFA_XSP16, literal(-1)))
        CFI CFA_SP SP+0
        CFI CFA_XSP16 add(XSP16, 17)
        CFI Block cfiCond75 Using cfiCommon0
        CFI (cfiCond75) NoFunction
        CFI (cfiCond75) Conditional ??CrossCallReturnLabel_31
        CFI (cfiCond75) R6 load(1, XDATA, add(CFA_XSP16, literal(-16)))
        CFI (cfiCond75) VB load(1, XDATA, add(CFA_XSP16, literal(-15)))
        CFI (cfiCond75) V0 load(1, XDATA, add(CFA_XSP16, literal(-14)))
        CFI (cfiCond75) V1 load(1, XDATA, add(CFA_XSP16, literal(-13)))
        CFI (cfiCond75) V2 load(1, XDATA, add(CFA_XSP16, literal(-12)))
        CFI (cfiCond75) V3 load(1, XDATA, add(CFA_XSP16, literal(-11)))
        CFI (cfiCond75) V4 load(1, XDATA, add(CFA_XSP16, literal(-10)))
        CFI (cfiCond75) V5 load(1, XDATA, add(CFA_XSP16, literal(-9)))
        CFI (cfiCond75) V6 load(1, XDATA, add(CFA_XSP16, literal(-8)))
        CFI (cfiCond75) V7 load(1, XDATA, add(CFA_XSP16, literal(-7)))
        CFI (cfiCond75) R7 load(1, XDATA, add(CFA_XSP16, literal(-6)))
        CFI (cfiCond75) ?RET_LOW load(1, XDATA, add(CFA_XSP16, literal(-5)))
        CFI (cfiCond75) ?RET_HIGH load(1, XDATA, add(CFA_XSP16, literal(-4)))
        CFI (cfiCond75) ?BRET_EXT load(1, XDATA, add(CFA_XSP16, literal(-3)))
        CFI (cfiCond75) DPL0 load(1, XDATA, add(CFA_XSP16, literal(-2)))
        CFI (cfiCond75) DPH0 load(1, XDATA, add(CFA_XSP16, literal(-1)))
        CFI (cfiCond75) CFA_SP SP+0
        CFI (cfiCond75) CFA_XSP16 add(XSP16, 17)
        CFI Block cfiCond76 Using cfiCommon0
        CFI (cfiCond76) NoFunction
        CFI (cfiCond76) Conditional ??CrossCallReturnLabel_32
        CFI (cfiCond76) R6 load(1, XDATA, add(CFA_XSP16, literal(-16)))
        CFI (cfiCond76) VB load(1, XDATA, add(CFA_XSP16, literal(-15)))
        CFI (cfiCond76) V0 load(1, XDATA, add(CFA_XSP16, literal(-14)))
        CFI (cfiCond76) V1 load(1, XDATA, add(CFA_XSP16, literal(-13)))
        CFI (cfiCond76) V2 load(1, XDATA, add(CFA_XSP16, literal(-12)))
        CFI (cfiCond76) V3 load(1, XDATA, add(CFA_XSP16, literal(-11)))
        CFI (cfiCond76) V4 load(1, XDATA, add(CFA_XSP16, literal(-10)))
        CFI (cfiCond76) V5 load(1, XDATA, add(CFA_XSP16, literal(-9)))
        CFI (cfiCond76) V6 load(1, XDATA, add(CFA_XSP16, literal(-8)))
        CFI (cfiCond76) V7 load(1, XDATA, add(CFA_XSP16, literal(-7)))
        CFI (cfiCond76) R7 load(1, XDATA, add(CFA_XSP16, literal(-6)))
        CFI (cfiCond76) ?RET_LOW load(1, XDATA, add(CFA_XSP16, literal(-5)))
        CFI (cfiCond76) ?RET_HIGH load(1, XDATA, add(CFA_XSP16, literal(-4)))
        CFI (cfiCond76) ?BRET_EXT load(1, XDATA, add(CFA_XSP16, literal(-3)))
        CFI (cfiCond76) DPL0 load(1, XDATA, add(CFA_XSP16, literal(-2)))
        CFI (cfiCond76) DPH0 load(1, XDATA, add(CFA_XSP16, literal(-1)))
        CFI (cfiCond76) CFA_SP SP+0
        CFI (cfiCond76) CFA_XSP16 add(XSP16, 17)
        CFI Block cfiCond77 Using cfiCommon0
        CFI (cfiCond77) NoFunction
        CFI (cfiCond77) Conditional ??CrossCallReturnLabel_33
        CFI (cfiCond77) R6 load(1, XDATA, add(CFA_XSP16, literal(-10)))
        CFI (cfiCond77) VB load(1, XDATA, add(CFA_XSP16, literal(-9)))
        CFI (cfiCond77) V0 load(1, XDATA, add(CFA_XSP16, literal(-8)))
        CFI (cfiCond77) V1 load(1, XDATA, add(CFA_XSP16, literal(-7)))
        CFI (cfiCond77) R7 load(1, XDATA, add(CFA_XSP16, literal(-6)))
        CFI (cfiCond77) ?RET_LOW load(1, XDATA, add(CFA_XSP16, literal(-5)))
        CFI (cfiCond77) ?RET_HIGH load(1, XDATA, add(CFA_XSP16, literal(-4)))
        CFI (cfiCond77) ?BRET_EXT load(1, XDATA, add(CFA_XSP16, literal(-3)))
        CFI (cfiCond77) DPL0 load(1, XDATA, add(CFA_XSP16, literal(-2)))
        CFI (cfiCond77) DPH0 load(1, XDATA, add(CFA_XSP16, literal(-1)))
        CFI (cfiCond77) CFA_SP SP+0
        CFI (cfiCond77) CFA_XSP16 add(XSP16, 34)
        CFI Block cfiPicker78 Using cfiCommon1
        CFI (cfiPicker78) NoFunction
        CFI (cfiPicker78) Picker
        MOV     A,R7
        SUBB    A,#0x0
        MOV     C,0xD0 /* PSW */.2
        XRL     A,PSW
        RLC     A
        RET
        CFI EndBlock cfiCond74
        CFI EndBlock cfiCond75
        CFI EndBlock cfiCond76
        CFI EndBlock cfiCond77
        CFI EndBlock cfiPicker78

        RSEG BANKED_CODE:CODE:NOROOT(0)
?Subroutine13:
        CFI Block cfiCond79 Using cfiCommon0
        CFI NoFunction
        CFI Conditional ??CrossCallReturnLabel_17
        CFI R6 load(1, XDATA, add(CFA_XSP16, literal(-10)))
        CFI VB load(1, XDATA, add(CFA_XSP16, literal(-9)))
        CFI V0 load(1, XDATA, add(CFA_XSP16, literal(-8)))
        CFI V1 load(1, XDATA, add(CFA_XSP16, literal(-7)))
        CFI R7 load(1, XDATA, add(CFA_XSP16, literal(-6)))
        CFI ?RET_LOW load(1, XDATA, add(CFA_XSP16, literal(-5)))
        CFI ?RET_HIGH load(1, XDATA, add(CFA_XSP16, literal(-4)))
        CFI ?BRET_EXT load(1, XDATA, add(CFA_XSP16, literal(-3)))
        CFI DPL0 load(1, XDATA, add(CFA_XSP16, literal(-2)))
        CFI DPH0 load(1, XDATA, add(CFA_XSP16, literal(-1)))
        CFI CFA_SP SP+0
        CFI CFA_XSP16 add(XSP16, 36)
        CFI Block cfiCond80 Using cfiCommon0
        CFI (cfiCond80) NoFunction
        CFI (cfiCond80) Conditional ??CrossCallReturnLabel_18
        CFI (cfiCond80) R6 load(1, XDATA, add(CFA_XSP16, literal(-10)))
        CFI (cfiCond80) VB load(1, XDATA, add(CFA_XSP16, literal(-9)))
        CFI (cfiCond80) V0 load(1, XDATA, add(CFA_XSP16, literal(-8)))
        CFI (cfiCond80) V1 load(1, XDATA, add(CFA_XSP16, literal(-7)))
        CFI (cfiCond80) R7 load(1, XDATA, add(CFA_XSP16, literal(-6)))
        CFI (cfiCond80) ?RET_LOW load(1, XDATA, add(CFA_XSP16, literal(-5)))
        CFI (cfiCond80) ?RET_HIGH load(1, XDATA, add(CFA_XSP16, literal(-4)))
        CFI (cfiCond80) ?BRET_EXT load(1, XDATA, add(CFA_XSP16, literal(-3)))
        CFI (cfiCond80) DPL0 load(1, XDATA, add(CFA_XSP16, literal(-2)))
        CFI (cfiCond80) DPH0 load(1, XDATA, add(CFA_XSP16, literal(-1)))
        CFI (cfiCond80) CFA_SP SP+0
        CFI (cfiCond80) CFA_XSP16 add(XSP16, 38)
        CFI Block cfiCond81 Using cfiCommon0
        CFI (cfiCond81) NoFunction
        CFI (cfiCond81) Conditional ??CrossCallReturnLabel_19
        CFI (cfiCond81) R6 load(1, XDATA, add(CFA_XSP16, literal(-10)))
        CFI (cfiCond81) VB load(1, XDATA, add(CFA_XSP16, literal(-9)))
        CFI (cfiCond81) V0 load(1, XDATA, add(CFA_XSP16, literal(-8)))
        CFI (cfiCond81) V1 load(1, XDATA, add(CFA_XSP16, literal(-7)))
        CFI (cfiCond81) R7 load(1, XDATA, add(CFA_XSP16, literal(-6)))
        CFI (cfiCond81) ?RET_LOW load(1, XDATA, add(CFA_XSP16, literal(-5)))
        CFI (cfiCond81) ?RET_HIGH load(1, XDATA, add(CFA_XSP16, literal(-4)))
        CFI (cfiCond81) ?BRET_EXT load(1, XDATA, add(CFA_XSP16, literal(-3)))
        CFI (cfiCond81) DPL0 load(1, XDATA, add(CFA_XSP16, literal(-2)))
        CFI (cfiCond81) DPH0 load(1, XDATA, add(CFA_XSP16, literal(-1)))
        CFI (cfiCond81) CFA_SP SP+0
        CFI (cfiCond81) CFA_XSP16 add(XSP16, 40)
        CFI Block cfiCond82 Using cfiCommon0
        CFI (cfiCond82) NoFunction
        CFI (cfiCond82) Conditional ??CrossCallReturnLabel_20
        CFI (cfiCond82) R6 load(1, XDATA, add(CFA_XSP16, literal(-10)))
        CFI (cfiCond82) VB load(1, XDATA, add(CFA_XSP16, literal(-9)))
        CFI (cfiCond82) V0 load(1, XDATA, add(CFA_XSP16, literal(-8)))
        CFI (cfiCond82) V1 load(1, XDATA, add(CFA_XSP16, literal(-7)))
        CFI (cfiCond82) R7 load(1, XDATA, add(CFA_XSP16, literal(-6)))
        CFI (cfiCond82) ?RET_LOW load(1, XDATA, add(CFA_XSP16, literal(-5)))
        CFI (cfiCond82) ?RET_HIGH load(1, XDATA, add(CFA_XSP16, literal(-4)))
        CFI (cfiCond82) ?BRET_EXT load(1, XDATA, add(CFA_XSP16, literal(-3)))
        CFI (cfiCond82) DPL0 load(1, XDATA, add(CFA_XSP16, literal(-2)))
        CFI (cfiCond82) DPH0 load(1, XDATA, add(CFA_XSP16, literal(-1)))
        CFI (cfiCond82) CFA_SP SP+0
        CFI (cfiCond82) CFA_XSP16 add(XSP16, 42)
        CFI Block cfiCond83 Using cfiCommon0
        CFI (cfiCond83) NoFunction
        CFI (cfiCond83) Conditional ??CrossCallReturnLabel_21
        CFI (cfiCond83) R6 load(1, XDATA, add(CFA_XSP16, literal(-10)))
        CFI (cfiCond83) VB load(1, XDATA, add(CFA_XSP16, literal(-9)))
        CFI (cfiCond83) V0 load(1, XDATA, add(CFA_XSP16, literal(-8)))
        CFI (cfiCond83) V1 load(1, XDATA, add(CFA_XSP16, literal(-7)))
        CFI (cfiCond83) R7 load(1, XDATA, add(CFA_XSP16, literal(-6)))
        CFI (cfiCond83) ?RET_LOW load(1, XDATA, add(CFA_XSP16, literal(-5)))
        CFI (cfiCond83) ?RET_HIGH load(1, XDATA, add(CFA_XSP16, literal(-4)))
        CFI (cfiCond83) ?BRET_EXT load(1, XDATA, add(CFA_XSP16, literal(-3)))
        CFI (cfiCond83) DPL0 load(1, XDATA, add(CFA_XSP16, literal(-2)))
        CFI (cfiCond83) DPH0 load(1, XDATA, add(CFA_XSP16, literal(-1)))
        CFI (cfiCond83) CFA_SP SP+0
        CFI (cfiCond83) CFA_XSP16 add(XSP16, 44)
        CFI Block cfiCond84 Using cfiCommon0
        CFI (cfiCond84) NoFunction
        CFI (cfiCond84) Conditional ??CrossCallReturnLabel_22
        CFI (cfiCond84) R6 load(1, XDATA, add(CFA_XSP16, literal(-10)))
        CFI (cfiCond84) VB load(1, XDATA, add(CFA_XSP16, literal(-9)))
        CFI (cfiCond84) V0 load(1, XDATA, add(CFA_XSP16, literal(-8)))
        CFI (cfiCond84) V1 load(1, XDATA, add(CFA_XSP16, literal(-7)))
        CFI (cfiCond84) R7 load(1, XDATA, add(CFA_XSP16, literal(-6)))
        CFI (cfiCond84) ?RET_LOW load(1, XDATA, add(CFA_XSP16, literal(-5)))
        CFI (cfiCond84) ?RET_HIGH load(1, XDATA, add(CFA_XSP16, literal(-4)))
        CFI (cfiCond84) ?BRET_EXT load(1, XDATA, add(CFA_XSP16, literal(-3)))
        CFI (cfiCond84) DPL0 load(1, XDATA, add(CFA_XSP16, literal(-2)))
        CFI (cfiCond84) DPH0 load(1, XDATA, add(CFA_XSP16, literal(-1)))
        CFI (cfiCond84) CFA_SP SP+0
        CFI (cfiCond84) CFA_XSP16 add(XSP16, 46)
        CFI Block cfiCond85 Using cfiCommon0
        CFI (cfiCond85) NoFunction
        CFI (cfiCond85) Conditional ??CrossCallReturnLabel_23
        CFI (cfiCond85) R6 load(1, XDATA, add(CFA_XSP16, literal(-10)))
        CFI (cfiCond85) VB load(1, XDATA, add(CFA_XSP16, literal(-9)))
        CFI (cfiCond85) V0 load(1, XDATA, add(CFA_XSP16, literal(-8)))
        CFI (cfiCond85) V1 load(1, XDATA, add(CFA_XSP16, literal(-7)))
        CFI (cfiCond85) R7 load(1, XDATA, add(CFA_XSP16, literal(-6)))
        CFI (cfiCond85) ?RET_LOW load(1, XDATA, add(CFA_XSP16, literal(-5)))
        CFI (cfiCond85) ?RET_HIGH load(1, XDATA, add(CFA_XSP16, literal(-4)))
        CFI (cfiCond85) ?BRET_EXT load(1, XDATA, add(CFA_XSP16, literal(-3)))
        CFI (cfiCond85) DPL0 load(1, XDATA, add(CFA_XSP16, literal(-2)))
        CFI (cfiCond85) DPH0 load(1, XDATA, add(CFA_XSP16, literal(-1)))
        CFI (cfiCond85) CFA_SP SP+0
        CFI (cfiCond85) CFA_XSP16 add(XSP16, 48)
        CFI Block cfiPicker86 Using cfiCommon1
        CFI (cfiPicker86) NoFunction
        CFI (cfiPicker86) Picker
        MOVX    A,@DPTR
        MOV     ?V0 + 0,A
        MOV     R0,#?V0 + 0
        RET
        CFI EndBlock cfiCond79
        CFI EndBlock cfiCond80
        CFI EndBlock cfiCond81
        CFI EndBlock cfiCond82
        CFI EndBlock cfiCond83
        CFI EndBlock cfiCond84
        CFI EndBlock cfiCond85
        CFI EndBlock cfiPicker86

        RSEG BANKED_CODE:CODE:NOROOT(0)
?Subroutine8:
        CFI Block cfiCond87 Using cfiCommon0
        CFI NoFunction
        CFI Conditional ??CrossCallReturnLabel_49
        CFI R6 load(1, XDATA, add(CFA_XSP16, literal(-15)))
        CFI VB load(1, XDATA, add(CFA_XSP16, literal(-14)))
        CFI V0 load(1, XDATA, add(CFA_XSP16, literal(-13)))
        CFI V1 load(1, XDATA, add(CFA_XSP16, literal(-12)))
        CFI V2 load(1, XDATA, add(CFA_XSP16, literal(-11)))
        CFI V3 load(1, XDATA, add(CFA_XSP16, literal(-10)))
        CFI V4 load(1, XDATA, add(CFA_XSP16, literal(-9)))
        CFI V5 load(1, XDATA, add(CFA_XSP16, literal(-8)))
        CFI V6 load(1, XDATA, add(CFA_XSP16, literal(-7)))
        CFI R7 load(1, XDATA, add(CFA_XSP16, literal(-6)))
        CFI ?RET_LOW load(1, XDATA, add(CFA_XSP16, literal(-5)))
        CFI ?RET_HIGH load(1, XDATA, add(CFA_XSP16, literal(-4)))
        CFI ?BRET_EXT load(1, XDATA, add(CFA_XSP16, literal(-3)))
        CFI DPL0 load(1, XDATA, add(CFA_XSP16, literal(-2)))
        CFI DPH0 load(1, XDATA, add(CFA_XSP16, literal(-1)))
        CFI CFA_SP SP+0
        CFI CFA_XSP16 add(XSP16, 15)
        CFI Block cfiCond88 Using cfiCommon0
        CFI (cfiCond88) NoFunction
        CFI (cfiCond88) Conditional ??CrossCallReturnLabel_50
        CFI (cfiCond88) R6 load(1, XDATA, add(CFA_XSP16, literal(-17)))
        CFI (cfiCond88) VB load(1, XDATA, add(CFA_XSP16, literal(-16)))
        CFI (cfiCond88) V0 load(1, XDATA, add(CFA_XSP16, literal(-15)))
        CFI (cfiCond88) V1 load(1, XDATA, add(CFA_XSP16, literal(-14)))
        CFI (cfiCond88) V2 load(1, XDATA, add(CFA_XSP16, literal(-13)))
        CFI (cfiCond88) V3 load(1, XDATA, add(CFA_XSP16, literal(-12)))
        CFI (cfiCond88) V4 load(1, XDATA, add(CFA_XSP16, literal(-11)))
        CFI (cfiCond88) V5 load(1, XDATA, add(CFA_XSP16, literal(-10)))
        CFI (cfiCond88) V6 load(1, XDATA, add(CFA_XSP16, literal(-9)))
        CFI (cfiCond88) V7 load(1, XDATA, add(CFA_XSP16, literal(-8)))
        CFI (cfiCond88) V8 load(1, XDATA, add(CFA_XSP16, literal(-7)))
        CFI (cfiCond88) R7 load(1, XDATA, add(CFA_XSP16, literal(-6)))
        CFI (cfiCond88) ?RET_LOW load(1, XDATA, add(CFA_XSP16, literal(-5)))
        CFI (cfiCond88) ?RET_HIGH load(1, XDATA, add(CFA_XSP16, literal(-4)))
        CFI (cfiCond88) ?BRET_EXT load(1, XDATA, add(CFA_XSP16, literal(-3)))
        CFI (cfiCond88) DPL0 load(1, XDATA, add(CFA_XSP16, literal(-2)))
        CFI (cfiCond88) DPH0 load(1, XDATA, add(CFA_XSP16, literal(-1)))
        CFI (cfiCond88) CFA_SP SP+0
        CFI (cfiCond88) CFA_XSP16 add(XSP16, 17)
        CFI Block cfiPicker89 Using cfiCommon1
        CFI (cfiPicker89) NoFunction
        CFI (cfiPicker89) Picker
        MOV     A,R6
        ADD     A,?V0 + 2
        MOV     DPL,A
        MOV     A,R7
        CFI EndBlock cfiCond87
        CFI EndBlock cfiCond88
        CFI EndBlock cfiPicker89
        REQUIRE ??Subroutine24_0
        ; // Fall through to label ??Subroutine24_0

        RSEG BANKED_CODE:CODE:NOROOT(0)
??Subroutine24_0:
        CFI Block cfiCond90 Using cfiCommon0
        CFI NoFunction
        CFI Conditional ??CrossCallReturnLabel_47
        CFI R6 load(1, XDATA, add(CFA_XSP16, literal(-15)))
        CFI VB load(1, XDATA, add(CFA_XSP16, literal(-14)))
        CFI V0 load(1, XDATA, add(CFA_XSP16, literal(-13)))
        CFI V1 load(1, XDATA, add(CFA_XSP16, literal(-12)))
        CFI V2 load(1, XDATA, add(CFA_XSP16, literal(-11)))
        CFI V3 load(1, XDATA, add(CFA_XSP16, literal(-10)))
        CFI V4 load(1, XDATA, add(CFA_XSP16, literal(-9)))
        CFI V5 load(1, XDATA, add(CFA_XSP16, literal(-8)))
        CFI V6 load(1, XDATA, add(CFA_XSP16, literal(-7)))
        CFI R7 load(1, XDATA, add(CFA_XSP16, literal(-6)))
        CFI ?RET_LOW load(1, XDATA, add(CFA_XSP16, literal(-5)))
        CFI ?RET_HIGH load(1, XDATA, add(CFA_XSP16, literal(-4)))
        CFI ?BRET_EXT load(1, XDATA, add(CFA_XSP16, literal(-3)))
        CFI DPL0 load(1, XDATA, add(CFA_XSP16, literal(-2)))
        CFI DPH0 load(1, XDATA, add(CFA_XSP16, literal(-1)))
        CFI CFA_SP SP+0
        CFI CFA_XSP16 add(XSP16, 15)
        CFI Block cfiCond91 Using cfiCommon0
        CFI (cfiCond91) NoFunction
        CFI (cfiCond91) Conditional ??CrossCallReturnLabel_48
        CFI (cfiCond91) R6 load(1, XDATA, add(CFA_XSP16, literal(-10)))
        CFI (cfiCond91) VB load(1, XDATA, add(CFA_XSP16, literal(-9)))
        CFI (cfiCond91) V0 load(1, XDATA, add(CFA_XSP16, literal(-8)))
        CFI (cfiCond91) V1 load(1, XDATA, add(CFA_XSP16, literal(-7)))
        CFI (cfiCond91) R7 load(1, XDATA, add(CFA_XSP16, literal(-6)))
        CFI (cfiCond91) ?RET_LOW load(1, XDATA, add(CFA_XSP16, literal(-5)))
        CFI (cfiCond91) ?RET_HIGH load(1, XDATA, add(CFA_XSP16, literal(-4)))
        CFI (cfiCond91) ?BRET_EXT load(1, XDATA, add(CFA_XSP16, literal(-3)))
        CFI (cfiCond91) DPL0 load(1, XDATA, add(CFA_XSP16, literal(-2)))
        CFI (cfiCond91) DPH0 load(1, XDATA, add(CFA_XSP16, literal(-1)))
        CFI (cfiCond91) CFA_SP SP+0
        CFI (cfiCond91) CFA_XSP16 add(XSP16, 34)
        CFI Block cfiCond92 Using cfiCommon0
        CFI (cfiCond92) NoFunction
        CFI (cfiCond92) Conditional ??CrossCallReturnLabel_49
        CFI (cfiCond92) R6 load(1, XDATA, add(CFA_XSP16, literal(-15)))
        CFI (cfiCond92) VB load(1, XDATA, add(CFA_XSP16, literal(-14)))
        CFI (cfiCond92) V0 load(1, XDATA, add(CFA_XSP16, literal(-13)))
        CFI (cfiCond92) V1 load(1, XDATA, add(CFA_XSP16, literal(-12)))
        CFI (cfiCond92) V2 load(1, XDATA, add(CFA_XSP16, literal(-11)))
        CFI (cfiCond92) V3 load(1, XDATA, add(CFA_XSP16, literal(-10)))
        CFI (cfiCond92) V4 load(1, XDATA, add(CFA_XSP16, literal(-9)))
        CFI (cfiCond92) V5 load(1, XDATA, add(CFA_XSP16, literal(-8)))
        CFI (cfiCond92) V6 load(1, XDATA, add(CFA_XSP16, literal(-7)))
        CFI (cfiCond92) R7 load(1, XDATA, add(CFA_XSP16, literal(-6)))
        CFI (cfiCond92) ?RET_LOW load(1, XDATA, add(CFA_XSP16, literal(-5)))
        CFI (cfiCond92) ?RET_HIGH load(1, XDATA, add(CFA_XSP16, literal(-4)))
        CFI (cfiCond92) ?BRET_EXT load(1, XDATA, add(CFA_XSP16, literal(-3)))
        CFI (cfiCond92) DPL0 load(1, XDATA, add(CFA_XSP16, literal(-2)))
        CFI (cfiCond92) DPH0 load(1, XDATA, add(CFA_XSP16, literal(-1)))
        CFI (cfiCond92) CFA_SP SP+0
        CFI (cfiCond92) CFA_XSP16 add(XSP16, 15)
        CFI Block cfiCond93 Using cfiCommon0
        CFI (cfiCond93) NoFunction
        CFI (cfiCond93) Conditional ??CrossCallReturnLabel_50
        CFI (cfiCond93) R6 load(1, XDATA, add(CFA_XSP16, literal(-17)))
        CFI (cfiCond93) VB load(1, XDATA, add(CFA_XSP16, literal(-16)))
        CFI (cfiCond93) V0 load(1, XDATA, add(CFA_XSP16, literal(-15)))
        CFI (cfiCond93) V1 load(1, XDATA, add(CFA_XSP16, literal(-14)))
        CFI (cfiCond93) V2 load(1, XDATA, add(CFA_XSP16, literal(-13)))
        CFI (cfiCond93) V3 load(1, XDATA, add(CFA_XSP16, literal(-12)))
        CFI (cfiCond93) V4 load(1, XDATA, add(CFA_XSP16, literal(-11)))
        CFI (cfiCond93) V5 load(1, XDATA, add(CFA_XSP16, literal(-10)))
        CFI (cfiCond93) V6 load(1, XDATA, add(CFA_XSP16, literal(-9)))
        CFI (cfiCond93) V7 load(1, XDATA, add(CFA_XSP16, literal(-8)))
        CFI (cfiCond93) V8 load(1, XDATA, add(CFA_XSP16, literal(-7)))
        CFI (cfiCond93) R7 load(1, XDATA, add(CFA_XSP16, literal(-6)))
        CFI (cfiCond93) ?RET_LOW load(1, XDATA, add(CFA_XSP16, literal(-5)))
        CFI (cfiCond93) ?RET_HIGH load(1, XDATA, add(CFA_XSP16, literal(-4)))
        CFI (cfiCond93) ?BRET_EXT load(1, XDATA, add(CFA_XSP16, literal(-3)))
        CFI (cfiCond93) DPL0 load(1, XDATA, add(CFA_XSP16, literal(-2)))
        CFI (cfiCond93) DPH0 load(1, XDATA, add(CFA_XSP16, literal(-1)))
        CFI (cfiCond93) CFA_SP SP+0
        CFI (cfiCond93) CFA_XSP16 add(XSP16, 17)
        CFI Block cfiPicker94 Using cfiCommon1
        CFI (cfiPicker94) NoFunction
        CFI (cfiPicker94) Picker
        ADDC    A,#0x0
        MOV     DPH,A
        MOVX    A,@DPTR
        RET
        CFI EndBlock cfiCond90
        CFI EndBlock cfiCond91
        CFI EndBlock cfiCond92
        CFI EndBlock cfiCond93
        CFI EndBlock cfiPicker94

        RSEG BANKED_CODE:CODE:NOROOT(0)
?Subroutine7:
        CFI Block cfiCond95 Using cfiCommon0
        CFI NoFunction
        CFI Conditional ??CrossCallReturnLabel_6
        CFI R6 load(1, XDATA, add(CFA_XSP16, literal(-10)))
        CFI VB load(1, XDATA, add(CFA_XSP16, literal(-9)))
        CFI V0 load(1, XDATA, add(CFA_XSP16, literal(-8)))
        CFI V1 load(1, XDATA, add(CFA_XSP16, literal(-7)))
        CFI R7 load(1, XDATA, add(CFA_XSP16, literal(-6)))
        CFI ?RET_LOW load(1, XDATA, add(CFA_XSP16, literal(-5)))
        CFI ?RET_HIGH load(1, XDATA, add(CFA_XSP16, literal(-4)))
        CFI ?BRET_EXT load(1, XDATA, add(CFA_XSP16, literal(-3)))
        CFI DPL0 load(1, XDATA, add(CFA_XSP16, literal(-2)))
        CFI DPH0 load(1, XDATA, add(CFA_XSP16, literal(-1)))
        CFI CFA_SP SP+0
        CFI CFA_XSP16 add(XSP16, 34)
        CFI Block cfiCond96 Using cfiCommon0
        CFI (cfiCond96) NoFunction
        CFI (cfiCond96) Conditional ??CrossCallReturnLabel_7
        CFI (cfiCond96) R6 load(1, XDATA, add(CFA_XSP16, literal(-10)))
        CFI (cfiCond96) VB load(1, XDATA, add(CFA_XSP16, literal(-9)))
        CFI (cfiCond96) V0 load(1, XDATA, add(CFA_XSP16, literal(-8)))
        CFI (cfiCond96) V1 load(1, XDATA, add(CFA_XSP16, literal(-7)))
        CFI (cfiCond96) R7 load(1, XDATA, add(CFA_XSP16, literal(-6)))
        CFI (cfiCond96) ?RET_LOW load(1, XDATA, add(CFA_XSP16, literal(-5)))
        CFI (cfiCond96) ?RET_HIGH load(1, XDATA, add(CFA_XSP16, literal(-4)))
        CFI (cfiCond96) ?BRET_EXT load(1, XDATA, add(CFA_XSP16, literal(-3)))
        CFI (cfiCond96) DPL0 load(1, XDATA, add(CFA_XSP16, literal(-2)))
        CFI (cfiCond96) DPH0 load(1, XDATA, add(CFA_XSP16, literal(-1)))
        CFI (cfiCond96) CFA_SP SP+0
        CFI (cfiCond96) CFA_XSP16 add(XSP16, 34)
        CFI Block cfiPicker97 Using cfiCommon1
        CFI (cfiPicker97) NoFunction
        CFI (cfiPicker97) Picker
        MOV     A,DPL
        ADD     A,R2
        MOV     DPL,A
        MOV     A,DPH
        ADDC    A,#0x0
        MOV     DPH,A
        MOVX    A,@DPTR
        MOV     DPL,R0
        MOV     DPH,R1
        RET
        CFI EndBlock cfiCond95
        CFI EndBlock cfiCond96
        CFI EndBlock cfiPicker97

        RSEG BANKED_CODE:CODE:NOROOT(0)
?Subroutine3:
        CFI Block cfiCond98 Using cfiCommon0
        CFI NoFunction
        CFI Conditional ??CrossCallReturnLabel_51
        CFI R6 load(1, XDATA, add(CFA_XSP16, literal(-16)))
        CFI VB load(1, XDATA, add(CFA_XSP16, literal(-15)))
        CFI V0 load(1, XDATA, add(CFA_XSP16, literal(-14)))
        CFI V1 load(1, XDATA, add(CFA_XSP16, literal(-13)))
        CFI V2 load(1, XDATA, add(CFA_XSP16, literal(-12)))
        CFI V3 load(1, XDATA, add(CFA_XSP16, literal(-11)))
        CFI V4 load(1, XDATA, add(CFA_XSP16, literal(-10)))
        CFI V5 load(1, XDATA, add(CFA_XSP16, literal(-9)))
        CFI V6 load(1, XDATA, add(CFA_XSP16, literal(-8)))
        CFI V7 load(1, XDATA, add(CFA_XSP16, literal(-7)))
        CFI R7 load(1, XDATA, add(CFA_XSP16, literal(-6)))
        CFI ?RET_LOW load(1, XDATA, add(CFA_XSP16, literal(-5)))
        CFI ?RET_HIGH load(1, XDATA, add(CFA_XSP16, literal(-4)))
        CFI ?BRET_EXT load(1, XDATA, add(CFA_XSP16, literal(-3)))
        CFI DPL0 load(1, XDATA, add(CFA_XSP16, literal(-2)))
        CFI DPH0 load(1, XDATA, add(CFA_XSP16, literal(-1)))
        CFI CFA_SP SP+0
        CFI CFA_XSP16 add(XSP16, 17)
        CFI Block cfiCond99 Using cfiCommon0
        CFI (cfiCond99) NoFunction
        CFI (cfiCond99) Conditional ??CrossCallReturnLabel_52
        CFI (cfiCond99) R6 load(1, XDATA, add(CFA_XSP16, literal(-16)))
        CFI (cfiCond99) VB load(1, XDATA, add(CFA_XSP16, literal(-15)))
        CFI (cfiCond99) V0 load(1, XDATA, add(CFA_XSP16, literal(-14)))
        CFI (cfiCond99) V1 load(1, XDATA, add(CFA_XSP16, literal(-13)))
        CFI (cfiCond99) V2 load(1, XDATA, add(CFA_XSP16, literal(-12)))
        CFI (cfiCond99) V3 load(1, XDATA, add(CFA_XSP16, literal(-11)))
        CFI (cfiCond99) V4 load(1, XDATA, add(CFA_XSP16, literal(-10)))
        CFI (cfiCond99) V5 load(1, XDATA, add(CFA_XSP16, literal(-9)))
        CFI (cfiCond99) V6 load(1, XDATA, add(CFA_XSP16, literal(-8)))
        CFI (cfiCond99) V7 load(1, XDATA, add(CFA_XSP16, literal(-7)))
        CFI (cfiCond99) R7 load(1, XDATA, add(CFA_XSP16, literal(-6)))
        CFI (cfiCond99) ?RET_LOW load(1, XDATA, add(CFA_XSP16, literal(-5)))
        CFI (cfiCond99) ?RET_HIGH load(1, XDATA, add(CFA_XSP16, literal(-4)))
        CFI (cfiCond99) ?BRET_EXT load(1, XDATA, add(CFA_XSP16, literal(-3)))
        CFI (cfiCond99) DPL0 load(1, XDATA, add(CFA_XSP16, literal(-2)))
        CFI (cfiCond99) DPH0 load(1, XDATA, add(CFA_XSP16, literal(-1)))
        CFI (cfiCond99) CFA_SP SP+0
        CFI (cfiCond99) CFA_XSP16 add(XSP16, 17)
        CFI Block cfiPicker100 Using cfiCommon1
        CFI (cfiPicker100) NoFunction
        CFI (cfiPicker100) Picker
        MOV     A,R6
        MOV     R3,A
        MOV     R2,#0x3
        LCALL   ?Subroutine20 & 0xFFFF
        CFI EndBlock cfiCond98
        CFI EndBlock cfiCond99
        CFI EndBlock cfiPicker100
??CrossCallReturnLabel_40:
        REQUIRE ??Subroutine25_0
        ; // Fall through to label ??Subroutine25_0

        RSEG BANKED_CODE:CODE:NOROOT(0)
??Subroutine25_0:
        CFI Block cfiCond101 Using cfiCommon0
        CFI NoFunction
        CFI Conditional ??CrossCallReturnLabel_53
        CFI R6 load(1, XDATA, add(CFA_XSP16, literal(-16)))
        CFI VB load(1, XDATA, add(CFA_XSP16, literal(-15)))
        CFI V0 load(1, XDATA, add(CFA_XSP16, literal(-14)))
        CFI V1 load(1, XDATA, add(CFA_XSP16, literal(-13)))
        CFI V2 load(1, XDATA, add(CFA_XSP16, literal(-12)))
        CFI V3 load(1, XDATA, add(CFA_XSP16, literal(-11)))
        CFI V4 load(1, XDATA, add(CFA_XSP16, literal(-10)))
        CFI V5 load(1, XDATA, add(CFA_XSP16, literal(-9)))
        CFI V6 load(1, XDATA, add(CFA_XSP16, literal(-8)))
        CFI V7 load(1, XDATA, add(CFA_XSP16, literal(-7)))
        CFI R7 load(1, XDATA, add(CFA_XSP16, literal(-6)))
        CFI ?RET_LOW load(1, XDATA, add(CFA_XSP16, literal(-5)))
        CFI ?RET_HIGH load(1, XDATA, add(CFA_XSP16, literal(-4)))
        CFI ?BRET_EXT load(1, XDATA, add(CFA_XSP16, literal(-3)))
        CFI DPL0 load(1, XDATA, add(CFA_XSP16, literal(-2)))
        CFI DPH0 load(1, XDATA, add(CFA_XSP16, literal(-1)))
        CFI CFA_SP SP+0
        CFI CFA_XSP16 add(XSP16, 17)
        CFI Block cfiCond102 Using cfiCommon0
        CFI (cfiCond102) NoFunction
        CFI (cfiCond102) Conditional ??CrossCallReturnLabel_54
        CFI (cfiCond102) R6 load(1, XDATA, add(CFA_XSP16, literal(-10)))
        CFI (cfiCond102) VB load(1, XDATA, add(CFA_XSP16, literal(-9)))
        CFI (cfiCond102) V0 load(1, XDATA, add(CFA_XSP16, literal(-8)))
        CFI (cfiCond102) V1 load(1, XDATA, add(CFA_XSP16, literal(-7)))
        CFI (cfiCond102) R7 load(1, XDATA, add(CFA_XSP16, literal(-6)))
        CFI (cfiCond102) ?RET_LOW load(1, XDATA, add(CFA_XSP16, literal(-5)))
        CFI (cfiCond102) ?RET_HIGH load(1, XDATA, add(CFA_XSP16, literal(-4)))
        CFI (cfiCond102) ?BRET_EXT load(1, XDATA, add(CFA_XSP16, literal(-3)))
        CFI (cfiCond102) DPL0 load(1, XDATA, add(CFA_XSP16, literal(-2)))
        CFI (cfiCond102) DPH0 load(1, XDATA, add(CFA_XSP16, literal(-1)))
        CFI (cfiCond102) CFA_SP SP+0
        CFI (cfiCond102) CFA_XSP16 add(XSP16, 34)
        CFI Block cfiCond103 Using cfiCommon0
        CFI (cfiCond103) NoFunction
        CFI (cfiCond103) Conditional ??CrossCallReturnLabel_51
        CFI (cfiCond103) R6 load(1, XDATA, add(CFA_XSP16, literal(-16)))
        CFI (cfiCond103) VB load(1, XDATA, add(CFA_XSP16, literal(-15)))
        CFI (cfiCond103) V0 load(1, XDATA, add(CFA_XSP16, literal(-14)))
        CFI (cfiCond103) V1 load(1, XDATA, add(CFA_XSP16, literal(-13)))
        CFI (cfiCond103) V2 load(1, XDATA, add(CFA_XSP16, literal(-12)))
        CFI (cfiCond103) V3 load(1, XDATA, add(CFA_XSP16, literal(-11)))
        CFI (cfiCond103) V4 load(1, XDATA, add(CFA_XSP16, literal(-10)))
        CFI (cfiCond103) V5 load(1, XDATA, add(CFA_XSP16, literal(-9)))
        CFI (cfiCond103) V6 load(1, XDATA, add(CFA_XSP16, literal(-8)))
        CFI (cfiCond103) V7 load(1, XDATA, add(CFA_XSP16, literal(-7)))
        CFI (cfiCond103) R7 load(1, XDATA, add(CFA_XSP16, literal(-6)))
        CFI (cfiCond103) ?RET_LOW load(1, XDATA, add(CFA_XSP16, literal(-5)))
        CFI (cfiCond103) ?RET_HIGH load(1, XDATA, add(CFA_XSP16, literal(-4)))
        CFI (cfiCond103) ?BRET_EXT load(1, XDATA, add(CFA_XSP16, literal(-3)))
        CFI (cfiCond103) DPL0 load(1, XDATA, add(CFA_XSP16, literal(-2)))
        CFI (cfiCond103) DPH0 load(1, XDATA, add(CFA_XSP16, literal(-1)))
        CFI (cfiCond103) CFA_SP SP+0
        CFI (cfiCond103) CFA_XSP16 add(XSP16, 17)
        CFI Block cfiCond104 Using cfiCommon0
        CFI (cfiCond104) NoFunction
        CFI (cfiCond104) Conditional ??CrossCallReturnLabel_52
        CFI (cfiCond104) R6 load(1, XDATA, add(CFA_XSP16, literal(-16)))
        CFI (cfiCond104) VB load(1, XDATA, add(CFA_XSP16, literal(-15)))
        CFI (cfiCond104) V0 load(1, XDATA, add(CFA_XSP16, literal(-14)))
        CFI (cfiCond104) V1 load(1, XDATA, add(CFA_XSP16, literal(-13)))
        CFI (cfiCond104) V2 load(1, XDATA, add(CFA_XSP16, literal(-12)))
        CFI (cfiCond104) V3 load(1, XDATA, add(CFA_XSP16, literal(-11)))
        CFI (cfiCond104) V4 load(1, XDATA, add(CFA_XSP16, literal(-10)))
        CFI (cfiCond104) V5 load(1, XDATA, add(CFA_XSP16, literal(-9)))
        CFI (cfiCond104) V6 load(1, XDATA, add(CFA_XSP16, literal(-8)))
        CFI (cfiCond104) V7 load(1, XDATA, add(CFA_XSP16, literal(-7)))
        CFI (cfiCond104) R7 load(1, XDATA, add(CFA_XSP16, literal(-6)))
        CFI (cfiCond104) ?RET_LOW load(1, XDATA, add(CFA_XSP16, literal(-5)))
        CFI (cfiCond104) ?RET_HIGH load(1, XDATA, add(CFA_XSP16, literal(-4)))
        CFI (cfiCond104) ?BRET_EXT load(1, XDATA, add(CFA_XSP16, literal(-3)))
        CFI (cfiCond104) DPL0 load(1, XDATA, add(CFA_XSP16, literal(-2)))
        CFI (cfiCond104) DPH0 load(1, XDATA, add(CFA_XSP16, literal(-1)))
        CFI (cfiCond104) CFA_SP SP+0
        CFI (cfiCond104) CFA_XSP16 add(XSP16, 17)
        CFI Block cfiPicker105 Using cfiCommon1
        CFI (cfiPicker105) NoFunction
        CFI (cfiPicker105) Picker
        MOV     A,R6
        ADD     A,#0x1
        INC     R6
        MOV     A,R7
        ADDC    A,#0x0
        MOV     R7,A
        CLR     C
        MOV     A,R6
        RET
        CFI EndBlock cfiCond101
        CFI EndBlock cfiCond102
        CFI EndBlock cfiCond103
        CFI EndBlock cfiCond104
        CFI EndBlock cfiPicker105

        RSEG BANKED_CODE:CODE:NOROOT(0)
?Subroutine20:
        CFI Block cfiCond106 Using cfiCommon0
        CFI NoFunction
        CFI Conditional ??CrossCallReturnLabel_39
        CFI R6 load(1, XDATA, add(CFA_XSP16, literal(-16)))
        CFI VB load(1, XDATA, add(CFA_XSP16, literal(-15)))
        CFI V0 load(1, XDATA, add(CFA_XSP16, literal(-14)))
        CFI V1 load(1, XDATA, add(CFA_XSP16, literal(-13)))
        CFI V2 load(1, XDATA, add(CFA_XSP16, literal(-12)))
        CFI V3 load(1, XDATA, add(CFA_XSP16, literal(-11)))
        CFI V4 load(1, XDATA, add(CFA_XSP16, literal(-10)))
        CFI V5 load(1, XDATA, add(CFA_XSP16, literal(-9)))
        CFI V6 load(1, XDATA, add(CFA_XSP16, literal(-8)))
        CFI V7 load(1, XDATA, add(CFA_XSP16, literal(-7)))
        CFI R7 load(1, XDATA, add(CFA_XSP16, literal(-6)))
        CFI ?RET_LOW load(1, XDATA, add(CFA_XSP16, literal(-5)))
        CFI ?RET_HIGH load(1, XDATA, add(CFA_XSP16, literal(-4)))
        CFI ?BRET_EXT load(1, XDATA, add(CFA_XSP16, literal(-3)))
        CFI DPL0 load(1, XDATA, add(CFA_XSP16, literal(-2)))
        CFI DPH0 load(1, XDATA, add(CFA_XSP16, literal(-1)))
        CFI CFA_SP SP+0
        CFI CFA_XSP16 add(XSP16, 17)
        CFI Block cfiCond107 Using cfiCommon0
        CFI (cfiCond107) NoFunction
        CFI (cfiCond107) Conditional ??CrossCallReturnLabel_40, ??CrossCallReturnLabel_51
        CFI (cfiCond107) R6 load(1, XDATA, add(CFA_XSP16, literal(-16)))
        CFI (cfiCond107) VB load(1, XDATA, add(CFA_XSP16, literal(-15)))
        CFI (cfiCond107) V0 load(1, XDATA, add(CFA_XSP16, literal(-14)))
        CFI (cfiCond107) V1 load(1, XDATA, add(CFA_XSP16, literal(-13)))
        CFI (cfiCond107) V2 load(1, XDATA, add(CFA_XSP16, literal(-12)))
        CFI (cfiCond107) V3 load(1, XDATA, add(CFA_XSP16, literal(-11)))
        CFI (cfiCond107) V4 load(1, XDATA, add(CFA_XSP16, literal(-10)))
        CFI (cfiCond107) V5 load(1, XDATA, add(CFA_XSP16, literal(-9)))
        CFI (cfiCond107) V6 load(1, XDATA, add(CFA_XSP16, literal(-8)))
        CFI (cfiCond107) V7 load(1, XDATA, add(CFA_XSP16, literal(-7)))
        CFI (cfiCond107) R7 load(1, XDATA, add(CFA_XSP16, literal(-6)))
        CFI (cfiCond107) ?RET_LOW load(1, XDATA, add(CFA_XSP16, literal(-5)))
        CFI (cfiCond107) ?RET_HIGH load(1, XDATA, add(CFA_XSP16, literal(-4)))
        CFI (cfiCond107) ?BRET_EXT load(1, XDATA, add(CFA_XSP16, literal(-3)))
        CFI (cfiCond107) DPL0 load(1, XDATA, add(CFA_XSP16, literal(-2)))
        CFI (cfiCond107) DPH0 load(1, XDATA, add(CFA_XSP16, literal(-1)))
        CFI (cfiCond107) CFA_SP SP+0
        CFI (cfiCond107) CFA_XSP16 add(XSP16, 17)
        CFI Block cfiCond108 Using cfiCommon0
        CFI (cfiCond108) NoFunction
        CFI (cfiCond108) Conditional ??CrossCallReturnLabel_40, ??CrossCallReturnLabel_52
        CFI (cfiCond108) R6 load(1, XDATA, add(CFA_XSP16, literal(-16)))
        CFI (cfiCond108) VB load(1, XDATA, add(CFA_XSP16, literal(-15)))
        CFI (cfiCond108) V0 load(1, XDATA, add(CFA_XSP16, literal(-14)))
        CFI (cfiCond108) V1 load(1, XDATA, add(CFA_XSP16, literal(-13)))
        CFI (cfiCond108) V2 load(1, XDATA, add(CFA_XSP16, literal(-12)))
        CFI (cfiCond108) V3 load(1, XDATA, add(CFA_XSP16, literal(-11)))
        CFI (cfiCond108) V4 load(1, XDATA, add(CFA_XSP16, literal(-10)))
        CFI (cfiCond108) V5 load(1, XDATA, add(CFA_XSP16, literal(-9)))
        CFI (cfiCond108) V6 load(1, XDATA, add(CFA_XSP16, literal(-8)))
        CFI (cfiCond108) V7 load(1, XDATA, add(CFA_XSP16, literal(-7)))
        CFI (cfiCond108) R7 load(1, XDATA, add(CFA_XSP16, literal(-6)))
        CFI (cfiCond108) ?RET_LOW load(1, XDATA, add(CFA_XSP16, literal(-5)))
        CFI (cfiCond108) ?RET_HIGH load(1, XDATA, add(CFA_XSP16, literal(-4)))
        CFI (cfiCond108) ?BRET_EXT load(1, XDATA, add(CFA_XSP16, literal(-3)))
        CFI (cfiCond108) DPL0 load(1, XDATA, add(CFA_XSP16, literal(-2)))
        CFI (cfiCond108) DPH0 load(1, XDATA, add(CFA_XSP16, literal(-1)))
        CFI (cfiCond108) CFA_SP SP+0
        CFI (cfiCond108) CFA_XSP16 add(XSP16, 17)
        CFI Block cfiPicker109 Using cfiCommon1
        CFI (cfiPicker109) NoFunction
        CFI (cfiPicker109) Picker
        SWAP    A
        ANL     A,#0xf0
        ADD     A,#0x8
        MOV     R1,A
        LCALL   ??LCD_P16x16Ch?relay
        RET
        CFI EndBlock cfiCond106
        CFI EndBlock cfiCond107
        CFI EndBlock cfiCond108
        CFI EndBlock cfiPicker109
//  350 

        RSEG BANKED_CODE:CODE:NOROOT(0)
//  351 void zb_FindDeviceConfirm( uint8 searchType, 
zb_FindDeviceConfirm:
        CFI Block cfiBlock110 Using cfiCommon0
        CFI Function zb_FindDeviceConfirm
        CODE
//  352                           uint8 *searchKey, uint8 *result )
//  353 {
        ; Saved register size: 0
        ; Auto size: 0
//  354   
//  355 }
        LJMP    ?BRET
        CFI EndBlock cfiBlock110

        RSEG XDATA_ID:CODE:NOROOT(0)
`?<Initializer for F16x16>`:
        DATA8
        DB 128
        DB 128
        DB 64
        DB 32
        DB 80
        DB 72
        DB 68
        DB 195
        DB 68
        DB 72
        DB 80
        DB 32
        DB 64
        DB 128
        DB 128
        DB 0
        DB 0
        DB 64
        DB 34
        DB 26
        DB 2
        DB 66
        DB 130
        DB 127
        DB 2
        DB 2
        DB 2
        DB 10
        DB 18
        DB 96
        DB 0
        DB 0
        DB 0
        DB 140
        DB 68
        DB 181
        DB 38
        DB 164
        DB 100
        DB 12
        DB 2
        DB 242
        DB 26
        DB 214
        DB 18
        DB 242
        DB 2
        DB 0
        DB 16
        DB 8
        DB 252
        DB 74
        DB 73
        DB 74
        DB 252
        DB 8
        DB 128
        DB 79
        DB 48
        DB 15
        DB 16
        DB 47
        DB 192
        DB 0
        DB 0
        DB 2
        DB 2
        DB 2
        DB 2
        DB 130
        DB 66
        DB 242
        DB 14
        DB 66
        DB 130
        DB 2
        DB 2
        DB 2
        DB 0
        DB 0
        DB 16
        DB 8
        DB 4
        DB 2
        DB 1
        DB 0
        DB 0
        DB 255
        DB 0
        DB 0
        DB 0
