###############################################################################
#                                                                             #
# IAR C/C++ Compiler V8.10.1.40194/W32 for 8051         03/Mar/2020  13:32:26 #
# Copyright 2004-2011 IAR Systems AB.                                         #
#                                                                             #
#    Core               =  plain                                              #
#    Code model         =  banked                                             #
#    Data model         =  large                                              #
#    Calling convention =  xdata reentrant                                    #
#    Constant location  =  data_rom                                           #
#    Dptr setup         =  1,16                                               #
#    Source file        =  C:\Texas Instruments\ZStack-CC2530-2.5.1a\Projects #
#                          \zstack\Samples\Diplomaproject\Source\adc.c        #
#    Command line       =  -f "C:\Texas Instruments\ZStack-CC2530-2.5.1a\Proj #
#                          ects\zstack\Samples\Diplomaproject\CC2530DB\..\..\ #
#                          ..\Tools\CC2530DB\f8wCoord.cfg" (-DCPU32MHZ        #
#                          -DROOT=__near_func -DMAC_CFG_APP_PENDING_QUEUE=TRU #
#                          E -DMAC_CFG_TX_DATA_MAX=5 -DMAC_CFG_TX_MAX=8       #
#                          -DMAC_CFG_RX_MAX=5 -DZDO_COORDINATOR -DRTR_NWK)    #
#                          -f "C:\Texas Instruments\ZStack-CC2530-2.5.1a\Proj #
#                          ects\zstack\Samples\Diplomaproject\CC2530DB\..\..\ #
#                          ..\Tools\CC2530DB\f8wConfig.cfg" (-DZIGBEEPRO      #
#                          -DSECURE=0 -DZG_SECURE_DYNAMIC=0 -DREFLECTOR       #
#                          -DDEFAULT_CHANLIST=0x00000800                      #
#                          -DZDAPP_CONFIG_PAN_ID=0xFFFF                       #
#                          -DNWK_START_DELAY=100 -DEXTENDED_JOINING_RANDOM_MA #
#                          SK=0x007F -DBEACON_REQUEST_DELAY=100               #
#                          -DBEACON_REQ_DELAY_MASK=0x00FF                     #
#                          -DLINK_STATUS_JITTER_MASK=0x007F                   #
#                          -DROUTE_EXPIRY_TIME=30 -DAPSC_ACK_WAIT_DURATION_PO #
#                          LLED=3000 -DNWK_INDIRECT_MSG_TIMEOUT=7             #
#                          -DMAX_RREQ_ENTRIES=8 -DAPSC_MAX_FRAME_RETRIES=3    #
#                          -DNWK_MAX_DATA_RETRIES=2                           #
#                          -DMAX_POLL_FAILURE_RETRIES=2 -DMAX_BCAST=9         #
#                          -DAPS_MAX_GROUPS=16 -DMAX_RTG_ENTRIES=40           #
#                          -DNWK_MAX_BINDING_ENTRIES=4                        #
#                          -DMAX_BINDING_CLUSTER_IDS=4 "-DDEFAULT_KEY={0x01,  #
#                          0x03, 0x05, 0x07, 0x09, 0x0B, 0x0D, 0x0F, 0x00,    #
#                          0x02, 0x04, 0x06, 0x08, 0x0A, 0x0C, 0x0D}"         #
#                          -DMAC_MAX_FRAME_SIZE=116                           #
#                          -DZDNWKMGR_MIN_TRANSMISSIONS=20 "-DCONST=const     #
#                          __code" -DGENERIC=__generic                        #
#                          -DRFD_RCVC_ALWAYS_ON=FALSE -DPOLL_RATE=1000        #
#                          -DQUEUED_POLL_RATE=100 -DRESPONSE_POLL_RATE=100)   #
#                          -DREJOIN_POLL_RATE=440 "C:\Texas                   #
#                          Instruments\ZStack-CC2530-2.5.1a\Projects\zstack\S #
#                          amples\Diplomaproject\Source\adc.c" -D ZTOOL_P1    #
#                          -D xMT_TASK -D xMT_SYS_FUNC -D xMT_ZDO_FUNC -D     #
#                          xLCD_SUPPORTED=DEBUG -lC "C:\Texas                 #
#                          Instruments\ZStack-CC2530-2.5.1a\Projects\zstack\S #
#                          amples\Diplomaproject\CC2530DB\CoordinatorEB\List\ #
#                          " -lA "C:\Texas Instruments\ZStack-CC2530-2.5.1a\P #
#                          rojects\zstack\Samples\Diplomaproject\CC2530DB\Coo #
#                          rdinatorEB\List\" --diag_suppress Pe001,Pa010 -o   #
#                          "C:\Texas Instruments\ZStack-CC2530-2.5.1a\Project #
#                          s\zstack\Samples\Diplomaproject\CC2530DB\Coordinat #
#                          orEB\Obj\" -e --no_cse --no_unroll --no_inline     #
#                          --no_code_motion --no_tbaa --debug --core=plain    #
#                          --dptr=16,1 --data_model=large                     #
#                          --code_model=banked --calling_convention=xdata_ree #
#                          ntrant --place_constants=data_rom                  #
#                          --nr_virtual_regs 16 -I "C:\Texas                  #
#                          Instruments\ZStack-CC2530-2.5.1a\Projects\zstack\S #
#                          amples\Diplomaproject\CC2530DB\" -I "C:\Texas      #
#                          Instruments\ZStack-CC2530-2.5.1a\Projects\zstack\S #
#                          amples\Diplomaproject\CC2530DB\..\Source\" -I      #
#                          "C:\Texas Instruments\ZStack-CC2530-2.5.1a\Project #
#                          s\zstack\Samples\Diplomaproject\CC2530DB\..\..\..\ #
#                          ZMain\TI2530DB\" -I "C:\Texas                      #
#                          Instruments\ZStack-CC2530-2.5.1a\Projects\zstack\S #
#                          amples\Diplomaproject\CC2530DB\..\..\..\..\..\Comp #
#                          onents\hal\include\" -I "C:\Texas                  #
#                          Instruments\ZStack-CC2530-2.5.1a\Projects\zstack\S #
#                          amples\Diplomaproject\CC2530DB\..\..\..\..\..\Comp #
#                          onents\hal\target\CC2530EB\" -I "C:\Texas          #
#                          Instruments\ZStack-CC2530-2.5.1a\Projects\zstack\S #
#                          amples\Diplomaproject\CC2530DB\..\..\..\..\..\Comp #
#                          onents\mac\include\" -I "C:\Texas                  #
#                          Instruments\ZStack-CC2530-2.5.1a\Projects\zstack\S #
#                          amples\Diplomaproject\CC2530DB\..\..\..\..\..\Comp #
#                          onents\mac\high_level\" -I "C:\Texas               #
#                          Instruments\ZStack-CC2530-2.5.1a\Projects\zstack\S #
#                          amples\Diplomaproject\CC2530DB\..\..\..\..\..\Comp #
#                          onents\mac\low_level\srf04\" -I "C:\Texas          #
#                          Instruments\ZStack-CC2530-2.5.1a\Projects\zstack\S #
#                          amples\Diplomaproject\CC2530DB\..\..\..\..\..\Comp #
#                          onents\mac\low_level\srf04\single_chip\" -I        #
#                          "C:\Texas Instruments\ZStack-CC2530-2.5.1a\Project #
#                          s\zstack\Samples\Diplomaproject\CC2530DB\..\..\..\ #
#                          ..\..\Components\mt\" -I "C:\Texas                 #
#                          Instruments\ZStack-CC2530-2.5.1a\Projects\zstack\S #
#                          amples\Diplomaproject\CC2530DB\..\..\..\..\..\Comp #
#                          onents\osal\include\" -I "C:\Texas                 #
#                          Instruments\ZStack-CC2530-2.5.1a\Projects\zstack\S #
#                          amples\Diplomaproject\CC2530DB\..\..\..\..\..\Comp #
#                          onents\services\saddr\" -I "C:\Texas               #
#                          Instruments\ZStack-CC2530-2.5.1a\Projects\zstack\S #
#                          amples\Diplomaproject\CC2530DB\..\..\..\..\..\Comp #
#                          onents\services\sdata\" -I "C:\Texas               #
#                          Instruments\ZStack-CC2530-2.5.1a\Projects\zstack\S #
#                          amples\Diplomaproject\CC2530DB\..\..\..\..\..\Comp #
#                          onents\stack\af\" -I "C:\Texas                     #
#                          Instruments\ZStack-CC2530-2.5.1a\Projects\zstack\S #
#                          amples\Diplomaproject\CC2530DB\..\..\..\..\..\Comp #
#                          onents\stack\nwk\" -I "C:\Texas                    #
#                          Instruments\ZStack-CC2530-2.5.1a\Projects\zstack\S #
#                          amples\Diplomaproject\CC2530DB\..\..\..\..\..\Comp #
#                          onents\stack\sapi\" -I "C:\Texas                   #
#                          Instruments\ZStack-CC2530-2.5.1a\Projects\zstack\S #
#                          amples\Diplomaproject\CC2530DB\..\..\..\..\..\Comp #
#                          onents\stack\sec\" -I "C:\Texas                    #
#                          Instruments\ZStack-CC2530-2.5.1a\Projects\zstack\S #
#                          amples\Diplomaproject\CC2530DB\..\..\..\..\..\Comp #
#                          onents\stack\sys\" -I "C:\Texas                    #
#                          Instruments\ZStack-CC2530-2.5.1a\Projects\zstack\S #
#                          amples\Diplomaproject\CC2530DB\..\..\..\..\..\Comp #
#                          onents\stack\zdo\" -I "C:\Texas                    #
#                          Instruments\ZStack-CC2530-2.5.1a\Projects\zstack\S #
#                          amples\Diplomaproject\CC2530DB\..\..\..\..\..\Comp #
#                          onents\zmac\" -I "C:\Texas                         #
#                          Instruments\ZStack-CC2530-2.5.1a\Projects\zstack\S #
#                          amples\Diplomaproject\CC2530DB\..\..\..\..\..\Comp #
#                          onents\zmac\f8w\" -On                              #
#    List file          =  C:\Texas Instruments\ZStack-CC2530-2.5.1a\Projects #
#                          \zstack\Samples\Diplomaproject\CC2530DB\Coordinato #
#                          rEB\List\adc.lst                                   #
#    Object file        =  C:\Texas Instruments\ZStack-CC2530-2.5.1a\Projects #
#                          \zstack\Samples\Diplomaproject\CC2530DB\Coordinato #
#                          rEB\Obj\adc.r51                                    #
#                                                                             #
#                                                                             #
###############################################################################

C:\Texas Instruments\ZStack-CC2530-2.5.1a\Projects\zstack\Samples\Diplomaproject\Source\adc.c
      1          #include "adc.h"
      2          #include "OnBoard.h"

   \                                 In  segment SFR_AN, at 0x88
   \   union <unnamed> volatile __sfr _A_TCON
   \                     _A_TCON:
   \   000000                DS 1

   \                                 In  segment SFR_AN, at 0xb6
   \   unsigned char volatile __sfr ADCCON3
   \                     ADCCON3:
   \   000000                DS 1

   \                                 In  segment SFR_AN, at 0xba
   \   unsigned char volatile __sfr ADCL
   \                     ADCL:
   \   000000                DS 1

   \                                 In  segment SFR_AN, at 0xbb
   \   unsigned char volatile __sfr ADCH
   \                     ADCH:
   \   000000                DS 1

   \                                 In  segment SFR_AN, at 0xf2
   \   unsigned char volatile __sfr APCFG
   \                     APCFG:
   \   000000                DS 1
      3          #include "ioCC2530.h"
      4          #include <stdio.h>
      5          #define ADC_CHNN  0x05  //选用通道5
      6          #define uchar unsigned char 
      7          #define uint unsigned int
      8          static uint16 readAdc(uint8 channal);
      9          void Get_ADCValue(unsigned int *AvgValue);
     10          /********************************************************
     11          * @brief   读取ADC的值
     12          ********************************************************/

   \                                 In  segment BANKED_CODE, align 1, keep-with-next
     13          static uint16 readAdc(uint8 channal)
   \                     readAdc:
     14          {
   \   000000   74F6         MOV     A,#-0xa
   \   000002   12....       LCALL   ?BANKED_ENTER_XDATA
   \   000005                ; Saved register size: 10
   \   000005                ; Auto size: 0
     15            uint16 value ; 
     16            APCFG |= 1 << channal ; // 模拟信号设置
   \   000005   75..01       MOV     ?V0 + 0,#0x1
   \   000008   75..00       MOV     ?V0 + 1,#0x0
   \   00000B   E9           MOV     A,R1
   \   00000C   78..         MOV     R0,#?V0 + 0
   \   00000E   12....       LCALL   ?S_SHL
   \   000011   E5..         MOV     A,?V0 + 0
   \   000013   42F2         ORL     0xf2,A
     17            ADCIF = 0 ;
   \   000015   C28D         CLR     0x88.5
     18            
     19            ADCCON3 = channal;          
   \   000017   89B6         MOV     0xb6,R1
     20            while ( !ADCIF ) ;  //等待转换完成
   \                     ??readAdc_0:
   \   000019   A28D         MOV     C,0x88.5
   \   00001B   50FC         JNC     ??readAdc_0
     21            
     22            value = ADCL ;
   \   00001D   A8BA         MOV     R0,0xba
   \   00001F   8882         MOV     DPL,R0
   \   000021   758300       MOV     DPH,#0x0
   \   000024   AA82         MOV     R2,DPL
   \   000026   AB83         MOV     R3,DPH
     23            value |= ((uint16) ADCH) << 8 ;
   \   000028   E5BB         MOV     A,0xbb
   \   00002A   FC           MOV     R4,A
   \   00002B   7D00         MOV     R5,#0x0
   \   00002D   E4           CLR     A
   \   00002E   CC           XCH     A,R4
   \   00002F   FD           MOV     R5,A
   \   000030   EC           MOV     A,R4
   \   000031   4A           ORL     A,R2
   \   000032   FA           MOV     R2,A
   \   000033   ED           MOV     A,R5
   \   000034   4B           ORL     A,R3
   \   000035   FB           MOV     R3,A
     24            
     25            return value; 
   \   000036   7F02         MOV     R7,#0x2
   \   000038   02....       LJMP    ?BANKED_LEAVE_XDATA
   \   00003B                REQUIRE APCFG
   \   00003B                REQUIRE _A_TCON
   \   00003B                REQUIRE ADCCON3
   \   00003B                REQUIRE ADCL
   \   00003B                REQUIRE ADCH
     26          }

   \                                 In  segment BANKED_CODE, align 1, keep-with-next
     27          void Get_ADCValue(unsigned int *AvgValue)
   \                     Get_ADCValue:
     28          {
   \   000000   74F2         MOV     A,#-0xe
   \   000002   12....       LCALL   ?BANKED_ENTER_XDATA
   \   000005                ; Saved register size: 14
   \   000005                ; Auto size: 0
   \   000005   8A..         MOV     ?V0 + 0,R2
   \   000007   8B..         MOV     ?V0 + 1,R3
     29            char i;
     30            uint16 avgValue;
     31            for (i = 0 ; i < 64 ; i++)
   \   000009   75..00       MOV     ?V0 + 2,#0x0
   \                     ??Get_ADCValue_0:
   \   00000C   E5..         MOV     A,?V0 + 2
   \   00000E   C3           CLR     C
   \   00000F   9440         SUBB    A,#0x40
   \   000011   501B         JNC     ??Get_ADCValue_1
     32            {
     33              avgValue += readAdc(ADC_CHNN);             
   \   000013                ; Setup parameters for call to function readAdc
   \   000013   7905         MOV     R1,#0x5
   \   000015   12....       LCALL   ??readAdc?relay
   \   000018   8A..         MOV     ?V0 + 4,R2
   \   00001A   8B..         MOV     ?V0 + 5,R3
   \   00001C   EE           MOV     A,R6
   \   00001D   25..         ADD     A,?V0 + 4
   \   00001F   FE           MOV     R6,A
   \   000020   EF           MOV     A,R7
   \   000021   35..         ADDC    A,?V0 + 5
   \   000023   FF           MOV     R7,A
     34              avgValue >>= 1;
   \   000024   C3           CLR     C
   \   000025   13           RRC     A
   \   000026   FF           MOV     R7,A
   \   000027   EE           MOV     A,R6
   \   000028   13           RRC     A
   \   000029   FE           MOV     R6,A
     35            }
   \   00002A   05..         INC     ?V0 + 2
   \   00002C   80DE         SJMP    ??Get_ADCValue_0
     36            *AvgValue = avgValue;
   \                     ??Get_ADCValue_1:
   \   00002E   85..82       MOV     DPL,?V0 + 0
   \   000031   85..83       MOV     DPH,?V0 + 1
   \   000034   EE           MOV     A,R6
   \   000035   F0           MOVX    @DPTR,A
   \   000036   A3           INC     DPTR
   \   000037   EF           MOV     A,R7
   \   000038   F0           MOVX    @DPTR,A
     37          }
   \   000039   7F06         MOV     R7,#0x6
   \   00003B   02....       LJMP    ?BANKED_LEAVE_XDATA

   \                                 In  segment BANK_RELAYS, align 1
   \                     ??readAdc?relay:
   \   000000   12....       LCALL   ?BDISPATCH
   \   000003   ......       DC24    readAdc

   \                                 In  segment BANK_RELAYS, align 1
   \                     ??Get_ADCValue?relay:
   \   000000   12....       LCALL   ?BDISPATCH
   \   000003   ......       DC24    Get_ADCValue
     38          
     39          
     40          

   Maximum stack usage in bytes:

     Function     ISTACK PSTACK XSTACK
     --------     ------ ------ ------
     Get_ADCValue     0      0     14
       -> readAdc     0      0     28
     readAdc          0      0     24


   Segment part sizes:

     Function/Label       Bytes
     --------------       -----
     _A_TCON                 1
     ADCCON3                 1
     ADCL                    1
     ADCH                    1
     APCFG                   1
     readAdc                59
     Get_ADCValue           62
     ??readAdc?relay         6
     ??Get_ADCValue?relay    6

 
 121 bytes in segment BANKED_CODE
  12 bytes in segment BANK_RELAYS
   5 bytes in segment SFR_AN
 
 133 bytes of CODE memory
   0 bytes of DATA memory (+ 5 bytes shared)

Errors: none
Warnings: none
