///////////////////////////////////////////////////////////////////////////////
//                                                                            /
// IAR C/C++ Compiler V8.10.1.10194/W32 for 8051        05/Aug/2019  15:20:20 /
// Copyright 2004-2011 IAR Systems AB.                                        /
//                                                                            /
//    Core               =  plain                                             /
//    Code model         =  banked                                            /
//    Data model         =  large                                             /
//    Calling convention =  xdata reentrant                                   /
//    Constant location  =  data_rom                                          /
//    Dptr setup         =  1,16                                              /
//    Source file        =  C:\Texas Instruments\ZStack-CC2530-2.5.1a\Project /
//                          s\zstack\Samples\Diplomaproject\Source\ds18.c     /
//    Command line       =  -f "C:\Texas Instruments\ZStack-CC2530-2.5.1a\Pro /
//                          jects\zstack\Samples\Diplomaproject\CC2530DB\..\. /
//                          .\..\Tools\CC2530DB\f8wCoord.cfg" (-DCPU32MHZ     /
//                          -DROOT=__near_func -DMAC_CFG_APP_PENDING_QUEUE=TR /
//                          UE -DMAC_CFG_TX_DATA_MAX=5 -DMAC_CFG_TX_MAX=8     /
//                          -DMAC_CFG_RX_MAX=5 -DZDO_COORDINATOR -DRTR_NWK)   /
//                          -f "C:\Texas Instruments\ZStack-CC2530-2.5.1a\Pro /
//                          jects\zstack\Samples\Diplomaproject\CC2530DB\..\. /
//                          .\..\Tools\CC2530DB\f8wConfig.cfg" (-DZIGBEEPRO   /
//                          -DSECURE=0 -DZG_SECURE_DYNAMIC=0 -DREFLECTOR      /
//                          "-DDEFAULT_CHANLIST=(0xFFFF<<11)"                 /
//                          -DZDAPP_CONFIG_PAN_ID=0x57a                       /
//                          -DNWK_START_DELAY=0x57a                           /
//                          -DEXTENDED_JOINING_RANDOM_MASK=0x007F             /
//                          -DBEACON_REQUEST_DELAY=100                        /
//                          -DBEACON_REQ_DELAY_MASK=0x00FF                    /
//                          -DLINK_STATUS_JITTER_MASK=0x007F                  /
//                          -DROUTE_EXPIRY_TIME=30 -DAPSC_ACK_WAIT_DURATION_P /
//                          OLLED=3000 -DNWK_INDIRECT_MSG_TIMEOUT=7           /
//                          -DMAX_RREQ_ENTRIES=8 -DAPSC_MAX_FRAME_RETRIES=3   /
//                          -DNWK_MAX_DATA_RETRIES=2                          /
//                          -DMAX_POLL_FAILURE_RETRIES=2 -DMAX_BCAST=9        /
//                          -DAPS_MAX_GROUPS=16 -DMAX_RTG_ENTRIES=40          /
//                          -DNWK_MAX_BINDING_ENTRIES=4                       /
//                          -DMAX_BINDING_CLUSTER_IDS=4                       /
//                          "-DDEFAULT_KEY={0x01, 0x03, 0x05, 0x07, 0x09,     /
//                          0x0B, 0x0D, 0x0F, 0x00, 0x02, 0x04, 0x06, 0x08,   /
//                          0x0A, 0x0C, 0x0D}" -DMAC_MAX_FRAME_SIZE=116       /
//                          -DZDNWKMGR_MIN_TRANSMISSIONS=20 "-DCONST=const    /
//                          __code" -DGENERIC=__generic                       /
//                          -DRFD_RCVC_ALWAYS_ON=FALSE -DPOLL_RATE=1000       /
//                          -DQUEUED_POLL_RATE=100 -DRESPONSE_POLL_RATE=100)  /
//                          -DREJOIN_POLL_RATE=440 "C:\Texas                  /
//                          Instruments\ZStack-CC2530-2.5.1a\Projects\zstack\ /
//                          Samples\Diplomaproject\Source\ds18.c" -D          /
//                          ZTOOL_P1 -D xMT_TASK -D xMT_SYS_FUNC -D           /
//                          xMT_ZDO_FUNC -D xLCD_SUPPORTED=DEBUG -lC          /
//                          "C:\Texas Instruments\ZStack-CC2530-2.5.1a\Projec /
//                          ts\zstack\Samples\Diplomaproject\CC2530DB\Coordin /
//                          atorEB\List\" -lA "C:\Texas                       /
//                          Instruments\ZStack-CC2530-2.5.1a\Projects\zstack\ /
//                          Samples\Diplomaproject\CC2530DB\CoordinatorEB\Lis /
//                          t\" --diag_suppress Pe001,Pa010 -o "C:\Texas      /
//                          Instruments\ZStack-CC2530-2.5.1a\Projects\zstack\ /
//                          Samples\Diplomaproject\CC2530DB\CoordinatorEB\Obj /
//                          \" -e --no_cse --no_unroll --no_inline            /
//                          --no_code_motion --no_tbaa --debug --core=plain   /
//                          --dptr=16,1 --data_model=large                    /
//                          --code_model=banked --calling_convention=xdata_re /
//                          entrant --place_constants=data_rom                /
//                          --nr_virtual_regs 16 -I "C:\Texas                 /
//                          Instruments\ZStack-CC2530-2.5.1a\Projects\zstack\ /
//                          Samples\Diplomaproject\CC2530DB\" -I "C:\Texas    /
//                          Instruments\ZStack-CC2530-2.5.1a\Projects\zstack\ /
//                          Samples\Diplomaproject\CC2530DB\..\Source\" -I    /
//                          "C:\Texas Instruments\ZStack-CC2530-2.5.1a\Projec /
//                          ts\zstack\Samples\Diplomaproject\CC2530DB\..\..\. /
//                          .\ZMain\TI2530DB\" -I "C:\Texas                   /
//                          Instruments\ZStack-CC2530-2.5.1a\Projects\zstack\ /
//                          Samples\Diplomaproject\CC2530DB\..\..\..\..\..\Co /
//                          mponents\hal\include\" -I "C:\Texas               /
//                          Instruments\ZStack-CC2530-2.5.1a\Projects\zstack\ /
//                          Samples\Diplomaproject\CC2530DB\..\..\..\..\..\Co /
//                          mponents\hal\target\CC2530EB\" -I "C:\Texas       /
//                          Instruments\ZStack-CC2530-2.5.1a\Projects\zstack\ /
//                          Samples\Diplomaproject\CC2530DB\..\..\..\..\..\Co /
//                          mponents\mac\include\" -I "C:\Texas               /
//                          Instruments\ZStack-CC2530-2.5.1a\Projects\zstack\ /
//                          Samples\Diplomaproject\CC2530DB\..\..\..\..\..\Co /
//                          mponents\mac\high_level\" -I "C:\Texas            /
//                          Instruments\ZStack-CC2530-2.5.1a\Projects\zstack\ /
//                          Samples\Diplomaproject\CC2530DB\..\..\..\..\..\Co /
//                          mponents\mac\low_level\srf04\" -I "C:\Texas       /
//                          Instruments\ZStack-CC2530-2.5.1a\Projects\zstack\ /
//                          Samples\Diplomaproject\CC2530DB\..\..\..\..\..\Co /
//                          mponents\mac\low_level\srf04\single_chip\" -I     /
//                          "C:\Texas Instruments\ZStack-CC2530-2.5.1a\Projec /
//                          ts\zstack\Samples\Diplomaproject\CC2530DB\..\..\. /
//                          .\..\..\Components\mt\" -I "C:\Texas              /
//                          Instruments\ZStack-CC2530-2.5.1a\Projects\zstack\ /
//                          Samples\Diplomaproject\CC2530DB\..\..\..\..\..\Co /
//                          mponents\osal\include\" -I "C:\Texas              /
//                          Instruments\ZStack-CC2530-2.5.1a\Projects\zstack\ /
//                          Samples\Diplomaproject\CC2530DB\..\..\..\..\..\Co /
//                          mponents\services\saddr\" -I "C:\Texas            /
//                          Instruments\ZStack-CC2530-2.5.1a\Projects\zstack\ /
//                          Samples\Diplomaproject\CC2530DB\..\..\..\..\..\Co /
//                          mponents\services\sdata\" -I "C:\Texas            /
//                          Instruments\ZStack-CC2530-2.5.1a\Projects\zstack\ /
//                          Samples\Diplomaproject\CC2530DB\..\..\..\..\..\Co /
//                          mponents\stack\af\" -I "C:\Texas                  /
//                          Instruments\ZStack-CC2530-2.5.1a\Projects\zstack\ /
//                          Samples\Diplomaproject\CC2530DB\..\..\..\..\..\Co /
//                          mponents\stack\nwk\" -I "C:\Texas                 /
//                          Instruments\ZStack-CC2530-2.5.1a\Projects\zstack\ /
//                          Samples\Diplomaproject\CC2530DB\..\..\..\..\..\Co /
//                          mponents\stack\sapi\" -I "C:\Texas                /
//                          Instruments\ZStack-CC2530-2.5.1a\Projects\zstack\ /
//                          Samples\Diplomaproject\CC2530DB\..\..\..\..\..\Co /
//                          mponents\stack\sec\" -I "C:\Texas                 /
//                          Instruments\ZStack-CC2530-2.5.1a\Projects\zstack\ /
//                          Samples\Diplomaproject\CC2530DB\..\..\..\..\..\Co /
//                          mponents\stack\sys\" -I "C:\Texas                 /
//                          Instruments\ZStack-CC2530-2.5.1a\Projects\zstack\ /
//                          Samples\Diplomaproject\CC2530DB\..\..\..\..\..\Co /
//                          mponents\stack\zdo\" -I "C:\Texas                 /
//                          Instruments\ZStack-CC2530-2.5.1a\Projects\zstack\ /
//                          Samples\Diplomaproject\CC2530DB\..\..\..\..\..\Co /
//                          mponents\zmac\" -I "C:\Texas                      /
//                          Instruments\ZStack-CC2530-2.5.1a\Projects\zstack\ /
//                          Samples\Diplomaproject\CC2530DB\..\..\..\..\..\Co /
//                          mponents\zmac\f8w\" -On                           /
//    List file          =  C:\Texas Instruments\ZStack-CC2530-2.5.1a\Project /
//                          s\zstack\Samples\Diplomaproject\CC2530DB\Coordina /
//                          torEB\List\ds18.s51                               /
//                                                                            /
//                                                                            /
///////////////////////////////////////////////////////////////////////////////

        NAME ds18

        RTMODEL "__SystemLibrary", "CLib"
        RTMODEL "__calling_convention", "xdata_reentrant"
        RTMODEL "__code_model", "banked"
        RTMODEL "__core", "plain"
        RTMODEL "__data_model", "large"
        RTMODEL "__dptr_size", "16"
        RTMODEL "__extended_stack", "disabled"
        RTMODEL "__location_for_constants", "data"
        RTMODEL "__number_of_dptrs", "1"
        RTMODEL "__rt_version", "1"

        RSEG DOVERLAY:DATA:NOROOT(0)
        RSEG IOVERLAY:IDATA:NOROOT(0)
        RSEG ISTACK:IDATA:NOROOT(0)
        RSEG PSTACK:XDATA:NOROOT(0)
        RSEG XSTACK:XDATA:NOROOT(0)

        EXTERN ?BANKED_ENTER_XDATA
        EXTERN ?BANKED_LEAVE_XDATA
        EXTERN ?BDISPATCH
        EXTERN ?BRET
        EXTERN ?V0
        EXTERN __INIT_XDATA_Z

        PUBLIC ??Ds18b20Initial?relay
        FUNCTION ??Ds18b20Initial?relay,0203H
        PUBLIC ??Ds18b20InputInitial?relay
        FUNCTION ??Ds18b20InputInitial?relay,0203H
        PUBLIC ??Ds18b20OutputInitial?relay
        FUNCTION ??Ds18b20OutputInitial?relay,0203H
        PUBLIC ??Ds18b20Read?relay
        FUNCTION ??Ds18b20Read?relay,0203H
        PUBLIC ??Ds18b20Write?relay
        FUNCTION ??Ds18b20Write?relay,0203H
        PUBLIC ??GetDS18Value?relay
        FUNCTION ??GetDS18Value?relay,0203H
        PUBLIC ??Temp_test?relay
        FUNCTION ??Temp_test?relay,0203H
        PUBLIC Ds18b20Initial
        FUNCTION Ds18b20Initial,021203H
        ARGFRAME XSTACK, 9, STACK
        ARGFRAME IOVERLAY, 0, STATIC
        ARGFRAME DOVERLAY, 0, STATIC
        LOCFRAME XSTACK, 10, STACK
        PUBLIC Ds18b20InputInitial
        FUNCTION Ds18b20InputInitial,0203H
        ARGFRAME XSTACK, 10, STACK
        ARGFRAME IOVERLAY, 0, STATIC
        ARGFRAME DOVERLAY, 0, STATIC
        PUBLIC Ds18b20OutputInitial
        FUNCTION Ds18b20OutputInitial,0203H
        ARGFRAME XSTACK, 10, STACK
        ARGFRAME IOVERLAY, 0, STATIC
        ARGFRAME DOVERLAY, 0, STATIC
        PUBLIC Ds18b20Read
        FUNCTION Ds18b20Read,021203H
        ARGFRAME XSTACK, 9, STACK
        ARGFRAME IOVERLAY, 0, STATIC
        ARGFRAME DOVERLAY, 0, STATIC
        LOCFRAME XSTACK, 9, STACK
        PUBLIC Ds18b20Write
        FUNCTION Ds18b20Write,021203H
        ARGFRAME XSTACK, 9, STACK
        ARGFRAME IOVERLAY, 0, STATIC
        ARGFRAME DOVERLAY, 0, STATIC
        LOCFRAME XSTACK, 9, STACK
        PUBLIC GetDS18Value
        FUNCTION GetDS18Value,021203H
        ARGFRAME XSTACK, 0, STACK
        LOCFRAME ISTACK, 1, STACK
        LOCFRAME XSTACK, 10, STACK
        PUBWEAK P0DIR
        PUBLIC Temp_test
        FUNCTION Temp_test,021203H
        ARGFRAME XSTACK, 10, STACK
        ARGFRAME IOVERLAY, 0, STATIC
        ARGFRAME DOVERLAY, 0, STATIC
        LOCFRAME XSTACK, 9, STACK
        PUBWEAK _A_P0
        PUBLIC temp
        
        CFI Names cfiNames0
        CFI StackFrame CFA_SP SP IDATA
        CFI StackFrame CFA_PSP16 PSP16 XDATA
        CFI StackFrame CFA_XSP16 XSP16 XDATA
        CFI StaticOverlayFrame CFA_IOVERLAY IOVERLAY
        CFI StaticOverlayFrame CFA_DOVERLAY DOVERLAY
        CFI Resource `PSW.CY`:1, `B.BR0`:1, `B.BR1`:1, `B.BR2`:1, `B.BR3`:1
        CFI Resource `B.BR4`:1, `B.BR5`:1, `B.BR6`:1, `B.BR7`:1, `VB.BR8`:1
        CFI Resource `VB.BR9`:1, `VB.BR10`:1, `VB.BR11`:1, `VB.BR12`:1
        CFI Resource `VB.BR13`:1, `VB.BR14`:1, `VB.BR15`:1, VB:8, B:8, A:8
        CFI Resource PSW:8, DPL0:8, DPH0:8, R0:8, R1:8, R2:8, R3:8, R4:8, R5:8
        CFI Resource R6:8, R7:8, V0:8, V1:8, V2:8, V3:8, V4:8, V5:8, V6:8, V7:8
        CFI Resource V8:8, V9:8, V10:8, V11:8, V12:8, V13:8, V14:8, V15:8, SP:8
        CFI Resource PSPH:8, PSPL:8, PSP16:16, XSPH:8, XSPL:8, XSP16:16
        CFI VirtualResource ?RET:24
        CFI Resource ?BRET_EXT:8
        CFI VirtualResource ?RET_HIGH:8, ?RET_LOW:8
        CFI ResourceParts PSP16 PSPH, PSPL
        CFI ResourceParts XSP16 XSPH, XSPL
        CFI ResourceParts ?RET ?BRET_EXT, ?RET_HIGH, ?RET_LOW
        CFI EndNames cfiNames0
        
        CFI Common cfiCommon0 Using cfiNames0
        CFI CodeAlign 1
        CFI DataAlign -1
        CFI ReturnAddress ?RET CODE
        CFI CFA_DOVERLAY Used
        CFI CFA_IOVERLAY Used
        CFI CFA_SP SP+-3
        CFI CFA_PSP16 PSP16+0
        CFI CFA_XSP16 XSP16+0
        CFI `PSW.CY` SameValue
        CFI `B.BR0` SameValue
        CFI `B.BR1` SameValue
        CFI `B.BR2` SameValue
        CFI `B.BR3` SameValue
        CFI `B.BR4` SameValue
        CFI `B.BR5` SameValue
        CFI `B.BR6` SameValue
        CFI `B.BR7` SameValue
        CFI `VB.BR8` SameValue
        CFI `VB.BR9` SameValue
        CFI `VB.BR10` SameValue
        CFI `VB.BR11` SameValue
        CFI `VB.BR12` SameValue
        CFI `VB.BR13` SameValue
        CFI `VB.BR14` SameValue
        CFI `VB.BR15` SameValue
        CFI VB SameValue
        CFI B Undefined
        CFI A Undefined
        CFI PSW SameValue
        CFI DPL0 SameValue
        CFI DPH0 SameValue
        CFI R0 Undefined
        CFI R1 Undefined
        CFI R2 Undefined
        CFI R3 Undefined
        CFI R4 Undefined
        CFI R5 Undefined
        CFI R6 SameValue
        CFI R7 SameValue
        CFI V0 SameValue
        CFI V1 SameValue
        CFI V2 SameValue
        CFI V3 SameValue
        CFI V4 SameValue
        CFI V5 SameValue
        CFI V6 SameValue
        CFI V7 SameValue
        CFI V8 SameValue
        CFI V9 SameValue
        CFI V10 SameValue
        CFI V11 SameValue
        CFI V12 SameValue
        CFI V13 SameValue
        CFI V14 SameValue
        CFI V15 SameValue
        CFI PSPH Undefined
        CFI PSPL Undefined
        CFI XSPH Undefined
        CFI XSPL Undefined
        CFI ?RET Concat
        CFI ?BRET_EXT Frame(CFA_SP, 3)
        CFI ?RET_HIGH Frame(CFA_SP, 2)
        CFI ?RET_LOW Frame(CFA_SP, 1)
        CFI EndCommon cfiCommon0
        
Onboard_wait        SYMBOL "Onboard_wait"
??Onboard_wait?relay SYMBOL "?relay", Onboard_wait
Ds18b20Initial      SYMBOL "Ds18b20Initial"
??Ds18b20Initial?relay SYMBOL "?relay", Ds18b20Initial
Ds18b20InputInitial SYMBOL "Ds18b20InputInitial"
??Ds18b20InputInitial?relay SYMBOL "?relay", Ds18b20InputInitial
Ds18b20OutputInitial SYMBOL "Ds18b20OutputInitial"
??Ds18b20OutputInitial?relay SYMBOL "?relay", Ds18b20OutputInitial
Ds18b20Read         SYMBOL "Ds18b20Read"
??Ds18b20Read?relay SYMBOL "?relay", Ds18b20Read
Ds18b20Write        SYMBOL "Ds18b20Write"
??Ds18b20Write?relay SYMBOL "?relay", Ds18b20Write
GetDS18Value        SYMBOL "GetDS18Value"
??GetDS18Value?relay SYMBOL "?relay", GetDS18Value
Temp_test           SYMBOL "Temp_test"
??Temp_test?relay   SYMBOL "?relay", Temp_test

        EXTERN Onboard_wait
        FUNCTION Onboard_wait,0202H
        ARGFRAME ISTACK, 0, STACK
        ARGFRAME PSTACK, 0, STACK
        ARGFRAME XSTACK, 10, STACK
        ARGFRAME IOVERLAY, 0, STATIC
        ARGFRAME DOVERLAY, 0, STATIC
        EXTERN ??Onboard_wait?relay
        FUNCTION ??Onboard_wait?relay,00H

// C:\Texas Instruments\ZStack-CC2530-2.5.1a\Projects\zstack\Samples\Diplomaproject\Source\ds18.c
//    1 #include "ds18.h"
//    2 #include "OnBoard.h"

        ASEGN SFR_AN:DATA:NOROOT,080H
// union <unnamed> volatile __sfr _A_P0
_A_P0:
        DATA8
        DS 1

        ASEGN SFR_AN:DATA:NOROOT,0fdH
// unsigned char volatile __sfr P0DIR
P0DIR:
        DATA8
        DS 1
//    3 /**
//    4  描述：DHT11 测试
//    5  作者：VigiLin from www.GEC-EDU.org
//    6  时间：2012-7-9
//    7 */
//    8 #include "ioCC2530.h"
//    9 #include <stdio.h>
//   10 
//   11 #define uint unsigned int 
//   12 #define uchar unsigned char
//   13 
//   14 #define Ds18b20Data P0_6 //温度传感器引脚
//   15 
//   16 #define ON 0x01  //读取成功返回0x00，失败返回0x01
//   17 #define OFF 0x00
//   18 

        RSEG XDATA_Z:XDATA:NOROOT(0)
        DATA8
//   19 unsigned char temp; //储存温度信息
temp:
        DS 1
        REQUIRE __INIT_XDATA_Z
//   20 void Ds18b20InputInitial(void);
//   21 void Ds18b20OutputInitial(void);
//   22 uchar Ds18b20Initial(void);
//   23 void Ds18b20Write(uchar infor);
//   24 uchar Ds18b20Read(void);
//   25 void Temp_test(void);
//   26 void GetDS18Value(unsigned char *pTemp,unsigned char *pTemp1);
//   27 

        RSEG BANKED_CODE:CODE:NOROOT(0)
//   28 void Ds18b20InputInitial(void)//设置端口为输入
Ds18b20InputInitial:
        CFI Block cfiBlock0 Using cfiCommon0
        CFI Function Ds18b20InputInitial
        CODE
//   29 {
        ; Saved register size: 0
        ; Auto size: 0
//   30   P0DIR &= 0xbf;
        ANL     0xfd,#0xbf
//   31 }
        LJMP    ?BRET
        CFI EndBlock cfiBlock0
        REQUIRE P0DIR
//   32 

        RSEG BANKED_CODE:CODE:NOROOT(0)
//   33 void Ds18b20OutputInitial(void)//设置端口为输出
Ds18b20OutputInitial:
        CFI Block cfiBlock1 Using cfiCommon0
        CFI Function Ds18b20OutputInitial
        CODE
//   34 {
        ; Saved register size: 0
        ; Auto size: 0
//   35    P0DIR |= 0x40;
        ORL     0xfd,#0x40
//   36 }
        LJMP    ?BRET
        CFI EndBlock cfiBlock1
        REQUIRE P0DIR
//   37 
//   38 //ds18b20初始化
//   39 //初始化成功返回0x00，失败返回0x01

        RSEG BANKED_CODE:CODE:NOROOT(0)
//   40 uchar Ds18b20Initial(void)
Ds18b20Initial:
        CFI Block cfiBlock2 Using cfiCommon0
        CFI Function Ds18b20Initial
        CODE
//   41 {
        FUNCALL Ds18b20Initial, Ds18b20OutputInitial
        LOCFRAME ISTACK, 0, STACK
        LOCFRAME PSTACK, 0, STACK
        LOCFRAME XSTACK, 10, STACK
        LOCFRAME IOVERLAY, 0, STATIC
        LOCFRAME DOVERLAY, 0, STATIC
        ARGFRAME ISTACK, 0, STACK
        ARGFRAME PSTACK, 0, STACK
        ARGFRAME XSTACK, 10, STACK
        ARGFRAME IOVERLAY, 0, STATIC
        ARGFRAME DOVERLAY, 0, STATIC
        FUNCALL Ds18b20Initial, Onboard_wait
        LOCFRAME ISTACK, 0, STACK
        LOCFRAME PSTACK, 0, STACK
        LOCFRAME XSTACK, 10, STACK
        LOCFRAME IOVERLAY, 0, STATIC
        LOCFRAME DOVERLAY, 0, STATIC
        ARGFRAME ISTACK, 0, STACK
        ARGFRAME PSTACK, 0, STACK
        ARGFRAME XSTACK, 10, STACK
        ARGFRAME IOVERLAY, 0, STATIC
        ARGFRAME DOVERLAY, 0, STATIC
        FUNCALL Ds18b20Initial, Onboard_wait
        LOCFRAME ISTACK, 0, STACK
        LOCFRAME PSTACK, 0, STACK
        LOCFRAME XSTACK, 10, STACK
        LOCFRAME IOVERLAY, 0, STATIC
        LOCFRAME DOVERLAY, 0, STATIC
        ARGFRAME ISTACK, 0, STACK
        ARGFRAME PSTACK, 0, STACK
        ARGFRAME XSTACK, 10, STACK
        ARGFRAME IOVERLAY, 0, STATIC
        ARGFRAME DOVERLAY, 0, STATIC
        FUNCALL Ds18b20Initial, Ds18b20InputInitial
        LOCFRAME ISTACK, 0, STACK
        LOCFRAME PSTACK, 0, STACK
        LOCFRAME XSTACK, 10, STACK
        LOCFRAME IOVERLAY, 0, STATIC
        LOCFRAME DOVERLAY, 0, STATIC
        ARGFRAME ISTACK, 0, STACK
        ARGFRAME PSTACK, 0, STACK
        ARGFRAME XSTACK, 10, STACK
        ARGFRAME IOVERLAY, 0, STATIC
        ARGFRAME DOVERLAY, 0, STATIC
        FUNCALL Ds18b20Initial, Onboard_wait
        LOCFRAME ISTACK, 0, STACK
        LOCFRAME PSTACK, 0, STACK
        LOCFRAME XSTACK, 10, STACK
        LOCFRAME IOVERLAY, 0, STATIC
        LOCFRAME DOVERLAY, 0, STATIC
        ARGFRAME ISTACK, 0, STACK
        ARGFRAME PSTACK, 0, STACK
        ARGFRAME XSTACK, 10, STACK
        ARGFRAME IOVERLAY, 0, STATIC
        ARGFRAME DOVERLAY, 0, STATIC
        FUNCALL Ds18b20Initial, Ds18b20OutputInitial
        LOCFRAME ISTACK, 0, STACK
        LOCFRAME PSTACK, 0, STACK
        LOCFRAME XSTACK, 10, STACK
        LOCFRAME IOVERLAY, 0, STATIC
        LOCFRAME DOVERLAY, 0, STATIC
        ARGFRAME ISTACK, 0, STACK
        ARGFRAME PSTACK, 0, STACK
        ARGFRAME XSTACK, 10, STACK
        ARGFRAME IOVERLAY, 0, STATIC
        ARGFRAME DOVERLAY, 0, STATIC
        FUNCALL Ds18b20Initial, Onboard_wait
        LOCFRAME ISTACK, 0, STACK
        LOCFRAME PSTACK, 0, STACK
        LOCFRAME XSTACK, 10, STACK
        LOCFRAME IOVERLAY, 0, STATIC
        LOCFRAME DOVERLAY, 0, STATIC
        ARGFRAME ISTACK, 0, STACK
        ARGFRAME PSTACK, 0, STACK
        ARGFRAME XSTACK, 10, STACK
        ARGFRAME IOVERLAY, 0, STATIC
        ARGFRAME DOVERLAY, 0, STATIC
        MOV     A,#-0xa
        LCALL   ?BANKED_ENTER_XDATA
        CFI DPH0 load(1, XDATA, add(CFA_XSP16, literal(-1)))
        CFI DPL0 load(1, XDATA, add(CFA_XSP16, literal(-2)))
        CFI ?BRET_EXT load(1, XDATA, add(CFA_XSP16, literal(-3)))
        CFI ?RET_HIGH load(1, XDATA, add(CFA_XSP16, literal(-4)))
        CFI ?RET_LOW load(1, XDATA, add(CFA_XSP16, literal(-5)))
        CFI R7 load(1, XDATA, add(CFA_XSP16, literal(-6)))
        CFI V1 load(1, XDATA, add(CFA_XSP16, literal(-7)))
        CFI V0 load(1, XDATA, add(CFA_XSP16, literal(-8)))
        CFI VB load(1, XDATA, add(CFA_XSP16, literal(-9)))
        CFI R6 load(1, XDATA, add(CFA_XSP16, literal(-10)))
        CFI CFA_SP SP+0
        CFI CFA_XSP16 add(XSP16, 10)
        ; Saved register size: 10
        ; Auto size: 0
//   42   uchar Status = 0x00;
        MOV     ?V0 + 0,#0x0
//   43   uint CONT_1 = 0;
        MOV     R6,#0x0
        MOV     R7,#0x0
//   44   uchar Flag_1 = ON;
        MOV     ?V0 + 1,#0x1
//   45   Ds18b20OutputInitial();
        ; Setup parameters for call to function Ds18b20OutputInitial
        LCALL   ??Ds18b20OutputInitial?relay
//   46   Ds18b20Data = 1;
        SETB    0x80.6
//   47   MicroWait(260);
        ; Setup parameters for call to function Onboard_wait
        MOV     R2,#0x4
        MOV     R3,#0x1
        LCALL   ??Onboard_wait?relay
//   48   Ds18b20Data = 0;
        CLR     0x80.6
//   49   //Ds18b20Delay(750);
//   50     MicroWait(750);
        ; Setup parameters for call to function Onboard_wait
        MOV     R2,#-0x12
        MOV     R3,#0x2
        LCALL   ??Onboard_wait?relay
//   51   Ds18b20Data = 1;
        SETB    0x80.6
//   52   Ds18b20InputInitial();
        ; Setup parameters for call to function Ds18b20InputInitial
        LCALL   ??Ds18b20InputInitial?relay
//   53   while((Ds18b20Data != 0)&&(Flag_1 == ON))//等待ds18b20响应，具有防止超时功能
??Ds18b20Initial_0:
        MOV     C,0x80.6
        JNC     ??Ds18b20Initial_1
        MOV     A,#0x1
        XRL     A,?V0 + 1
        JNZ     ??Ds18b20Initial_1
//   54   {                                        //等待约60ms左右
//   55     CONT_1++;
        MOV     A,R6
        ADD     A,#0x1
        MOV     R6,A
        MOV     A,R7
        ADDC    A,#0x0
        MOV     R7,A
//   56    // Ds18b20Delay(10);
//   57       MicroWait(10);
        ; Setup parameters for call to function Onboard_wait
        MOV     R2,#0xa
        MOV     R3,#0x0
        LCALL   ??Onboard_wait?relay
//   58     if(CONT_1 > 8000)Flag_1 = OFF;
        CLR     C
        MOV     A,R6
        SUBB    A,#0x41
        MOV     A,R7
        SUBB    A,#0x1f
        JC      ??Ds18b20Initial_2
        MOV     ?V0 + 1,#0x0
//   59     Status = Ds18b20Data;
??Ds18b20Initial_2:
        MOV     C,0x80.6
        CLR     A
        RLC     A
        MOV     ?V0 + 0,A
        SJMP    ??Ds18b20Initial_0
//   60   }
//   61   Ds18b20OutputInitial();
??Ds18b20Initial_1:
        ; Setup parameters for call to function Ds18b20OutputInitial
        LCALL   ??Ds18b20OutputInitial?relay
//   62   Ds18b20Data = 1;
        SETB    0x80.6
//   63   MicroWait(100);
        ; Setup parameters for call to function Onboard_wait
        MOV     R2,#0x64
        MOV     R3,#0x0
        LCALL   ??Onboard_wait?relay
//   64   return Status;
        MOV     R1,?V0 + 0
        MOV     R7,#0x2
        LJMP    ?BANKED_LEAVE_XDATA
        CFI EndBlock cfiBlock2
        REQUIRE _A_P0
//   65 }
//   66 
//   67 

        RSEG BANKED_CODE:CODE:NOROOT(0)
//   68 void Ds18b20Write(uchar infor)
Ds18b20Write:
        CFI Block cfiBlock3 Using cfiCommon0
        CFI Function Ds18b20Write
        CODE
//   69 {
        FUNCALL Ds18b20Write, Ds18b20OutputInitial
        LOCFRAME ISTACK, 0, STACK
        LOCFRAME PSTACK, 0, STACK
        LOCFRAME XSTACK, 9, STACK
        LOCFRAME IOVERLAY, 0, STATIC
        LOCFRAME DOVERLAY, 0, STATIC
        ARGFRAME ISTACK, 0, STACK
        ARGFRAME PSTACK, 0, STACK
        ARGFRAME XSTACK, 9, STACK
        ARGFRAME IOVERLAY, 0, STATIC
        ARGFRAME DOVERLAY, 0, STATIC
        FUNCALL Ds18b20Write, Onboard_wait
        LOCFRAME ISTACK, 0, STACK
        LOCFRAME PSTACK, 0, STACK
        LOCFRAME XSTACK, 9, STACK
        LOCFRAME IOVERLAY, 0, STATIC
        LOCFRAME DOVERLAY, 0, STATIC
        ARGFRAME ISTACK, 0, STACK
        ARGFRAME PSTACK, 0, STACK
        ARGFRAME XSTACK, 9, STACK
        ARGFRAME IOVERLAY, 0, STATIC
        ARGFRAME DOVERLAY, 0, STATIC
        FUNCALL Ds18b20Write, Onboard_wait
        LOCFRAME ISTACK, 0, STACK
        LOCFRAME PSTACK, 0, STACK
        LOCFRAME XSTACK, 9, STACK
        LOCFRAME IOVERLAY, 0, STATIC
        LOCFRAME DOVERLAY, 0, STATIC
        ARGFRAME ISTACK, 0, STACK
        ARGFRAME PSTACK, 0, STACK
        ARGFRAME XSTACK, 9, STACK
        ARGFRAME IOVERLAY, 0, STATIC
        ARGFRAME DOVERLAY, 0, STATIC
        FUNCALL Ds18b20Write, Onboard_wait
        LOCFRAME ISTACK, 0, STACK
        LOCFRAME PSTACK, 0, STACK
        LOCFRAME XSTACK, 9, STACK
        LOCFRAME IOVERLAY, 0, STATIC
        LOCFRAME DOVERLAY, 0, STATIC
        ARGFRAME ISTACK, 0, STACK
        ARGFRAME PSTACK, 0, STACK
        ARGFRAME XSTACK, 9, STACK
        ARGFRAME IOVERLAY, 0, STATIC
        ARGFRAME DOVERLAY, 0, STATIC
        FUNCALL Ds18b20Write, Onboard_wait
        LOCFRAME ISTACK, 0, STACK
        LOCFRAME PSTACK, 0, STACK
        LOCFRAME XSTACK, 9, STACK
        LOCFRAME IOVERLAY, 0, STATIC
        LOCFRAME DOVERLAY, 0, STATIC
        ARGFRAME ISTACK, 0, STACK
        ARGFRAME PSTACK, 0, STACK
        ARGFRAME XSTACK, 9, STACK
        ARGFRAME IOVERLAY, 0, STATIC
        ARGFRAME DOVERLAY, 0, STATIC
        MOV     A,#-0x9
        LCALL   ?BANKED_ENTER_XDATA
        CFI DPH0 load(1, XDATA, add(CFA_XSP16, literal(-1)))
        CFI DPL0 load(1, XDATA, add(CFA_XSP16, literal(-2)))
        CFI ?BRET_EXT load(1, XDATA, add(CFA_XSP16, literal(-3)))
        CFI ?RET_HIGH load(1, XDATA, add(CFA_XSP16, literal(-4)))
        CFI ?RET_LOW load(1, XDATA, add(CFA_XSP16, literal(-5)))
        CFI R7 load(1, XDATA, add(CFA_XSP16, literal(-6)))
        CFI V0 load(1, XDATA, add(CFA_XSP16, literal(-7)))
        CFI VB load(1, XDATA, add(CFA_XSP16, literal(-8)))
        CFI R6 load(1, XDATA, add(CFA_XSP16, literal(-9)))
        CFI CFA_SP SP+0
        CFI CFA_XSP16 add(XSP16, 9)
        ; Saved register size: 9
        ; Auto size: 0
        MOV     ?V0 + 0,R1
//   70   uint i;
//   71   Ds18b20OutputInitial();
        ; Setup parameters for call to function Ds18b20OutputInitial
        LCALL   ??Ds18b20OutputInitial?relay
//   72   for(i=0;i<8;i++)
        MOV     R6,#0x0
        MOV     R7,#0x0
??Ds18b20Write_0:
        CLR     C
        MOV     A,R6
        SUBB    A,#0x8
        MOV     A,R7
        SUBB    A,#0x0
        JNC     ??Ds18b20Write_1
//   73   {
//   74   if((infor & 0x01))
        MOV     A,?V0 + 0
        MOV     C,0xE0 /* A   */.0
        JNC     ??Ds18b20Write_2
//   75   {
//   76   Ds18b20Data = 0;
        CLR     0x80.6
//   77     MicroWait(6);
        ; Setup parameters for call to function Onboard_wait
        MOV     R2,#0x6
        MOV     R3,#0x0
        LCALL   ??Onboard_wait?relay
//   78   //Ds18b20Delay(6);
//   79   Ds18b20Data = 1;
        SETB    0x80.6
//   80     MicroWait(50);
        ; Setup parameters for call to function Onboard_wait
        MOV     R2,#0x32
        MOV     R3,#0x0
        LCALL   ??Onboard_wait?relay
        SJMP    ??Ds18b20Write_3
//   81   //Ds18b20Delay(50);
//   82   }
//   83   else
//   84   {
//   85   Ds18b20Data = 0;
??Ds18b20Write_2:
        CLR     0x80.6
//   86   MicroWait(50);
        ; Setup parameters for call to function Onboard_wait
        MOV     R2,#0x32
        MOV     R3,#0x0
        LCALL   ??Onboard_wait?relay
//   87   Ds18b20Data = 1;
        SETB    0x80.6
//   88    MicroWait(6);
        ; Setup parameters for call to function Onboard_wait
        MOV     R2,#0x6
        MOV     R3,#0x0
        LCALL   ??Onboard_wait?relay
//   89   }
//   90   infor >>= 1;
??Ds18b20Write_3:
        MOV     A,?V0 + 0
        CLR     C
        RRC     A
        MOV     ?V0 + 0,A
//   91   }
        MOV     A,R6
        ADD     A,#0x1
        MOV     R6,A
        MOV     A,R7
        ADDC    A,#0x0
        MOV     R7,A
        SJMP    ??Ds18b20Write_0
//   92 }
??Ds18b20Write_1:
        MOV     R7,#0x1
        LJMP    ?BANKED_LEAVE_XDATA
        CFI EndBlock cfiBlock3
        REQUIRE _A_P0
//   93 

        RSEG BANKED_CODE:CODE:NOROOT(0)
//   94 uchar Ds18b20Read(void)
Ds18b20Read:
        CFI Block cfiBlock4 Using cfiCommon0
        CFI Function Ds18b20Read
        CODE
//   95 {
        FUNCALL Ds18b20Read, Ds18b20OutputInitial
        LOCFRAME ISTACK, 0, STACK
        LOCFRAME PSTACK, 0, STACK
        LOCFRAME XSTACK, 9, STACK
        LOCFRAME IOVERLAY, 0, STATIC
        LOCFRAME DOVERLAY, 0, STATIC
        ARGFRAME ISTACK, 0, STACK
        ARGFRAME PSTACK, 0, STACK
        ARGFRAME XSTACK, 9, STACK
        ARGFRAME IOVERLAY, 0, STATIC
        ARGFRAME DOVERLAY, 0, STATIC
        FUNCALL Ds18b20Read, Onboard_wait
        LOCFRAME ISTACK, 0, STACK
        LOCFRAME PSTACK, 0, STACK
        LOCFRAME XSTACK, 9, STACK
        LOCFRAME IOVERLAY, 0, STATIC
        LOCFRAME DOVERLAY, 0, STATIC
        ARGFRAME ISTACK, 0, STACK
        ARGFRAME PSTACK, 0, STACK
        ARGFRAME XSTACK, 9, STACK
        ARGFRAME IOVERLAY, 0, STATIC
        ARGFRAME DOVERLAY, 0, STATIC
        FUNCALL Ds18b20Read, Ds18b20OutputInitial
        LOCFRAME ISTACK, 0, STACK
        LOCFRAME PSTACK, 0, STACK
        LOCFRAME XSTACK, 9, STACK
        LOCFRAME IOVERLAY, 0, STATIC
        LOCFRAME DOVERLAY, 0, STATIC
        ARGFRAME ISTACK, 0, STACK
        ARGFRAME PSTACK, 0, STACK
        ARGFRAME XSTACK, 9, STACK
        ARGFRAME IOVERLAY, 0, STATIC
        ARGFRAME DOVERLAY, 0, STATIC
        FUNCALL Ds18b20Read, Onboard_wait
        LOCFRAME ISTACK, 0, STACK
        LOCFRAME PSTACK, 0, STACK
        LOCFRAME XSTACK, 9, STACK
        LOCFRAME IOVERLAY, 0, STATIC
        LOCFRAME DOVERLAY, 0, STATIC
        ARGFRAME ISTACK, 0, STACK
        ARGFRAME PSTACK, 0, STACK
        ARGFRAME XSTACK, 9, STACK
        ARGFRAME IOVERLAY, 0, STATIC
        ARGFRAME DOVERLAY, 0, STATIC
        FUNCALL Ds18b20Read, Onboard_wait
        LOCFRAME ISTACK, 0, STACK
        LOCFRAME PSTACK, 0, STACK
        LOCFRAME XSTACK, 9, STACK
        LOCFRAME IOVERLAY, 0, STATIC
        LOCFRAME DOVERLAY, 0, STATIC
        ARGFRAME ISTACK, 0, STACK
        ARGFRAME PSTACK, 0, STACK
        ARGFRAME XSTACK, 9, STACK
        ARGFRAME IOVERLAY, 0, STATIC
        ARGFRAME DOVERLAY, 0, STATIC
        FUNCALL Ds18b20Read, Ds18b20InputInitial
        LOCFRAME ISTACK, 0, STACK
        LOCFRAME PSTACK, 0, STACK
        LOCFRAME XSTACK, 9, STACK
        LOCFRAME IOVERLAY, 0, STATIC
        LOCFRAME DOVERLAY, 0, STATIC
        ARGFRAME ISTACK, 0, STACK
        ARGFRAME PSTACK, 0, STACK
        ARGFRAME XSTACK, 9, STACK
        ARGFRAME IOVERLAY, 0, STATIC
        ARGFRAME DOVERLAY, 0, STATIC
        FUNCALL Ds18b20Read, Onboard_wait
        LOCFRAME ISTACK, 0, STACK
        LOCFRAME PSTACK, 0, STACK
        LOCFRAME XSTACK, 9, STACK
        LOCFRAME IOVERLAY, 0, STATIC
        LOCFRAME DOVERLAY, 0, STATIC
        ARGFRAME ISTACK, 0, STACK
        ARGFRAME PSTACK, 0, STACK
        ARGFRAME XSTACK, 9, STACK
        ARGFRAME IOVERLAY, 0, STATIC
        ARGFRAME DOVERLAY, 0, STATIC
        MOV     A,#-0x9
        LCALL   ?BANKED_ENTER_XDATA
        CFI DPH0 load(1, XDATA, add(CFA_XSP16, literal(-1)))
        CFI DPL0 load(1, XDATA, add(CFA_XSP16, literal(-2)))
        CFI ?BRET_EXT load(1, XDATA, add(CFA_XSP16, literal(-3)))
        CFI ?RET_HIGH load(1, XDATA, add(CFA_XSP16, literal(-4)))
        CFI ?RET_LOW load(1, XDATA, add(CFA_XSP16, literal(-5)))
        CFI R7 load(1, XDATA, add(CFA_XSP16, literal(-6)))
        CFI V0 load(1, XDATA, add(CFA_XSP16, literal(-7)))
        CFI VB load(1, XDATA, add(CFA_XSP16, literal(-8)))
        CFI R6 load(1, XDATA, add(CFA_XSP16, literal(-9)))
        CFI CFA_SP SP+0
        CFI CFA_XSP16 add(XSP16, 9)
        ; Saved register size: 9
        ; Auto size: 0
//   96   uchar Value = 0x00;
        MOV     ?V0 + 0,#0x0
//   97   uint i;
//   98   Ds18b20OutputInitial();
        ; Setup parameters for call to function Ds18b20OutputInitial
        LCALL   ??Ds18b20OutputInitial?relay
//   99   Ds18b20Data = 1;
        SETB    0x80.6
//  100    MicroWait(10);
        ; Setup parameters for call to function Onboard_wait
        MOV     R2,#0xa
        MOV     R3,#0x0
        LCALL   ??Onboard_wait?relay
//  101   for(i=0;i<8;i++)
        MOV     R6,#0x0
        MOV     R7,#0x0
??Ds18b20Read_0:
        CLR     C
        MOV     A,R6
        SUBB    A,#0x8
        MOV     A,R7
        SUBB    A,#0x0
        JNC     ??Ds18b20Read_1
//  102   {
//  103   Value >>= 1; 
        MOV     A,?V0 + 0
        CLR     C
        RRC     A
        MOV     ?V0 + 0,A
//  104   Ds18b20OutputInitial();
        ; Setup parameters for call to function Ds18b20OutputInitial
        LCALL   ??Ds18b20OutputInitial?relay
//  105   Ds18b20Data = 0;
        CLR     0x80.6
//  106    MicroWait(3);
        ; Setup parameters for call to function Onboard_wait
        MOV     R2,#0x3
        MOV     R3,#0x0
        LCALL   ??Onboard_wait?relay
//  107   Ds18b20Data = 1;
        SETB    0x80.6
//  108   MicroWait(3);
        ; Setup parameters for call to function Onboard_wait
        MOV     R2,#0x3
        MOV     R3,#0x0
        LCALL   ??Onboard_wait?relay
//  109   Ds18b20InputInitial();
        ; Setup parameters for call to function Ds18b20InputInitial
        LCALL   ??Ds18b20InputInitial?relay
//  110   if(Ds18b20Data == 1) Value |= 0x80;
        MOV     C,0x80.6
        JNC     ??Ds18b20Read_2
        SETB    C
        MOV     A,?V0 + 0
        MOV     0xE0 /* A   */.7,C
        MOV     ?V0 + 0,A
//  111   MicroWait(15);
??Ds18b20Read_2:
        ; Setup parameters for call to function Onboard_wait
        MOV     R2,#0xf
        MOV     R3,#0x0
        LCALL   ??Onboard_wait?relay
//  112   } 
        MOV     A,R6
        ADD     A,#0x1
        MOV     R6,A
        MOV     A,R7
        ADDC    A,#0x0
        MOV     R7,A
        SJMP    ??Ds18b20Read_0
//  113   return Value;
??Ds18b20Read_1:
        MOV     R1,?V0 + 0
        MOV     R7,#0x1
        LJMP    ?BANKED_LEAVE_XDATA
        CFI EndBlock cfiBlock4
        REQUIRE _A_P0
//  114 }
//  115 
//  116 

        RSEG BANKED_CODE:CODE:NOROOT(0)
//  117 void Temp_test(void) //温度读取函数
Temp_test:
        CFI Block cfiBlock5 Using cfiCommon0
        CFI Function Temp_test
        CODE
//  118 {
        FUNCALL Temp_test, Ds18b20Initial
        LOCFRAME ISTACK, 0, STACK
        LOCFRAME PSTACK, 0, STACK
        LOCFRAME XSTACK, 9, STACK
        LOCFRAME IOVERLAY, 0, STATIC
        LOCFRAME DOVERLAY, 0, STATIC
        ARGFRAME ISTACK, 0, STACK
        ARGFRAME PSTACK, 0, STACK
        ARGFRAME XSTACK, 9, STACK
        ARGFRAME IOVERLAY, 0, STATIC
        ARGFRAME DOVERLAY, 0, STATIC
        FUNCALL Temp_test, Ds18b20Write
        LOCFRAME ISTACK, 0, STACK
        LOCFRAME PSTACK, 0, STACK
        LOCFRAME XSTACK, 9, STACK
        LOCFRAME IOVERLAY, 0, STATIC
        LOCFRAME DOVERLAY, 0, STATIC
        ARGFRAME ISTACK, 0, STACK
        ARGFRAME PSTACK, 0, STACK
        ARGFRAME XSTACK, 9, STACK
        ARGFRAME IOVERLAY, 0, STATIC
        ARGFRAME DOVERLAY, 0, STATIC
        FUNCALL Temp_test, Ds18b20Write
        LOCFRAME ISTACK, 0, STACK
        LOCFRAME PSTACK, 0, STACK
        LOCFRAME XSTACK, 9, STACK
        LOCFRAME IOVERLAY, 0, STATIC
        LOCFRAME DOVERLAY, 0, STATIC
        ARGFRAME ISTACK, 0, STACK
        ARGFRAME PSTACK, 0, STACK
        ARGFRAME XSTACK, 9, STACK
        ARGFRAME IOVERLAY, 0, STATIC
        ARGFRAME DOVERLAY, 0, STATIC
        FUNCALL Temp_test, Ds18b20Initial
        LOCFRAME ISTACK, 0, STACK
        LOCFRAME PSTACK, 0, STACK
        LOCFRAME XSTACK, 9, STACK
        LOCFRAME IOVERLAY, 0, STATIC
        LOCFRAME DOVERLAY, 0, STATIC
        ARGFRAME ISTACK, 0, STACK
        ARGFRAME PSTACK, 0, STACK
        ARGFRAME XSTACK, 9, STACK
        ARGFRAME IOVERLAY, 0, STATIC
        ARGFRAME DOVERLAY, 0, STATIC
        FUNCALL Temp_test, Ds18b20Write
        LOCFRAME ISTACK, 0, STACK
        LOCFRAME PSTACK, 0, STACK
        LOCFRAME XSTACK, 9, STACK
        LOCFRAME IOVERLAY, 0, STATIC
        LOCFRAME DOVERLAY, 0, STATIC
        ARGFRAME ISTACK, 0, STACK
        ARGFRAME PSTACK, 0, STACK
        ARGFRAME XSTACK, 9, STACK
        ARGFRAME IOVERLAY, 0, STATIC
        ARGFRAME DOVERLAY, 0, STATIC
        FUNCALL Temp_test, Ds18b20Write
        LOCFRAME ISTACK, 0, STACK
        LOCFRAME PSTACK, 0, STACK
        LOCFRAME XSTACK, 9, STACK
        LOCFRAME IOVERLAY, 0, STATIC
        LOCFRAME DOVERLAY, 0, STATIC
        ARGFRAME ISTACK, 0, STACK
        ARGFRAME PSTACK, 0, STACK
        ARGFRAME XSTACK, 9, STACK
        ARGFRAME IOVERLAY, 0, STATIC
        ARGFRAME DOVERLAY, 0, STATIC
        FUNCALL Temp_test, Ds18b20Read
        LOCFRAME ISTACK, 0, STACK
        LOCFRAME PSTACK, 0, STACK
        LOCFRAME XSTACK, 9, STACK
        LOCFRAME IOVERLAY, 0, STATIC
        LOCFRAME DOVERLAY, 0, STATIC
        ARGFRAME ISTACK, 0, STACK
        ARGFRAME PSTACK, 0, STACK
        ARGFRAME XSTACK, 9, STACK
        ARGFRAME IOVERLAY, 0, STATIC
        ARGFRAME DOVERLAY, 0, STATIC
        FUNCALL Temp_test, Ds18b20Read
        LOCFRAME ISTACK, 0, STACK
        LOCFRAME PSTACK, 0, STACK
        LOCFRAME XSTACK, 9, STACK
        LOCFRAME IOVERLAY, 0, STATIC
        LOCFRAME DOVERLAY, 0, STATIC
        ARGFRAME ISTACK, 0, STACK
        ARGFRAME PSTACK, 0, STACK
        ARGFRAME XSTACK, 9, STACK
        ARGFRAME IOVERLAY, 0, STATIC
        ARGFRAME DOVERLAY, 0, STATIC
        MOV     A,#-0x9
        LCALL   ?BANKED_ENTER_XDATA
        CFI DPH0 load(1, XDATA, add(CFA_XSP16, literal(-1)))
        CFI DPL0 load(1, XDATA, add(CFA_XSP16, literal(-2)))
        CFI ?BRET_EXT load(1, XDATA, add(CFA_XSP16, literal(-3)))
        CFI ?RET_HIGH load(1, XDATA, add(CFA_XSP16, literal(-4)))
        CFI ?RET_LOW load(1, XDATA, add(CFA_XSP16, literal(-5)))
        CFI R7 load(1, XDATA, add(CFA_XSP16, literal(-6)))
        CFI V0 load(1, XDATA, add(CFA_XSP16, literal(-7)))
        CFI VB load(1, XDATA, add(CFA_XSP16, literal(-8)))
        CFI R6 load(1, XDATA, add(CFA_XSP16, literal(-9)))
        CFI CFA_SP SP+0
        CFI CFA_XSP16 add(XSP16, 9)
        ; Saved register size: 9
        ; Auto size: 0
//  119   uchar V1,V2;
//  120  
//  121   Ds18b20Initial();
        ; Setup parameters for call to function Ds18b20Initial
        LCALL   ??Ds18b20Initial?relay
        MOV     A,R1
//  122   Ds18b20Write(0xcc);
        ; Setup parameters for call to function Ds18b20Write
        MOV     R1,#-0x34
        LCALL   ??Ds18b20Write?relay
//  123   Ds18b20Write(0x44);
        ; Setup parameters for call to function Ds18b20Write
        MOV     R1,#0x44
        LCALL   ??Ds18b20Write?relay
//  124   
//  125   Ds18b20Initial();
        ; Setup parameters for call to function Ds18b20Initial
        LCALL   ??Ds18b20Initial?relay
        MOV     A,R1
//  126   Ds18b20Write(0xcc);
        ; Setup parameters for call to function Ds18b20Write
        MOV     R1,#-0x34
        LCALL   ??Ds18b20Write?relay
//  127   Ds18b20Write(0xbe);
        ; Setup parameters for call to function Ds18b20Write
        MOV     R1,#-0x42
        LCALL   ??Ds18b20Write?relay
//  128   
//  129   V1 = Ds18b20Read();
        ; Setup parameters for call to function Ds18b20Read
        LCALL   ??Ds18b20Read?relay
        MOV     A,R1
        MOV     R6,A
//  130   V2 = Ds18b20Read();
        ; Setup parameters for call to function Ds18b20Read
        LCALL   ??Ds18b20Read?relay
        MOV     A,R1
        MOV     R7,A
//  131   temp = ((V1 >> 4)+((V2 & 0x07)*16));  
        MOV     B,#0x10
        MOV     A,#0x7
        ANL     A,R7
        MUL     AB
        MOV     R0,A
        MOV     A,R6
        SWAP    A
        ANL     A,#0xf
        ADD     A,R0
        MOV     DPTR,#temp
        MOVX    @DPTR,A
//  132 }
        MOV     R7,#0x1
        LJMP    ?BANKED_LEAVE_XDATA
        CFI EndBlock cfiBlock5
//  133 

        RSEG BANKED_CODE:CODE:NOROOT(0)
//  134 void GetDS18Value(unsigned char *pTemp,unsigned char *pTemp1)
GetDS18Value:
        CFI Block cfiBlock6 Using cfiCommon0
        CFI Function GetDS18Value
        CODE
//  135 {
        FUNCALL GetDS18Value, Temp_test
        LOCFRAME ISTACK, 0, STACK
        LOCFRAME PSTACK, 0, STACK
        LOCFRAME XSTACK, 10, STACK
        LOCFRAME IOVERLAY, 0, STATIC
        LOCFRAME DOVERLAY, 0, STATIC
        ARGFRAME ISTACK, 0, STACK
        ARGFRAME PSTACK, 0, STACK
        ARGFRAME XSTACK, 10, STACK
        ARGFRAME IOVERLAY, 0, STATIC
        ARGFRAME DOVERLAY, 0, STATIC
        MOV     A,#-0xa
        LCALL   ?BANKED_ENTER_XDATA
        CFI DPH0 load(1, XDATA, add(CFA_XSP16, literal(-1)))
        CFI DPL0 load(1, XDATA, add(CFA_XSP16, literal(-2)))
        CFI ?BRET_EXT load(1, XDATA, add(CFA_XSP16, literal(-3)))
        CFI ?RET_HIGH load(1, XDATA, add(CFA_XSP16, literal(-4)))
        CFI ?RET_LOW load(1, XDATA, add(CFA_XSP16, literal(-5)))
        CFI R7 load(1, XDATA, add(CFA_XSP16, literal(-6)))
        CFI V1 load(1, XDATA, add(CFA_XSP16, literal(-7)))
        CFI V0 load(1, XDATA, add(CFA_XSP16, literal(-8)))
        CFI VB load(1, XDATA, add(CFA_XSP16, literal(-9)))
        CFI R6 load(1, XDATA, add(CFA_XSP16, literal(-10)))
        CFI CFA_SP SP+0
        CFI CFA_XSP16 add(XSP16, 10)
        ; Saved register size: 10
        ; Auto size: 0
        MOV     A,R2
        MOV     R6,A
        MOV     A,R3
        MOV     R7,A
        MOV     ?V0 + 0,R4
        MOV     ?V0 + 1,R5
//  136     Temp_test();   //温度检测
        ; Setup parameters for call to function Temp_test
        LCALL   ??Temp_test?relay
//  137     *pTemp=(temp%100)/10;
        MOV     B,#0xa
        PUSH    B
        CFI CFA_SP SP+-1
        MOV     DPTR,#temp
        MOVX    A,@DPTR
        MOV     B,#0x64
        DIV     AB
        MOV     A,B
        POP     B
        CFI CFA_SP SP+0
        DIV     AB
        MOV     DPL,R6
        MOV     DPH,R7
        MOVX    @DPTR,A
//  138     *pTemp1=(temp%100)%10;
        MOV     DPTR,#temp
        MOVX    A,@DPTR
        MOV     B,#0x64
        DIV     AB
        MOV     A,B
        MOV     B,#0xa
        DIV     AB
        MOV     A,B
        MOV     DPL,?V0 + 0
        MOV     DPH,?V0 + 1
        MOV     A,B
        MOVX    @DPTR,A
//  139 }
        MOV     R7,#0x2
        LJMP    ?BANKED_LEAVE_XDATA
        CFI EndBlock cfiBlock6

        RSEG BANK_RELAYS:CODE:REORDER:NOROOT(0)
??Ds18b20InputInitial?relay:
        LCALL   ?BDISPATCH
        DATA
        DC24    Ds18b20InputInitial

        RSEG BANK_RELAYS:CODE:REORDER:NOROOT(0)
??Ds18b20OutputInitial?relay:
        LCALL   ?BDISPATCH
        DATA
        DC24    Ds18b20OutputInitial

        RSEG BANK_RELAYS:CODE:REORDER:NOROOT(0)
??Ds18b20Initial?relay:
        LCALL   ?BDISPATCH
        DATA
        DC24    Ds18b20Initial

        RSEG BANK_RELAYS:CODE:REORDER:NOROOT(0)
??Ds18b20Write?relay:
        LCALL   ?BDISPATCH
        DATA
        DC24    Ds18b20Write

        RSEG BANK_RELAYS:CODE:REORDER:NOROOT(0)
??Ds18b20Read?relay:
        LCALL   ?BDISPATCH
        DATA
        DC24    Ds18b20Read

        RSEG BANK_RELAYS:CODE:REORDER:NOROOT(0)
??Temp_test?relay:
        LCALL   ?BDISPATCH
        DATA
        DC24    Temp_test

        RSEG BANK_RELAYS:CODE:REORDER:NOROOT(0)
??GetDS18Value?relay:
        LCALL   ?BDISPATCH
        DATA
        DC24    GetDS18Value

        END
// 
// 437 bytes in segment BANKED_CODE
//  42 bytes in segment BANK_RELAYS
//   2 bytes in segment SFR_AN
//   1 byte  in segment XDATA_Z
// 
// 479 bytes of CODE  memory
//   0 bytes of DATA  memory (+ 2 bytes shared)
//   1 byte  of XDATA memory
//
//Errors: none
//Warnings: none
