///////////////////////////////////////////////////////////////////////////////
//                                                                            /
// IAR C/C++ Compiler V8.10.1.40194/W32 for 8051        03/Mar/2020  13:32:26 /
// Copyright 2004-2011 IAR Systems AB.                                        /
//                                                                            /
//    Core               =  plain                                             /
//    Code model         =  banked                                            /
//    Data model         =  large                                             /
//    Calling convention =  xdata reentrant                                   /
//    Constant location  =  data_rom                                          /
//    Dptr setup         =  1,16                                              /
//    Source file        =  C:\Texas Instruments\ZStack-CC2530-2.5.1a\Project /
//                          s\zstack\Samples\Diplomaproject\Source\IC_w_r.c   /
//    Command line       =  -f "C:\Texas Instruments\ZStack-CC2530-2.5.1a\Pro /
//                          jects\zstack\Samples\Diplomaproject\CC2530DB\..\. /
//                          .\..\Tools\CC2530DB\f8wCoord.cfg" (-DCPU32MHZ     /
//                          -DROOT=__near_func -DMAC_CFG_APP_PENDING_QUEUE=TR /
//                          UE -DMAC_CFG_TX_DATA_MAX=5 -DMAC_CFG_TX_MAX=8     /
//                          -DMAC_CFG_RX_MAX=5 -DZDO_COORDINATOR -DRTR_NWK)   /
//                          -f "C:\Texas Instruments\ZStack-CC2530-2.5.1a\Pro /
//                          jects\zstack\Samples\Diplomaproject\CC2530DB\..\. /
//                          .\..\Tools\CC2530DB\f8wConfig.cfg" (-DZIGBEEPRO   /
//                          -DSECURE=0 -DZG_SECURE_DYNAMIC=0 -DREFLECTOR      /
//                          -DDEFAULT_CHANLIST=0x00000800                     /
//                          -DZDAPP_CONFIG_PAN_ID=0xFFFF                      /
//                          -DNWK_START_DELAY=100 -DEXTENDED_JOINING_RANDOM_M /
//                          ASK=0x007F -DBEACON_REQUEST_DELAY=100             /
//                          -DBEACON_REQ_DELAY_MASK=0x00FF                    /
//                          -DLINK_STATUS_JITTER_MASK=0x007F                  /
//                          -DROUTE_EXPIRY_TIME=30 -DAPSC_ACK_WAIT_DURATION_P /
//                          OLLED=3000 -DNWK_INDIRECT_MSG_TIMEOUT=7           /
//                          -DMAX_RREQ_ENTRIES=8 -DAPSC_MAX_FRAME_RETRIES=3   /
//                          -DNWK_MAX_DATA_RETRIES=2                          /
//                          -DMAX_POLL_FAILURE_RETRIES=2 -DMAX_BCAST=9        /
//                          -DAPS_MAX_GROUPS=16 -DMAX_RTG_ENTRIES=40          /
//                          -DNWK_MAX_BINDING_ENTRIES=4                       /
//                          -DMAX_BINDING_CLUSTER_IDS=4                       /
//                          "-DDEFAULT_KEY={0x01, 0x03, 0x05, 0x07, 0x09,     /
//                          0x0B, 0x0D, 0x0F, 0x00, 0x02, 0x04, 0x06, 0x08,   /
//                          0x0A, 0x0C, 0x0D}" -DMAC_MAX_FRAME_SIZE=116       /
//                          -DZDNWKMGR_MIN_TRANSMISSIONS=20 "-DCONST=const    /
//                          __code" -DGENERIC=__generic                       /
//                          -DRFD_RCVC_ALWAYS_ON=FALSE -DPOLL_RATE=1000       /
//                          -DQUEUED_POLL_RATE=100 -DRESPONSE_POLL_RATE=100)  /
//                          -DREJOIN_POLL_RATE=440 "C:\Texas                  /
//                          Instruments\ZStack-CC2530-2.5.1a\Projects\zstack\ /
//                          Samples\Diplomaproject\Source\IC_w_r.c" -D        /
//                          ZTOOL_P1 -D xMT_TASK -D xMT_SYS_FUNC -D           /
//                          xMT_ZDO_FUNC -D xLCD_SUPPORTED=DEBUG -lC          /
//                          "C:\Texas Instruments\ZStack-CC2530-2.5.1a\Projec /
//                          ts\zstack\Samples\Diplomaproject\CC2530DB\Coordin /
//                          atorEB\List\" -lA "C:\Texas                       /
//                          Instruments\ZStack-CC2530-2.5.1a\Projects\zstack\ /
//                          Samples\Diplomaproject\CC2530DB\CoordinatorEB\Lis /
//                          t\" --diag_suppress Pe001,Pa010 -o "C:\Texas      /
//                          Instruments\ZStack-CC2530-2.5.1a\Projects\zstack\ /
//                          Samples\Diplomaproject\CC2530DB\CoordinatorEB\Obj /
//                          \" -e --no_cse --no_unroll --no_inline            /
//                          --no_code_motion --no_tbaa --debug --core=plain   /
//                          --dptr=16,1 --data_model=large                    /
//                          --code_model=banked --calling_convention=xdata_re /
//                          entrant --place_constants=data_rom                /
//                          --nr_virtual_regs 16 -I "C:\Texas                 /
//                          Instruments\ZStack-CC2530-2.5.1a\Projects\zstack\ /
//                          Samples\Diplomaproject\CC2530DB\" -I "C:\Texas    /
//                          Instruments\ZStack-CC2530-2.5.1a\Projects\zstack\ /
//                          Samples\Diplomaproject\CC2530DB\..\Source\" -I    /
//                          "C:\Texas Instruments\ZStack-CC2530-2.5.1a\Projec /
//                          ts\zstack\Samples\Diplomaproject\CC2530DB\..\..\. /
//                          .\ZMain\TI2530DB\" -I "C:\Texas                   /
//                          Instruments\ZStack-CC2530-2.5.1a\Projects\zstack\ /
//                          Samples\Diplomaproject\CC2530DB\..\..\..\..\..\Co /
//                          mponents\hal\include\" -I "C:\Texas               /
//                          Instruments\ZStack-CC2530-2.5.1a\Projects\zstack\ /
//                          Samples\Diplomaproject\CC2530DB\..\..\..\..\..\Co /
//                          mponents\hal\target\CC2530EB\" -I "C:\Texas       /
//                          Instruments\ZStack-CC2530-2.5.1a\Projects\zstack\ /
//                          Samples\Diplomaproject\CC2530DB\..\..\..\..\..\Co /
//                          mponents\mac\include\" -I "C:\Texas               /
//                          Instruments\ZStack-CC2530-2.5.1a\Projects\zstack\ /
//                          Samples\Diplomaproject\CC2530DB\..\..\..\..\..\Co /
//                          mponents\mac\high_level\" -I "C:\Texas            /
//                          Instruments\ZStack-CC2530-2.5.1a\Projects\zstack\ /
//                          Samples\Diplomaproject\CC2530DB\..\..\..\..\..\Co /
//                          mponents\mac\low_level\srf04\" -I "C:\Texas       /
//                          Instruments\ZStack-CC2530-2.5.1a\Projects\zstack\ /
//                          Samples\Diplomaproject\CC2530DB\..\..\..\..\..\Co /
//                          mponents\mac\low_level\srf04\single_chip\" -I     /
//                          "C:\Texas Instruments\ZStack-CC2530-2.5.1a\Projec /
//                          ts\zstack\Samples\Diplomaproject\CC2530DB\..\..\. /
//                          .\..\..\Components\mt\" -I "C:\Texas              /
//                          Instruments\ZStack-CC2530-2.5.1a\Projects\zstack\ /
//                          Samples\Diplomaproject\CC2530DB\..\..\..\..\..\Co /
//                          mponents\osal\include\" -I "C:\Texas              /
//                          Instruments\ZStack-CC2530-2.5.1a\Projects\zstack\ /
//                          Samples\Diplomaproject\CC2530DB\..\..\..\..\..\Co /
//                          mponents\services\saddr\" -I "C:\Texas            /
//                          Instruments\ZStack-CC2530-2.5.1a\Projects\zstack\ /
//                          Samples\Diplomaproject\CC2530DB\..\..\..\..\..\Co /
//                          mponents\services\sdata\" -I "C:\Texas            /
//                          Instruments\ZStack-CC2530-2.5.1a\Projects\zstack\ /
//                          Samples\Diplomaproject\CC2530DB\..\..\..\..\..\Co /
//                          mponents\stack\af\" -I "C:\Texas                  /
//                          Instruments\ZStack-CC2530-2.5.1a\Projects\zstack\ /
//                          Samples\Diplomaproject\CC2530DB\..\..\..\..\..\Co /
//                          mponents\stack\nwk\" -I "C:\Texas                 /
//                          Instruments\ZStack-CC2530-2.5.1a\Projects\zstack\ /
//                          Samples\Diplomaproject\CC2530DB\..\..\..\..\..\Co /
//                          mponents\stack\sapi\" -I "C:\Texas                /
//                          Instruments\ZStack-CC2530-2.5.1a\Projects\zstack\ /
//                          Samples\Diplomaproject\CC2530DB\..\..\..\..\..\Co /
//                          mponents\stack\sec\" -I "C:\Texas                 /
//                          Instruments\ZStack-CC2530-2.5.1a\Projects\zstack\ /
//                          Samples\Diplomaproject\CC2530DB\..\..\..\..\..\Co /
//                          mponents\stack\sys\" -I "C:\Texas                 /
//                          Instruments\ZStack-CC2530-2.5.1a\Projects\zstack\ /
//                          Samples\Diplomaproject\CC2530DB\..\..\..\..\..\Co /
//                          mponents\stack\zdo\" -I "C:\Texas                 /
//                          Instruments\ZStack-CC2530-2.5.1a\Projects\zstack\ /
//                          Samples\Diplomaproject\CC2530DB\..\..\..\..\..\Co /
//                          mponents\zmac\" -I "C:\Texas                      /
//                          Instruments\ZStack-CC2530-2.5.1a\Projects\zstack\ /
//                          Samples\Diplomaproject\CC2530DB\..\..\..\..\..\Co /
//                          mponents\zmac\f8w\" -On                           /
//    List file          =  C:\Texas Instruments\ZStack-CC2530-2.5.1a\Project /
//                          s\zstack\Samples\Diplomaproject\CC2530DB\Coordina /
//                          torEB\List\IC_w_r.s51                             /
//                                                                            /
//                                                                            /
///////////////////////////////////////////////////////////////////////////////

        NAME IC_w_r

        RTMODEL "__SystemLibrary", "CLib"
        RTMODEL "__calling_convention", "xdata_reentrant"
        RTMODEL "__code_model", "banked"
        RTMODEL "__core", "plain"
        RTMODEL "__data_model", "large"
        RTMODEL "__dptr_size", "16"
        RTMODEL "__extended_stack", "disabled"
        RTMODEL "__location_for_constants", "data"
        RTMODEL "__number_of_dptrs", "1"
        RTMODEL "__rt_version", "1"

        RSEG DOVERLAY:DATA:NOROOT(0)
        RSEG IOVERLAY:IDATA:NOROOT(0)
        RSEG ISTACK:IDATA:NOROOT(0)
        RSEG PSTACK:XDATA:NOROOT(0)
        RSEG XSTACK:XDATA:NOROOT(0)

        EXTERN ?ALLOC_XSTACK8
        EXTERN ?BANKED_ENTER_XDATA
        EXTERN ?BANKED_LEAVE_XDATA
        EXTERN ?BDISPATCH
        EXTERN ?BRET
        EXTERN ?DEALLOC_XSTACK8
        EXTERN ?MOVE_LONG8_XDATA_XDATA
        EXTERN ?POP_BIT_ISP
        EXTERN ?PUSH_XSTACK_I_TWO
        EXTERN ?V0
        EXTERN ?XSP
        EXTERN ?XSTACK_DISP0_8

        PUBLIC ??CalulateCRC?relay
        FUNCTION ??CalulateCRC?relay,0203H
        PUBLIC ??ClearBitMask?relay
        FUNCTION ??ClearBitMask?relay,0203H
        PUBLIC ??Delay_I_1us?relay
        FUNCTION ??Delay_I_1us?relay,0203H
        PUBLIC ??IC_CMT?relay
        FUNCTION ??IC_CMT?relay,0203H
        PUBLIC ??M500PcdConfigISOType?relay
        FUNCTION ??M500PcdConfigISOType?relay,0203H
        PUBLIC ??PcdAntennaOff?relay
        FUNCTION ??PcdAntennaOff?relay,0203H
        PUBLIC ??PcdAntennaOn?relay
        FUNCTION ??PcdAntennaOn?relay,0203H
        PUBLIC ??PcdAnticoll?relay
        FUNCTION ??PcdAnticoll?relay,0203H
        PUBLIC ??PcdAuthState?relay
        FUNCTION ??PcdAuthState?relay,0203H
        PUBLIC ??PcdComMF522?relay
        FUNCTION ??PcdComMF522?relay,0203H
        PUBLIC ??PcdHalt?relay
        FUNCTION ??PcdHalt?relay,0203H
        PUBLIC ??PcdRead?relay
        FUNCTION ??PcdRead?relay,0203H
        PUBLIC ??PcdRequest?relay
        FUNCTION ??PcdRequest?relay,0203H
        PUBLIC ??PcdReset?relay
        FUNCTION ??PcdReset?relay,0203H
        PUBLIC ??PcdSelect?relay
        FUNCTION ??PcdSelect?relay,0203H
        PUBLIC ??PcdWrite?relay
        FUNCTION ??PcdWrite?relay,0203H
        PUBLIC ??ReadRawRC?relay
        FUNCTION ??ReadRawRC?relay,0203H
        PUBLIC ??SPIReadByte?relay
        FUNCTION ??SPIReadByte?relay,0203H
        PUBLIC ??SPIWriteByte?relay
        FUNCTION ??SPIWriteByte?relay,0203H
        PUBLIC ??SetBitMask?relay
        FUNCTION ??SetBitMask?relay,0203H
        PUBLIC ??WriteRawRC?relay
        FUNCTION ??WriteRawRC?relay,0203H
        PUBLIC CalulateCRC
        FUNCTION CalulateCRC,021203H
        ARGFRAME XSTACK, 34, STACK
        ARGFRAME IOVERLAY, 0, STATIC
        ARGFRAME DOVERLAY, 0, STATIC
        LOCFRAME ISTACK, 1, STACK
        LOCFRAME XSTACK, 15, STACK
        PUBLIC ClearBitMask
        FUNCTION ClearBitMask,021203H
        ARGFRAME XSTACK, 33, STACK
        ARGFRAME IOVERLAY, 0, STATIC
        ARGFRAME DOVERLAY, 0, STATIC
        LOCFRAME XSTACK, 9, STACK
        PUBLIC Delay_I_1us
        FUNCTION Delay_I_1us,0203H
        ARGFRAME XSTACK, 9, STACK
        ARGFRAME IOVERLAY, 0, STATIC
        ARGFRAME DOVERLAY, 0, STATIC
        PUBLIC IC_CMT
        FUNCTION IC_CMT,021203H
        ARGFRAME XSTACK, 2, STACK
        LOCFRAME ISTACK, 2, STACK
        LOCFRAME XSTACK, 48, STACK
        PUBLIC M500PcdConfigISOType
        FUNCTION M500PcdConfigISOType,021203H
        ARGFRAME XSTACK, 0, STACK
        LOCFRAME XSTACK, 9, STACK
        PUBLIC PcdAntennaOff
        FUNCTION PcdAntennaOff,021203H
        ARGFRAME XSTACK, 0, STACK
        LOCFRAME ISTACK, 2, STACK
        PUBLIC PcdAntennaOn
        FUNCTION PcdAntennaOn,021203H
        ARGFRAME XSTACK, 9, STACK
        ARGFRAME IOVERLAY, 0, STATIC
        ARGFRAME DOVERLAY, 0, STATIC
        LOCFRAME XSTACK, 9, STACK
        PUBLIC PcdAnticoll
        FUNCTION PcdAnticoll,021203H
        ARGFRAME XSTACK, 46, STACK
        ARGFRAME IOVERLAY, 0, STATIC
        ARGFRAME DOVERLAY, 0, STATIC
        LOCFRAME ISTACK, 1, STACK
        LOCFRAME XSTACK, 37, STACK
        PUBLIC PcdAuthState
        FUNCTION PcdAuthState,021203H
        ARGFRAME XSTACK, 48, STACK
        ARGFRAME IOVERLAY, 0, STATIC
        ARGFRAME DOVERLAY, 0, STATIC
        LOCFRAME ISTACK, 1, STACK
        LOCFRAME XSTACK, 40, STACK
        PUBLIC PcdComMF522
        FUNCTION PcdComMF522,021203H
        ARGFRAME XSTACK, 40, STACK
        ARGFRAME IOVERLAY, 0, STATIC
        ARGFRAME DOVERLAY, 0, STATIC
        LOCFRAME ISTACK, 1, STACK
        LOCFRAME XSTACK, 24, STACK
        PUBLIC PcdHalt
        FUNCTION PcdHalt,021203H
        ARGFRAME XSTACK, 46, STACK
        ARGFRAME IOVERLAY, 0, STATIC
        ARGFRAME DOVERLAY, 0, STATIC
        LOCFRAME XSTACK, 34, STACK
        PUBLIC PcdRead
        FUNCTION PcdRead,021203H
        ARGFRAME XSTACK, 46, STACK
        ARGFRAME IOVERLAY, 0, STATIC
        ARGFRAME DOVERLAY, 0, STATIC
        LOCFRAME ISTACK, 1, STACK
        LOCFRAME XSTACK, 38, STACK
        PUBLIC PcdRequest
        FUNCTION PcdRequest,021203H
        ARGFRAME XSTACK, 46, STACK
        ARGFRAME IOVERLAY, 0, STATIC
        ARGFRAME DOVERLAY, 0, STATIC
        LOCFRAME ISTACK, 1, STACK
        LOCFRAME XSTACK, 36, STACK
        PUBLIC PcdReset
        FUNCTION PcdReset,021203H
        ARGFRAME XSTACK, 0, STACK
        LOCFRAME ISTACK, 2, STACK
        PUBLIC PcdSelect
        FUNCTION PcdSelect,021203H
        ARGFRAME XSTACK, 46, STACK
        ARGFRAME IOVERLAY, 0, STATIC
        ARGFRAME DOVERLAY, 0, STATIC
        LOCFRAME ISTACK, 1, STACK
        LOCFRAME XSTACK, 36, STACK
        PUBLIC PcdWrite
        FUNCTION PcdWrite,021203H
        ARGFRAME XSTACK, 46, STACK
        ARGFRAME IOVERLAY, 0, STATIC
        ARGFRAME DOVERLAY, 0, STATIC
        LOCFRAME ISTACK, 1, STACK
        LOCFRAME XSTACK, 38, STACK
        PUBLIC ReadRawRC
        FUNCTION ReadRawRC,021203H
        ARGFRAME XSTACK, 36, STACK
        ARGFRAME IOVERLAY, 0, STATIC
        ARGFRAME DOVERLAY, 0, STATIC
        LOCFRAME XSTACK, 9, STACK
        PUBLIC SPIReadByte
        FUNCTION SPIReadByte,021203H
        ARGFRAME XSTACK, 9, STACK
        ARGFRAME IOVERLAY, 0, STATIC
        ARGFRAME DOVERLAY, 0, STATIC
        LOCFRAME XSTACK, 9, STACK
        PUBLIC SPIWriteByte
        FUNCTION SPIWriteByte,021203H
        ARGFRAME XSTACK, 9, STACK
        ARGFRAME IOVERLAY, 0, STATIC
        ARGFRAME DOVERLAY, 0, STATIC
        LOCFRAME XSTACK, 9, STACK
        PUBLIC SetBitMask
        FUNCTION SetBitMask,021203H
        ARGFRAME XSTACK, 33, STACK
        ARGFRAME IOVERLAY, 0, STATIC
        ARGFRAME DOVERLAY, 0, STATIC
        LOCFRAME XSTACK, 9, STACK
        PUBLIC WriteRawRC
        FUNCTION WriteRawRC,021203H
        ARGFRAME XSTACK, 33, STACK
        ARGFRAME IOVERLAY, 0, STATIC
        ARGFRAME DOVERLAY, 0, STATIC
        LOCFRAME XSTACK, 9, STACK
        PUBWEAK _A_P0
        PUBWEAK _A_P1
        
        CFI Names cfiNames0
        CFI StackFrame CFA_SP SP IDATA
        CFI StackFrame CFA_PSP16 PSP16 XDATA
        CFI StackFrame CFA_XSP16 XSP16 XDATA
        CFI StaticOverlayFrame CFA_IOVERLAY IOVERLAY
        CFI StaticOverlayFrame CFA_DOVERLAY DOVERLAY
        CFI Resource `PSW.CY`:1, `B.BR0`:1, `B.BR1`:1, `B.BR2`:1, `B.BR3`:1
        CFI Resource `B.BR4`:1, `B.BR5`:1, `B.BR6`:1, `B.BR7`:1, `VB.BR8`:1
        CFI Resource `VB.BR9`:1, `VB.BR10`:1, `VB.BR11`:1, `VB.BR12`:1
        CFI Resource `VB.BR13`:1, `VB.BR14`:1, `VB.BR15`:1, VB:8, B:8, A:8
        CFI Resource PSW:8, DPL0:8, DPH0:8, R0:8, R1:8, R2:8, R3:8, R4:8, R5:8
        CFI Resource R6:8, R7:8, V0:8, V1:8, V2:8, V3:8, V4:8, V5:8, V6:8, V7:8
        CFI Resource V8:8, V9:8, V10:8, V11:8, V12:8, V13:8, V14:8, V15:8, SP:8
        CFI Resource PSPH:8, PSPL:8, PSP16:16, XSPH:8, XSPL:8, XSP16:16
        CFI VirtualResource ?RET:24
        CFI Resource ?BRET_EXT:8
        CFI VirtualResource ?RET_HIGH:8, ?RET_LOW:8
        CFI ResourceParts PSP16 PSPH, PSPL
        CFI ResourceParts XSP16 XSPH, XSPL
        CFI ResourceParts ?RET ?BRET_EXT, ?RET_HIGH, ?RET_LOW
        CFI EndNames cfiNames0
        
        CFI Common cfiCommon0 Using cfiNames0
        CFI CodeAlign 1
        CFI DataAlign -1
        CFI ReturnAddress ?RET CODE
        CFI CFA_DOVERLAY Used
        CFI CFA_IOVERLAY Used
        CFI CFA_SP SP+-3
        CFI CFA_PSP16 PSP16+0
        CFI CFA_XSP16 XSP16+0
        CFI `PSW.CY` SameValue
        CFI `B.BR0` SameValue
        CFI `B.BR1` SameValue
        CFI `B.BR2` SameValue
        CFI `B.BR3` SameValue
        CFI `B.BR4` SameValue
        CFI `B.BR5` SameValue
        CFI `B.BR6` SameValue
        CFI `B.BR7` SameValue
        CFI `VB.BR8` SameValue
        CFI `VB.BR9` SameValue
        CFI `VB.BR10` SameValue
        CFI `VB.BR11` SameValue
        CFI `VB.BR12` SameValue
        CFI `VB.BR13` SameValue
        CFI `VB.BR14` SameValue
        CFI `VB.BR15` SameValue
        CFI VB SameValue
        CFI B Undefined
        CFI A Undefined
        CFI PSW SameValue
        CFI DPL0 SameValue
        CFI DPH0 SameValue
        CFI R0 Undefined
        CFI R1 Undefined
        CFI R2 Undefined
        CFI R3 Undefined
        CFI R4 Undefined
        CFI R5 Undefined
        CFI R6 SameValue
        CFI R7 SameValue
        CFI V0 SameValue
        CFI V1 SameValue
        CFI V2 SameValue
        CFI V3 SameValue
        CFI V4 SameValue
        CFI V5 SameValue
        CFI V6 SameValue
        CFI V7 SameValue
        CFI V8 SameValue
        CFI V9 SameValue
        CFI V10 SameValue
        CFI V11 SameValue
        CFI V12 SameValue
        CFI V13 SameValue
        CFI V14 SameValue
        CFI V15 SameValue
        CFI PSPH Undefined
        CFI PSPL Undefined
        CFI XSPH Undefined
        CFI XSPL Undefined
        CFI ?RET Concat
        CFI ?BRET_EXT Frame(CFA_SP, 3)
        CFI ?RET_HIGH Frame(CFA_SP, 2)
        CFI ?RET_LOW Frame(CFA_SP, 1)
        CFI EndCommon cfiCommon0
        
UartSend            SYMBOL "UartSend"
??UartSend?relay    SYMBOL "?relay", UartSend
CalulateCRC         SYMBOL "CalulateCRC"
??CalulateCRC?relay SYMBOL "?relay", CalulateCRC
ClearBitMask        SYMBOL "ClearBitMask"
??ClearBitMask?relay SYMBOL "?relay", ClearBitMask
Delay_I_1us         SYMBOL "Delay_I_1us"
??Delay_I_1us?relay SYMBOL "?relay", Delay_I_1us
IC_CMT              SYMBOL "IC_CMT"
??IC_CMT?relay      SYMBOL "?relay", IC_CMT
M500PcdConfigISOType SYMBOL "M500PcdConfigISOType"
??M500PcdConfigISOType?relay SYMBOL "?relay", M500PcdConfigISOType
PcdAntennaOff       SYMBOL "PcdAntennaOff"
??PcdAntennaOff?relay SYMBOL "?relay", PcdAntennaOff
PcdAntennaOn        SYMBOL "PcdAntennaOn"
??PcdAntennaOn?relay SYMBOL "?relay", PcdAntennaOn
PcdAnticoll         SYMBOL "PcdAnticoll"
??PcdAnticoll?relay SYMBOL "?relay", PcdAnticoll
PcdAuthState        SYMBOL "PcdAuthState"
??PcdAuthState?relay SYMBOL "?relay", PcdAuthState
PcdComMF522         SYMBOL "PcdComMF522"
??PcdComMF522?relay SYMBOL "?relay", PcdComMF522
PcdHalt             SYMBOL "PcdHalt"
??PcdHalt?relay     SYMBOL "?relay", PcdHalt
PcdRead             SYMBOL "PcdRead"
??PcdRead?relay     SYMBOL "?relay", PcdRead
PcdRequest          SYMBOL "PcdRequest"
??PcdRequest?relay  SYMBOL "?relay", PcdRequest
PcdReset            SYMBOL "PcdReset"
??PcdReset?relay    SYMBOL "?relay", PcdReset
PcdSelect           SYMBOL "PcdSelect"
??PcdSelect?relay   SYMBOL "?relay", PcdSelect
PcdWrite            SYMBOL "PcdWrite"
??PcdWrite?relay    SYMBOL "?relay", PcdWrite
ReadRawRC           SYMBOL "ReadRawRC"
??ReadRawRC?relay   SYMBOL "?relay", ReadRawRC
SPIReadByte         SYMBOL "SPIReadByte"
??SPIReadByte?relay SYMBOL "?relay", SPIReadByte
SPIWriteByte        SYMBOL "SPIWriteByte"
??SPIWriteByte?relay SYMBOL "?relay", SPIWriteByte
SetBitMask          SYMBOL "SetBitMask"
??SetBitMask?relay  SYMBOL "?relay", SetBitMask
WriteRawRC          SYMBOL "WriteRawRC"
??WriteRawRC?relay  SYMBOL "?relay", WriteRawRC

        EXTERN UartSend
        FUNCTION UartSend,0202H
        ARGFRAME ISTACK, 0, STACK
        ARGFRAME PSTACK, 0, STACK
        ARGFRAME XSTACK, 46, STACK
        ARGFRAME IOVERLAY, 0, STATIC
        ARGFRAME DOVERLAY, 0, STATIC
        EXTERN ??UartSend?relay
        FUNCTION ??UartSend?relay,00H

// C:\Texas Instruments\ZStack-CC2530-2.5.1a\Projects\zstack\Samples\Diplomaproject\Source\IC_w_r.c
//    1 #include"variable.h"

        ASEGN SFR_AN:DATA:NOROOT,080H
// union <unnamed> volatile __sfr _A_P0
_A_P0:
        DATA8
        DS 1

        ASEGN SFR_AN:DATA:NOROOT,090H
// union <unnamed> volatile __sfr _A_P1
_A_P1:
        DATA8
        DS 1
//    2 #include"rc522.h"
//    3 #include"uart.h"
//    4 
//    5 
//    6 void Delay_I_1us(unsigned int k);
//    7 void SPIWriteByte(uchar infor);
//    8 unsigned char SPIReadByte(void);
//    9 unsigned char ReadRawRC(unsigned char Address);
//   10 void WriteRawRC(unsigned char Address, unsigned char value);
//   11 void SetBitMask(unsigned char reg,unsigned char mask) ;
//   12 void ClearBitMask(unsigned char reg,unsigned char mask)  ;
//   13 void PcdAntennaOn(void);
//   14 void PcdAntennaOff(void);
//   15 void PcdReset(void);
//   16 void IC_CMT(uchar *UID,uchar *KEY,uchar RW,char *Dat);
//   17 void M500PcdConfigISOType(unsigned char type);
//   18 char PcdComMF522(unsigned char Command, 		//RC522命令字
//   19                  unsigned char *pInData, 		//通过RC522发送到卡片的数据
//   20                  unsigned char InLenByte,		//发送数据的字节长度
//   21                  unsigned char *pOutData, 		//接收到的卡片返回数据
//   22                  unsigned int  *pOutLenBit)	;
//   23 char PcdRequest(unsigned char req_code,unsigned char *pTagType);
//   24 char PcdAnticoll(unsigned char *pSnr);
//   25 void CalulateCRC(unsigned char *pIndata,unsigned char len,unsigned char *pOutData);
//   26 char PcdRead(unsigned char addr,unsigned char *pData);
//   27 char PcdSelect(unsigned char *pSnr);
//   28 char PcdHalt(void);
//   29 char PcdHalt(void);
//   30 char PcdWrite(unsigned char addr,unsigned char *pData);
//   31 char PcdAuthState(unsigned char auth_mode,unsigned char addr,unsigned char *pKey,unsigned char *pSnr);
//   32 
//   33 

        RSEG BANKED_CODE:CODE:NOROOT(0)
//   34 void Delay_I_1us(unsigned int k)
Delay_I_1us:
        CFI Block cfiBlock0 Using cfiCommon0
        CFI Function Delay_I_1us
        CODE
//   35 {
        ; Saved register size: 0
        ; Auto size: 0
//   36   uint i,j;
//   37   for(i=0;i<k;i++)
        MOV     R4,#0x0
        MOV     R5,#0x0
??Delay_I_1us_0:
        CLR     C
        MOV     A,R4
        SUBB    A,R2
        MOV     A,R5
        SUBB    A,R3
        JNC     ??Delay_I_1us_1
//   38     for(j=0;j<32;j++);
        MOV     R0,#0x0
        MOV     R1,#0x0
??Delay_I_1us_2:
        CLR     C
        MOV     A,R0
        SUBB    A,#0x20
        MOV     A,R1
        SUBB    A,#0x0
        JNC     ??Delay_I_1us_3
        MOV     A,R0
        ADD     A,#0x1
        MOV     R0,A
        MOV     A,R1
        ADDC    A,#0x0
        MOV     R1,A
        SJMP    ??Delay_I_1us_2
??Delay_I_1us_3:
        MOV     A,R4
        ADD     A,#0x1
        MOV     R4,A
        MOV     A,R5
        ADDC    A,#0x0
        MOV     R5,A
        SJMP    ??Delay_I_1us_0
//   39 }
??Delay_I_1us_1:
        LJMP    ?BRET
        CFI EndBlock cfiBlock0
//   40 

        RSEG BANKED_CODE:CODE:NOROOT(0)
//   41 void SPIWriteByte(uchar infor)
SPIWriteByte:
        CFI Block cfiBlock1 Using cfiCommon0
        CFI Function SPIWriteByte
        CODE
//   42 {
        FUNCALL SPIWriteByte, Delay_I_1us
        LOCFRAME ISTACK, 0, STACK
        LOCFRAME PSTACK, 0, STACK
        LOCFRAME XSTACK, 9, STACK
        LOCFRAME IOVERLAY, 0, STATIC
        LOCFRAME DOVERLAY, 0, STATIC
        ARGFRAME ISTACK, 0, STACK
        ARGFRAME PSTACK, 0, STACK
        ARGFRAME XSTACK, 9, STACK
        ARGFRAME IOVERLAY, 0, STATIC
        ARGFRAME DOVERLAY, 0, STATIC
        FUNCALL SPIWriteByte, Delay_I_1us
        LOCFRAME ISTACK, 0, STACK
        LOCFRAME PSTACK, 0, STACK
        LOCFRAME XSTACK, 9, STACK
        LOCFRAME IOVERLAY, 0, STATIC
        LOCFRAME DOVERLAY, 0, STATIC
        ARGFRAME ISTACK, 0, STACK
        ARGFRAME PSTACK, 0, STACK
        ARGFRAME XSTACK, 9, STACK
        ARGFRAME IOVERLAY, 0, STATIC
        ARGFRAME DOVERLAY, 0, STATIC
        FUNCALL SPIWriteByte, Delay_I_1us
        LOCFRAME ISTACK, 0, STACK
        LOCFRAME PSTACK, 0, STACK
        LOCFRAME XSTACK, 9, STACK
        LOCFRAME IOVERLAY, 0, STATIC
        LOCFRAME DOVERLAY, 0, STATIC
        ARGFRAME ISTACK, 0, STACK
        ARGFRAME PSTACK, 0, STACK
        ARGFRAME XSTACK, 9, STACK
        ARGFRAME IOVERLAY, 0, STATIC
        ARGFRAME DOVERLAY, 0, STATIC
        MOV     A,#-0x9
        LCALL   ?BANKED_ENTER_XDATA
        CFI DPH0 load(1, XDATA, add(CFA_XSP16, literal(-1)))
        CFI DPL0 load(1, XDATA, add(CFA_XSP16, literal(-2)))
        CFI ?BRET_EXT load(1, XDATA, add(CFA_XSP16, literal(-3)))
        CFI ?RET_HIGH load(1, XDATA, add(CFA_XSP16, literal(-4)))
        CFI ?RET_LOW load(1, XDATA, add(CFA_XSP16, literal(-5)))
        CFI R7 load(1, XDATA, add(CFA_XSP16, literal(-6)))
        CFI V0 load(1, XDATA, add(CFA_XSP16, literal(-7)))
        CFI VB load(1, XDATA, add(CFA_XSP16, literal(-8)))
        CFI R6 load(1, XDATA, add(CFA_XSP16, literal(-9)))
        CFI CFA_SP SP+0
        CFI CFA_XSP16 add(XSP16, 9)
        ; Saved register size: 9
        ; Auto size: 0
        MOV     ?V0 + 0,R1
//   43   unsigned int counter;
//   44   for(counter=0;counter<8;counter++)
        MOV     R6,#0x0
        MOV     R7,#0x0
??SPIWriteByte_0:
        CLR     C
        MOV     A,R6
        SUBB    A,#0x8
        MOV     A,R7
        SUBB    A,#0x0
        JNC     ??SPIWriteByte_1
//   45   {
//   46     
//   47     if(infor&0x80)
        MOV     A,?V0 + 0
        MOV     C,0xE0 /* A   */.7
        JNC     ??SPIWriteByte_2
//   48       IC_MOSI = 1;
        SETB    0x90.2
        SJMP    ??SPIWriteByte_3
//   49     else 
//   50       IC_MOSI = 0;
??SPIWriteByte_2:
        CLR     0x90.2
//   51     Delay_I_1us(3);
??SPIWriteByte_3:
        ; Setup parameters for call to function Delay_I_1us
        MOV     R2,#0x3
        MOV     R3,#0x0
        LCALL   ??Delay_I_1us?relay
//   52     
//   53     IC_SCK = 0;
        CLR     0x80.1
//   54     Delay_I_1us(1);
        ; Setup parameters for call to function Delay_I_1us
        MOV     R2,#0x1
        MOV     R3,#0x0
        LCALL   ??Delay_I_1us?relay
//   55     
//   56     
//   57     IC_SCK = 1; 
        SETB    0x80.1
//   58     Delay_I_1us(3);
        ; Setup parameters for call to function Delay_I_1us
        MOV     R2,#0x3
        MOV     R3,#0x0
        LCALL   ??Delay_I_1us?relay
//   59     
//   60     
//   61     infor <<= 1; 
        MOV     A,?V0 + 0
        CLR     C
        RLC     A
        MOV     ?V0 + 0,A
//   62   } 
        MOV     A,R6
        ADD     A,#0x1
        MOV     R6,A
        MOV     A,R7
        ADDC    A,#0x0
        MOV     R7,A
        SJMP    ??SPIWriteByte_0
//   63 }
??SPIWriteByte_1:
        MOV     R7,#0x1
        LJMP    ?BANKED_LEAVE_XDATA
        CFI EndBlock cfiBlock1
        REQUIRE _A_P1
        REQUIRE _A_P0
//   64 

        RSEG BANKED_CODE:CODE:NOROOT(0)
//   65 unsigned char SPIReadByte(void)
SPIReadByte:
        CFI Block cfiBlock2 Using cfiCommon0
        CFI Function SPIReadByte
        CODE
//   66 {
        FUNCALL SPIReadByte, Delay_I_1us
        LOCFRAME ISTACK, 0, STACK
        LOCFRAME PSTACK, 0, STACK
        LOCFRAME XSTACK, 9, STACK
        LOCFRAME IOVERLAY, 0, STATIC
        LOCFRAME DOVERLAY, 0, STATIC
        ARGFRAME ISTACK, 0, STACK
        ARGFRAME PSTACK, 0, STACK
        ARGFRAME XSTACK, 9, STACK
        ARGFRAME IOVERLAY, 0, STATIC
        ARGFRAME DOVERLAY, 0, STATIC
        FUNCALL SPIReadByte, Delay_I_1us
        LOCFRAME ISTACK, 0, STACK
        LOCFRAME PSTACK, 0, STACK
        LOCFRAME XSTACK, 9, STACK
        LOCFRAME IOVERLAY, 0, STATIC
        LOCFRAME DOVERLAY, 0, STATIC
        ARGFRAME ISTACK, 0, STACK
        ARGFRAME PSTACK, 0, STACK
        ARGFRAME XSTACK, 9, STACK
        ARGFRAME IOVERLAY, 0, STATIC
        ARGFRAME DOVERLAY, 0, STATIC
        FUNCALL SPIReadByte, Delay_I_1us
        LOCFRAME ISTACK, 0, STACK
        LOCFRAME PSTACK, 0, STACK
        LOCFRAME XSTACK, 9, STACK
        LOCFRAME IOVERLAY, 0, STATIC
        LOCFRAME DOVERLAY, 0, STATIC
        ARGFRAME ISTACK, 0, STACK
        ARGFRAME PSTACK, 0, STACK
        ARGFRAME XSTACK, 9, STACK
        ARGFRAME IOVERLAY, 0, STATIC
        ARGFRAME DOVERLAY, 0, STATIC
        MOV     A,#-0x9
        LCALL   ?BANKED_ENTER_XDATA
        CFI DPH0 load(1, XDATA, add(CFA_XSP16, literal(-1)))
        CFI DPL0 load(1, XDATA, add(CFA_XSP16, literal(-2)))
        CFI ?BRET_EXT load(1, XDATA, add(CFA_XSP16, literal(-3)))
        CFI ?RET_HIGH load(1, XDATA, add(CFA_XSP16, literal(-4)))
        CFI ?RET_LOW load(1, XDATA, add(CFA_XSP16, literal(-5)))
        CFI R7 load(1, XDATA, add(CFA_XSP16, literal(-6)))
        CFI V0 load(1, XDATA, add(CFA_XSP16, literal(-7)))
        CFI VB load(1, XDATA, add(CFA_XSP16, literal(-8)))
        CFI R6 load(1, XDATA, add(CFA_XSP16, literal(-9)))
        CFI CFA_SP SP+0
        CFI CFA_XSP16 add(XSP16, 9)
        ; Saved register size: 9
        ; Auto size: 0
//   67   unsigned int counter;
//   68   unsigned char SPI_Data;
//   69   for(counter=0;counter<8;counter++)
        MOV     R6,#0x0
        MOV     R7,#0x0
??SPIReadByte_0:
        CLR     C
        MOV     A,R6
        SUBB    A,#0x8
        MOV     A,R7
        SUBB    A,#0x0
        JNC     ??SPIReadByte_1
//   70   {
//   71     SPI_Data<<=1;
        MOV     A,?V0 + 0
        CLR     C
        RLC     A
        MOV     ?V0 + 0,A
//   72     
//   73     IC_SCK = 0;
        CLR     0x80.1
//   74     Delay_I_1us(3);  
        ; Setup parameters for call to function Delay_I_1us
        MOV     R2,#0x3
        MOV     R3,#0x0
        LCALL   ??Delay_I_1us?relay
//   75     
//   76     
//   77     if(IC_MISO == 1)
        MOV     C,0x80.4
        JNC     ??SPIReadByte_2
//   78       SPI_Data |= 0x01;
        SETB    C
        MOV     A,?V0 + 0
        MOV     0xE0 /* A   */.0,C
        MOV     ?V0 + 0,A
//   79     Delay_I_1us(2);
??SPIReadByte_2:
        ; Setup parameters for call to function Delay_I_1us
        MOV     R2,#0x2
        MOV     R3,#0x0
        LCALL   ??Delay_I_1us?relay
//   80     
//   81     IC_SCK = 1;
        SETB    0x80.1
//   82     Delay_I_1us(3);  
        ; Setup parameters for call to function Delay_I_1us
        MOV     R2,#0x3
        MOV     R3,#0x0
        LCALL   ??Delay_I_1us?relay
//   83     
//   84   }
        MOV     A,R6
        ADD     A,#0x1
        MOV     R6,A
        MOV     A,R7
        ADDC    A,#0x0
        MOV     R7,A
        SJMP    ??SPIReadByte_0
//   85   return SPI_Data;
??SPIReadByte_1:
        MOV     R1,?V0 + 0
        MOV     R7,#0x1
        LJMP    ?BANKED_LEAVE_XDATA
        CFI EndBlock cfiBlock2
        REQUIRE _A_P0
//   86 }
//   87 
//   88 /////////////////////////////////////////////////////////////////////
//   89 //功    能：读RC632寄存器
//   90 //参数说明：Address[IN]:寄存器地址
//   91 //返    回：读出的值
//   92 /////////////////////////////////////////////////////////////////////

        RSEG BANKED_CODE:CODE:NOROOT(0)
//   93 unsigned char ReadRawRC(unsigned char Address)
ReadRawRC:
        CFI Block cfiBlock3 Using cfiCommon0
        CFI Function ReadRawRC
        CODE
//   94 {
        FUNCALL ReadRawRC, SPIWriteByte
        LOCFRAME ISTACK, 0, STACK
        LOCFRAME PSTACK, 0, STACK
        LOCFRAME XSTACK, 9, STACK
        LOCFRAME IOVERLAY, 0, STATIC
        LOCFRAME DOVERLAY, 0, STATIC
        ARGFRAME ISTACK, 0, STACK
        ARGFRAME PSTACK, 0, STACK
        ARGFRAME XSTACK, 9, STACK
        ARGFRAME IOVERLAY, 0, STATIC
        ARGFRAME DOVERLAY, 0, STATIC
        FUNCALL ReadRawRC, SPIReadByte
        LOCFRAME ISTACK, 0, STACK
        LOCFRAME PSTACK, 0, STACK
        LOCFRAME XSTACK, 9, STACK
        LOCFRAME IOVERLAY, 0, STATIC
        LOCFRAME DOVERLAY, 0, STATIC
        ARGFRAME ISTACK, 0, STACK
        ARGFRAME PSTACK, 0, STACK
        ARGFRAME XSTACK, 9, STACK
        ARGFRAME IOVERLAY, 0, STATIC
        ARGFRAME DOVERLAY, 0, STATIC
        MOV     A,#-0x9
        LCALL   ?BANKED_ENTER_XDATA
        CFI DPH0 load(1, XDATA, add(CFA_XSP16, literal(-1)))
        CFI DPL0 load(1, XDATA, add(CFA_XSP16, literal(-2)))
        CFI ?BRET_EXT load(1, XDATA, add(CFA_XSP16, literal(-3)))
        CFI ?RET_HIGH load(1, XDATA, add(CFA_XSP16, literal(-4)))
        CFI ?RET_LOW load(1, XDATA, add(CFA_XSP16, literal(-5)))
        CFI R7 load(1, XDATA, add(CFA_XSP16, literal(-6)))
        CFI V0 load(1, XDATA, add(CFA_XSP16, literal(-7)))
        CFI VB load(1, XDATA, add(CFA_XSP16, literal(-8)))
        CFI R6 load(1, XDATA, add(CFA_XSP16, literal(-9)))
        CFI CFA_SP SP+0
        CFI CFA_XSP16 add(XSP16, 9)
        ; Saved register size: 9
        ; Auto size: 0
        MOV     ?V0 + 0,R1
//   95   unsigned char ucAddr;
//   96   unsigned char ucResult=0;
        MOV     R6,#0x0
//   97   IC_CS = 0;
        CLR     0x90.7
//   98   ucAddr = ((Address<<1)&0x7E)|0x80;//地址变换，SPI的读写地址有要求
        MOV     A,?V0 + 0
        CLR     C
        RLC     A
        ORL     A,#0x80
        MOV     R7,A
//   99   SPIWriteByte(ucAddr);
        ; Setup parameters for call to function SPIWriteByte
        MOV     R1,A
        LCALL   ??SPIWriteByte?relay
//  100   ucResult=SPIReadByte();
        ; Setup parameters for call to function SPIReadByte
        LCALL   ??SPIReadByte?relay
        MOV     A,R1
        MOV     R6,A
//  101   IC_CS = 1;
        SETB    0x90.7
//  102   return ucResult;
        MOV     R1,A
        MOV     R7,#0x1
        LJMP    ?BANKED_LEAVE_XDATA
        CFI EndBlock cfiBlock3
        REQUIRE _A_P1
//  103 }
//  104 /////////////////////////////////////////////////////////////////////
//  105 //功    能：写RC632寄存器
//  106 //参数说明：Address[IN]:寄存器地址
//  107 //          value[IN]:写入的值
//  108 /////////////////////////////////////////////////////////////////////

        RSEG BANKED_CODE:CODE:NOROOT(0)
//  109 void WriteRawRC(unsigned char Address, unsigned char value)
WriteRawRC:
        CFI Block cfiBlock4 Using cfiCommon0
        CFI Function WriteRawRC
        CODE
//  110 {  
        FUNCALL WriteRawRC, SPIWriteByte
        LOCFRAME ISTACK, 0, STACK
        LOCFRAME PSTACK, 0, STACK
        LOCFRAME XSTACK, 9, STACK
        LOCFRAME IOVERLAY, 0, STATIC
        LOCFRAME DOVERLAY, 0, STATIC
        ARGFRAME ISTACK, 0, STACK
        ARGFRAME PSTACK, 0, STACK
        ARGFRAME XSTACK, 9, STACK
        ARGFRAME IOVERLAY, 0, STATIC
        ARGFRAME DOVERLAY, 0, STATIC
        FUNCALL WriteRawRC, SPIWriteByte
        LOCFRAME ISTACK, 0, STACK
        LOCFRAME PSTACK, 0, STACK
        LOCFRAME XSTACK, 9, STACK
        LOCFRAME IOVERLAY, 0, STATIC
        LOCFRAME DOVERLAY, 0, STATIC
        ARGFRAME ISTACK, 0, STACK
        ARGFRAME PSTACK, 0, STACK
        ARGFRAME XSTACK, 9, STACK
        ARGFRAME IOVERLAY, 0, STATIC
        ARGFRAME DOVERLAY, 0, STATIC
        MOV     A,#-0x9
        LCALL   ?BANKED_ENTER_XDATA
        CFI DPH0 load(1, XDATA, add(CFA_XSP16, literal(-1)))
        CFI DPL0 load(1, XDATA, add(CFA_XSP16, literal(-2)))
        CFI ?BRET_EXT load(1, XDATA, add(CFA_XSP16, literal(-3)))
        CFI ?RET_HIGH load(1, XDATA, add(CFA_XSP16, literal(-4)))
        CFI ?RET_LOW load(1, XDATA, add(CFA_XSP16, literal(-5)))
        CFI R7 load(1, XDATA, add(CFA_XSP16, literal(-6)))
        CFI V0 load(1, XDATA, add(CFA_XSP16, literal(-7)))
        CFI VB load(1, XDATA, add(CFA_XSP16, literal(-8)))
        CFI R6 load(1, XDATA, add(CFA_XSP16, literal(-9)))
        CFI CFA_SP SP+0
        CFI CFA_XSP16 add(XSP16, 9)
        ; Saved register size: 9
        ; Auto size: 0
        MOV     ?V0 + 0,R1
        MOV     A,R2
        MOV     R7,A
//  111   unsigned char ucAddr;
//  112   Address <<= 1;
        MOV     A,?V0 + 0
        CLR     C
        RLC     A
        MOV     ?V0 + 0,A
//  113   ucAddr = (Address&0x7e);
        MOV     A,#0x7e
        ANL     A,?V0 + 0
        MOV     R6,A
//  114   IC_CS = 0;
        CLR     0x90.7
//  115   
//  116   SPIWriteByte(ucAddr);
        ; Setup parameters for call to function SPIWriteByte
        MOV     R1,A
        LCALL   ??SPIWriteByte?relay
//  117   SPIWriteByte(value);
        ; Setup parameters for call to function SPIWriteByte
        MOV     A,R7
        MOV     R1,A
        LCALL   ??SPIWriteByte?relay
//  118   IC_CS = 1;
        SETB    0x90.7
//  119 }
        MOV     R7,#0x1
        LJMP    ?BANKED_LEAVE_XDATA
        CFI EndBlock cfiBlock4
        REQUIRE _A_P1
//  120 
//  121 /////////////////////////////////////////////////////////////////////
//  122 //功    能：置RC522寄存器位
//  123 //参数说明：reg[IN]:寄存器地址
//  124 //          mask[IN]:置位值
//  125 /////////////////////////////////////////////////////////////////////

        RSEG BANKED_CODE:CODE:NOROOT(0)
//  126 void SetBitMask(unsigned char reg,unsigned char mask)  
SetBitMask:
        CFI Block cfiBlock5 Using cfiCommon0
        CFI Function SetBitMask
        CODE
//  127 {
        FUNCALL SetBitMask, ReadRawRC
        LOCFRAME ISTACK, 0, STACK
        LOCFRAME PSTACK, 0, STACK
        LOCFRAME XSTACK, 9, STACK
        LOCFRAME IOVERLAY, 0, STATIC
        LOCFRAME DOVERLAY, 0, STATIC
        ARGFRAME ISTACK, 0, STACK
        ARGFRAME PSTACK, 0, STACK
        ARGFRAME XSTACK, 9, STACK
        ARGFRAME IOVERLAY, 0, STATIC
        ARGFRAME DOVERLAY, 0, STATIC
        FUNCALL SetBitMask, WriteRawRC
        LOCFRAME ISTACK, 0, STACK
        LOCFRAME PSTACK, 0, STACK
        LOCFRAME XSTACK, 9, STACK
        LOCFRAME IOVERLAY, 0, STATIC
        LOCFRAME DOVERLAY, 0, STATIC
        ARGFRAME ISTACK, 0, STACK
        ARGFRAME PSTACK, 0, STACK
        ARGFRAME XSTACK, 9, STACK
        ARGFRAME IOVERLAY, 0, STATIC
        ARGFRAME DOVERLAY, 0, STATIC
        MOV     A,#-0x9
        LCALL   ?BANKED_ENTER_XDATA
        CFI DPH0 load(1, XDATA, add(CFA_XSP16, literal(-1)))
        CFI DPL0 load(1, XDATA, add(CFA_XSP16, literal(-2)))
        CFI ?BRET_EXT load(1, XDATA, add(CFA_XSP16, literal(-3)))
        CFI ?RET_HIGH load(1, XDATA, add(CFA_XSP16, literal(-4)))
        CFI ?RET_LOW load(1, XDATA, add(CFA_XSP16, literal(-5)))
        CFI R7 load(1, XDATA, add(CFA_XSP16, literal(-6)))
        CFI V0 load(1, XDATA, add(CFA_XSP16, literal(-7)))
        CFI VB load(1, XDATA, add(CFA_XSP16, literal(-8)))
        CFI R6 load(1, XDATA, add(CFA_XSP16, literal(-9)))
        CFI CFA_SP SP+0
        CFI CFA_XSP16 add(XSP16, 9)
        ; Saved register size: 9
        ; Auto size: 0
        MOV     A,R1
        MOV     R6,A
        MOV     A,R2
        MOV     R7,A
//  128   char tmp = 0x0;
        MOV     ?V0 + 0,#0x0
//  129   tmp = ReadRawRC(reg);
        ; Setup parameters for call to function ReadRawRC
        MOV     A,R6
        MOV     R1,A
        LCALL   ??ReadRawRC?relay
        MOV     A,R1
        MOV     ?V0 + 0,A
//  130   WriteRawRC(reg,tmp | mask);  // set bit mask
        ; Setup parameters for call to function WriteRawRC
        MOV     A,?V0 + 0
        ORL     A,R7
        MOV     R2,A
        MOV     A,R6
        MOV     R1,A
        LCALL   ??WriteRawRC?relay
//  131 }
        MOV     R7,#0x1
        LJMP    ?BANKED_LEAVE_XDATA
        CFI EndBlock cfiBlock5
//  132 
//  133 /////////////////////////////////////////////////////////////////////
//  134 //功    能：清RC522寄存器位
//  135 //参数说明：reg[IN]:寄存器地址
//  136 //          mask[IN]:清位值
//  137 /////////////////////////////////////////////////////////////////////

        RSEG BANKED_CODE:CODE:NOROOT(0)
//  138 void ClearBitMask(unsigned char reg,unsigned char mask)  
ClearBitMask:
        CFI Block cfiBlock6 Using cfiCommon0
        CFI Function ClearBitMask
        CODE
//  139 {
        FUNCALL ClearBitMask, ReadRawRC
        LOCFRAME ISTACK, 0, STACK
        LOCFRAME PSTACK, 0, STACK
        LOCFRAME XSTACK, 9, STACK
        LOCFRAME IOVERLAY, 0, STATIC
        LOCFRAME DOVERLAY, 0, STATIC
        ARGFRAME ISTACK, 0, STACK
        ARGFRAME PSTACK, 0, STACK
        ARGFRAME XSTACK, 9, STACK
        ARGFRAME IOVERLAY, 0, STATIC
        ARGFRAME DOVERLAY, 0, STATIC
        FUNCALL ClearBitMask, WriteRawRC
        LOCFRAME ISTACK, 0, STACK
        LOCFRAME PSTACK, 0, STACK
        LOCFRAME XSTACK, 9, STACK
        LOCFRAME IOVERLAY, 0, STATIC
        LOCFRAME DOVERLAY, 0, STATIC
        ARGFRAME ISTACK, 0, STACK
        ARGFRAME PSTACK, 0, STACK
        ARGFRAME XSTACK, 9, STACK
        ARGFRAME IOVERLAY, 0, STATIC
        ARGFRAME DOVERLAY, 0, STATIC
        MOV     A,#-0x9
        LCALL   ?BANKED_ENTER_XDATA
        CFI DPH0 load(1, XDATA, add(CFA_XSP16, literal(-1)))
        CFI DPL0 load(1, XDATA, add(CFA_XSP16, literal(-2)))
        CFI ?BRET_EXT load(1, XDATA, add(CFA_XSP16, literal(-3)))
        CFI ?RET_HIGH load(1, XDATA, add(CFA_XSP16, literal(-4)))
        CFI ?RET_LOW load(1, XDATA, add(CFA_XSP16, literal(-5)))
        CFI R7 load(1, XDATA, add(CFA_XSP16, literal(-6)))
        CFI V0 load(1, XDATA, add(CFA_XSP16, literal(-7)))
        CFI VB load(1, XDATA, add(CFA_XSP16, literal(-8)))
        CFI R6 load(1, XDATA, add(CFA_XSP16, literal(-9)))
        CFI CFA_SP SP+0
        CFI CFA_XSP16 add(XSP16, 9)
        ; Saved register size: 9
        ; Auto size: 0
        MOV     A,R1
        MOV     R6,A
        MOV     A,R2
        MOV     R7,A
//  140   char tmp = 0x0;
        MOV     ?V0 + 0,#0x0
//  141   tmp = ReadRawRC(reg);
        ; Setup parameters for call to function ReadRawRC
        MOV     A,R6
        MOV     R1,A
        LCALL   ??ReadRawRC?relay
        MOV     A,R1
        MOV     ?V0 + 0,A
//  142   WriteRawRC(reg, tmp & ~mask);  // clear bit mask
        ; Setup parameters for call to function WriteRawRC
        MOV     A,R7
        CPL     A
        ANL     A,?V0 + 0
        MOV     R2,A
        MOV     A,R6
        MOV     R1,A
        LCALL   ??WriteRawRC?relay
//  143 } 
        MOV     R7,#0x1
        LJMP    ?BANKED_LEAVE_XDATA
        CFI EndBlock cfiBlock6
//  144 
//  145 
//  146 
//  147 
//  148 /////////////////////////////////////////////////////////////////////
//  149 //开启天线  
//  150 //每次启动或关闭天险发射之间应至少有1ms的间隔
//  151 /////////////////////////////////////////////////////////////////////

        RSEG BANKED_CODE:CODE:NOROOT(0)
//  152 void PcdAntennaOn(void)
PcdAntennaOn:
        CFI Block cfiBlock7 Using cfiCommon0
        CFI Function PcdAntennaOn
        CODE
//  153 {
        FUNCALL PcdAntennaOn, ReadRawRC
        LOCFRAME ISTACK, 0, STACK
        LOCFRAME PSTACK, 0, STACK
        LOCFRAME XSTACK, 9, STACK
        LOCFRAME IOVERLAY, 0, STATIC
        LOCFRAME DOVERLAY, 0, STATIC
        ARGFRAME ISTACK, 0, STACK
        ARGFRAME PSTACK, 0, STACK
        ARGFRAME XSTACK, 9, STACK
        ARGFRAME IOVERLAY, 0, STATIC
        ARGFRAME DOVERLAY, 0, STATIC
        FUNCALL PcdAntennaOn, SetBitMask
        LOCFRAME ISTACK, 0, STACK
        LOCFRAME PSTACK, 0, STACK
        LOCFRAME XSTACK, 9, STACK
        LOCFRAME IOVERLAY, 0, STATIC
        LOCFRAME DOVERLAY, 0, STATIC
        ARGFRAME ISTACK, 0, STACK
        ARGFRAME PSTACK, 0, STACK
        ARGFRAME XSTACK, 9, STACK
        ARGFRAME IOVERLAY, 0, STATIC
        ARGFRAME DOVERLAY, 0, STATIC
        MOV     A,#-0x9
        LCALL   ?BANKED_ENTER_XDATA
        CFI DPH0 load(1, XDATA, add(CFA_XSP16, literal(-1)))
        CFI DPL0 load(1, XDATA, add(CFA_XSP16, literal(-2)))
        CFI ?BRET_EXT load(1, XDATA, add(CFA_XSP16, literal(-3)))
        CFI ?RET_HIGH load(1, XDATA, add(CFA_XSP16, literal(-4)))
        CFI ?RET_LOW load(1, XDATA, add(CFA_XSP16, literal(-5)))
        CFI R7 load(1, XDATA, add(CFA_XSP16, literal(-6)))
        CFI V0 load(1, XDATA, add(CFA_XSP16, literal(-7)))
        CFI VB load(1, XDATA, add(CFA_XSP16, literal(-8)))
        CFI R6 load(1, XDATA, add(CFA_XSP16, literal(-9)))
        CFI CFA_SP SP+0
        CFI CFA_XSP16 add(XSP16, 9)
        ; Saved register size: 9
        ; Auto size: 0
//  154   unsigned char i;
//  155   i = ReadRawRC(TxControlReg);
        ; Setup parameters for call to function ReadRawRC
        MOV     R1,#0x14
        LCALL   ??ReadRawRC?relay
        MOV     A,R1
        MOV     R6,A
//  156   if (!(i & 0x03))
        MOV     A,#0x3
        ANL     A,R6
        JNZ     ??PcdAntennaOn_0
//  157   {
//  158     SetBitMask(TxControlReg, 0x03);
        ; Setup parameters for call to function SetBitMask
        MOV     R2,#0x3
        MOV     R1,#0x14
        LCALL   ??SetBitMask?relay
//  159   }
//  160 }
??PcdAntennaOn_0:
        MOV     R7,#0x1
        LJMP    ?BANKED_LEAVE_XDATA
        CFI EndBlock cfiBlock7
//  161 
//  162 /////////////////////////////////////////////////////////////////////
//  163 //关闭天线
//  164 /////////////////////////////////////////////////////////////////////

        RSEG BANKED_CODE:CODE:NOROOT(0)
//  165 void PcdAntennaOff(void)
PcdAntennaOff:
        CFI Block cfiBlock8 Using cfiCommon0
        CFI Function PcdAntennaOff
        CODE
//  166 {
        FUNCALL PcdAntennaOff, ClearBitMask
        LOCFRAME ISTACK, 2, STACK
        LOCFRAME PSTACK, 0, STACK
        LOCFRAME XSTACK, 0, STACK
        LOCFRAME IOVERLAY, 0, STATIC
        LOCFRAME DOVERLAY, 0, STATIC
        ARGFRAME ISTACK, 2, STACK
        ARGFRAME PSTACK, 0, STACK
        ARGFRAME XSTACK, 0, STACK
        ARGFRAME IOVERLAY, 0, STATIC
        ARGFRAME DOVERLAY, 0, STATIC
        PUSH    DPL
        CFI DPL0 Frame(CFA_SP, 4)
        CFI CFA_SP SP+-4
        PUSH    DPH
        CFI DPH0 Frame(CFA_SP, 5)
        CFI CFA_SP SP+-5
        ; Saved register size: 2
        ; Auto size: 0
//  167   ClearBitMask(TxControlReg, 0x03);
        ; Setup parameters for call to function ClearBitMask
        MOV     R2,#0x3
        MOV     R1,#0x14
        LCALL   ??ClearBitMask?relay
//  168 }
        POP     DPH
        CFI DPH0 SameValue
        CFI CFA_SP SP+-4
        POP     DPL
        CFI DPL0 SameValue
        CFI CFA_SP SP+-3
        LJMP    ?BRET
        CFI EndBlock cfiBlock8
//  169 
//  170 
//  171 /////////////////////////////////////////////////////////////////////
//  172 //功    能：复位RC522
//  173 //返    回: 成功返回MI_OK
//  174 /////////////////////////////////////////////////////////////////////

        RSEG BANKED_CODE:CODE:NOROOT(0)
//  175 void PcdReset(void)
PcdReset:
        CFI Block cfiBlock9 Using cfiCommon0
        CFI Function PcdReset
        CODE
//  176 {
        FUNCALL PcdReset, Delay_I_1us
        LOCFRAME ISTACK, 2, STACK
        LOCFRAME PSTACK, 0, STACK
        LOCFRAME XSTACK, 0, STACK
        LOCFRAME IOVERLAY, 0, STATIC
        LOCFRAME DOVERLAY, 0, STATIC
        ARGFRAME ISTACK, 2, STACK
        ARGFRAME PSTACK, 0, STACK
        ARGFRAME XSTACK, 0, STACK
        ARGFRAME IOVERLAY, 0, STATIC
        ARGFRAME DOVERLAY, 0, STATIC
        FUNCALL PcdReset, Delay_I_1us
        LOCFRAME ISTACK, 2, STACK
        LOCFRAME PSTACK, 0, STACK
        LOCFRAME XSTACK, 0, STACK
        LOCFRAME IOVERLAY, 0, STATIC
        LOCFRAME DOVERLAY, 0, STATIC
        ARGFRAME ISTACK, 2, STACK
        ARGFRAME PSTACK, 0, STACK
        ARGFRAME XSTACK, 0, STACK
        ARGFRAME IOVERLAY, 0, STATIC
        ARGFRAME DOVERLAY, 0, STATIC
        FUNCALL PcdReset, Delay_I_1us
        LOCFRAME ISTACK, 2, STACK
        LOCFRAME PSTACK, 0, STACK
        LOCFRAME XSTACK, 0, STACK
        LOCFRAME IOVERLAY, 0, STATIC
        LOCFRAME DOVERLAY, 0, STATIC
        ARGFRAME ISTACK, 2, STACK
        ARGFRAME PSTACK, 0, STACK
        ARGFRAME XSTACK, 0, STACK
        ARGFRAME IOVERLAY, 0, STATIC
        ARGFRAME DOVERLAY, 0, STATIC
        FUNCALL PcdReset, WriteRawRC
        LOCFRAME ISTACK, 2, STACK
        LOCFRAME PSTACK, 0, STACK
        LOCFRAME XSTACK, 0, STACK
        LOCFRAME IOVERLAY, 0, STATIC
        LOCFRAME DOVERLAY, 0, STATIC
        ARGFRAME ISTACK, 2, STACK
        ARGFRAME PSTACK, 0, STACK
        ARGFRAME XSTACK, 0, STACK
        ARGFRAME IOVERLAY, 0, STATIC
        ARGFRAME DOVERLAY, 0, STATIC
        FUNCALL PcdReset, ReadRawRC
        LOCFRAME ISTACK, 2, STACK
        LOCFRAME PSTACK, 0, STACK
        LOCFRAME XSTACK, 0, STACK
        LOCFRAME IOVERLAY, 0, STATIC
        LOCFRAME DOVERLAY, 0, STATIC
        ARGFRAME ISTACK, 2, STACK
        ARGFRAME PSTACK, 0, STACK
        ARGFRAME XSTACK, 0, STACK
        ARGFRAME IOVERLAY, 0, STATIC
        ARGFRAME DOVERLAY, 0, STATIC
        FUNCALL PcdReset, Delay_I_1us
        LOCFRAME ISTACK, 2, STACK
        LOCFRAME PSTACK, 0, STACK
        LOCFRAME XSTACK, 0, STACK
        LOCFRAME IOVERLAY, 0, STATIC
        LOCFRAME DOVERLAY, 0, STATIC
        ARGFRAME ISTACK, 2, STACK
        ARGFRAME PSTACK, 0, STACK
        ARGFRAME XSTACK, 0, STACK
        ARGFRAME IOVERLAY, 0, STATIC
        ARGFRAME DOVERLAY, 0, STATIC
        FUNCALL PcdReset, WriteRawRC
        LOCFRAME ISTACK, 2, STACK
        LOCFRAME PSTACK, 0, STACK
        LOCFRAME XSTACK, 0, STACK
        LOCFRAME IOVERLAY, 0, STATIC
        LOCFRAME DOVERLAY, 0, STATIC
        ARGFRAME ISTACK, 2, STACK
        ARGFRAME PSTACK, 0, STACK
        ARGFRAME XSTACK, 0, STACK
        ARGFRAME IOVERLAY, 0, STATIC
        ARGFRAME DOVERLAY, 0, STATIC
        FUNCALL PcdReset, WriteRawRC
        LOCFRAME ISTACK, 2, STACK
        LOCFRAME PSTACK, 0, STACK
        LOCFRAME XSTACK, 0, STACK
        LOCFRAME IOVERLAY, 0, STATIC
        LOCFRAME DOVERLAY, 0, STATIC
        ARGFRAME ISTACK, 2, STACK
        ARGFRAME PSTACK, 0, STACK
        ARGFRAME XSTACK, 0, STACK
        ARGFRAME IOVERLAY, 0, STATIC
        ARGFRAME DOVERLAY, 0, STATIC
        FUNCALL PcdReset, WriteRawRC
        LOCFRAME ISTACK, 2, STACK
        LOCFRAME PSTACK, 0, STACK
        LOCFRAME XSTACK, 0, STACK
        LOCFRAME IOVERLAY, 0, STATIC
        LOCFRAME DOVERLAY, 0, STATIC
        ARGFRAME ISTACK, 2, STACK
        ARGFRAME PSTACK, 0, STACK
        ARGFRAME XSTACK, 0, STACK
        ARGFRAME IOVERLAY, 0, STATIC
        ARGFRAME DOVERLAY, 0, STATIC
        FUNCALL PcdReset, WriteRawRC
        LOCFRAME ISTACK, 2, STACK
        LOCFRAME PSTACK, 0, STACK
        LOCFRAME XSTACK, 0, STACK
        LOCFRAME IOVERLAY, 0, STATIC
        LOCFRAME DOVERLAY, 0, STATIC
        ARGFRAME ISTACK, 2, STACK
        ARGFRAME PSTACK, 0, STACK
        ARGFRAME XSTACK, 0, STACK
        ARGFRAME IOVERLAY, 0, STATIC
        ARGFRAME DOVERLAY, 0, STATIC
        FUNCALL PcdReset, WriteRawRC
        LOCFRAME ISTACK, 2, STACK
        LOCFRAME PSTACK, 0, STACK
        LOCFRAME XSTACK, 0, STACK
        LOCFRAME IOVERLAY, 0, STATIC
        LOCFRAME DOVERLAY, 0, STATIC
        ARGFRAME ISTACK, 2, STACK
        ARGFRAME PSTACK, 0, STACK
        ARGFRAME XSTACK, 0, STACK
        ARGFRAME IOVERLAY, 0, STATIC
        ARGFRAME DOVERLAY, 0, STATIC
        FUNCALL PcdReset, WriteRawRC
        LOCFRAME ISTACK, 2, STACK
        LOCFRAME PSTACK, 0, STACK
        LOCFRAME XSTACK, 0, STACK
        LOCFRAME IOVERLAY, 0, STATIC
        LOCFRAME DOVERLAY, 0, STATIC
        ARGFRAME ISTACK, 2, STACK
        ARGFRAME PSTACK, 0, STACK
        ARGFRAME XSTACK, 0, STACK
        ARGFRAME IOVERLAY, 0, STATIC
        ARGFRAME DOVERLAY, 0, STATIC
        PUSH    DPL
        CFI DPL0 Frame(CFA_SP, 4)
        CFI CFA_SP SP+-4
        PUSH    DPH
        CFI DPH0 Frame(CFA_SP, 5)
        CFI CFA_SP SP+-5
        ; Saved register size: 2
        ; Auto size: 0
//  177   //PORTD|=(1<<RC522RST);
//  178   IC_REST = 1;
        SETB    0x80.5
//  179   Delay_I_1us(1);
        ; Setup parameters for call to function Delay_I_1us
        MOV     R2,#0x1
        MOV     R3,#0x0
        LCALL   ??Delay_I_1us?relay
//  180   //PORTD&=~(1<<RC522RST);
//  181   IC_REST = 0;
        CLR     0x80.5
//  182   Delay_I_1us(1);
        ; Setup parameters for call to function Delay_I_1us
        MOV     R2,#0x1
        MOV     R3,#0x0
        LCALL   ??Delay_I_1us?relay
//  183   //PORTD|=(1<<RC522RST);
//  184   IC_REST = 1;
        SETB    0x80.5
//  185   Delay_I_1us(1);
        ; Setup parameters for call to function Delay_I_1us
        MOV     R2,#0x1
        MOV     R3,#0x0
        LCALL   ??Delay_I_1us?relay
//  186   WriteRawRC(0x01,0x0f);
        ; Setup parameters for call to function WriteRawRC
        MOV     R2,#0xf
        MOV     R1,#0x1
        LCALL   ??WriteRawRC?relay
//  187   while(ReadRawRC(0x01)&0x10);   //检查卡片
??PcdReset_0:
        ; Setup parameters for call to function ReadRawRC
        MOV     R1,#0x1
        LCALL   ??ReadRawRC?relay
        MOV     A,R1
        MOV     R0,A
        MOV     C,0xE0 /* A   */.4
        JC      ??PcdReset_0
//  188   Delay_I_1us(10);
        ; Setup parameters for call to function Delay_I_1us
        MOV     R2,#0xa
        MOV     R3,#0x0
        LCALL   ??Delay_I_1us?relay
//  189   
//  190   WriteRawRC(ModeReg,0x3D);            //定义发送和接收常用模式 和Mifare卡通讯，CRC初始值0x6363
        ; Setup parameters for call to function WriteRawRC
        MOV     R2,#0x3d
        MOV     R1,#0x11
        LCALL   ??WriteRawRC?relay
//  191   WriteRawRC(TReloadRegL,30);           //16位定时器低位
        ; Setup parameters for call to function WriteRawRC
        MOV     R2,#0x1e
        MOV     R1,#0x2d
        LCALL   ??WriteRawRC?relay
//  192   WriteRawRC(TReloadRegH,0);			 //16位定时器高位
        ; Setup parameters for call to function WriteRawRC
        MOV     R2,#0x0
        MOV     R1,#0x2c
        LCALL   ??WriteRawRC?relay
//  193   WriteRawRC(TModeReg,0x8D);				//定义内部定时器的设置
        ; Setup parameters for call to function WriteRawRC
        MOV     R2,#-0x73
        MOV     R1,#0x2a
        LCALL   ??WriteRawRC?relay
//  194   WriteRawRC(TPrescalerReg,0x3E);			//设置定时器分频系数
        ; Setup parameters for call to function WriteRawRC
        MOV     R2,#0x3e
        MOV     R1,#0x2b
        LCALL   ??WriteRawRC?relay
//  195   WriteRawRC(TxAutoReg,0x40);				//	调制发送信号为100%ASK
        ; Setup parameters for call to function WriteRawRC
        MOV     R2,#0x40
        MOV     R1,#0x15
        LCALL   ??WriteRawRC?relay
//  196   
//  197   
//  198   //return MI_OK;
//  199 }
        POP     DPH
        CFI DPH0 SameValue
        CFI CFA_SP SP+-4
        POP     DPL
        CFI DPL0 SameValue
        CFI CFA_SP SP+-3
        LJMP    ?BRET
        CFI EndBlock cfiBlock9
        REQUIRE _A_P0
//  200 
//  201 
//  202 //////////////////////////////////////////////////////////////////////
//  203 //设置RC632的工作方式 
//  204 //////////////////////////////////////////////////////////////////////

        RSEG BANKED_CODE:CODE:NOROOT(0)
//  205 void M500PcdConfigISOType(unsigned char type)
M500PcdConfigISOType:
        CFI Block cfiBlock10 Using cfiCommon0
        CFI Function M500PcdConfigISOType
        CODE
//  206 {
        FUNCALL M500PcdConfigISOType, ClearBitMask
        LOCFRAME ISTACK, 0, STACK
        LOCFRAME PSTACK, 0, STACK
        LOCFRAME XSTACK, 9, STACK
        LOCFRAME IOVERLAY, 0, STATIC
        LOCFRAME DOVERLAY, 0, STATIC
        ARGFRAME ISTACK, 0, STACK
        ARGFRAME PSTACK, 0, STACK
        ARGFRAME XSTACK, 9, STACK
        ARGFRAME IOVERLAY, 0, STATIC
        ARGFRAME DOVERLAY, 0, STATIC
        FUNCALL M500PcdConfigISOType, WriteRawRC
        LOCFRAME ISTACK, 0, STACK
        LOCFRAME PSTACK, 0, STACK
        LOCFRAME XSTACK, 9, STACK
        LOCFRAME IOVERLAY, 0, STATIC
        LOCFRAME DOVERLAY, 0, STATIC
        ARGFRAME ISTACK, 0, STACK
        ARGFRAME PSTACK, 0, STACK
        ARGFRAME XSTACK, 9, STACK
        ARGFRAME IOVERLAY, 0, STATIC
        ARGFRAME DOVERLAY, 0, STATIC
        FUNCALL M500PcdConfigISOType, WriteRawRC
        LOCFRAME ISTACK, 0, STACK
        LOCFRAME PSTACK, 0, STACK
        LOCFRAME XSTACK, 9, STACK
        LOCFRAME IOVERLAY, 0, STATIC
        LOCFRAME DOVERLAY, 0, STATIC
        ARGFRAME ISTACK, 0, STACK
        ARGFRAME PSTACK, 0, STACK
        ARGFRAME XSTACK, 9, STACK
        ARGFRAME IOVERLAY, 0, STATIC
        ARGFRAME DOVERLAY, 0, STATIC
        FUNCALL M500PcdConfigISOType, WriteRawRC
        LOCFRAME ISTACK, 0, STACK
        LOCFRAME PSTACK, 0, STACK
        LOCFRAME XSTACK, 9, STACK
        LOCFRAME IOVERLAY, 0, STATIC
        LOCFRAME DOVERLAY, 0, STATIC
        ARGFRAME ISTACK, 0, STACK
        ARGFRAME PSTACK, 0, STACK
        ARGFRAME XSTACK, 9, STACK
        ARGFRAME IOVERLAY, 0, STATIC
        ARGFRAME DOVERLAY, 0, STATIC
        FUNCALL M500PcdConfigISOType, WriteRawRC
        LOCFRAME ISTACK, 0, STACK
        LOCFRAME PSTACK, 0, STACK
        LOCFRAME XSTACK, 9, STACK
        LOCFRAME IOVERLAY, 0, STATIC
        LOCFRAME DOVERLAY, 0, STATIC
        ARGFRAME ISTACK, 0, STACK
        ARGFRAME PSTACK, 0, STACK
        ARGFRAME XSTACK, 9, STACK
        ARGFRAME IOVERLAY, 0, STATIC
        ARGFRAME DOVERLAY, 0, STATIC
        FUNCALL M500PcdConfigISOType, WriteRawRC
        LOCFRAME ISTACK, 0, STACK
        LOCFRAME PSTACK, 0, STACK
        LOCFRAME XSTACK, 9, STACK
        LOCFRAME IOVERLAY, 0, STATIC
        LOCFRAME DOVERLAY, 0, STATIC
        ARGFRAME ISTACK, 0, STACK
        ARGFRAME PSTACK, 0, STACK
        ARGFRAME XSTACK, 9, STACK
        ARGFRAME IOVERLAY, 0, STATIC
        ARGFRAME DOVERLAY, 0, STATIC
        FUNCALL M500PcdConfigISOType, WriteRawRC
        LOCFRAME ISTACK, 0, STACK
        LOCFRAME PSTACK, 0, STACK
        LOCFRAME XSTACK, 9, STACK
        LOCFRAME IOVERLAY, 0, STATIC
        LOCFRAME DOVERLAY, 0, STATIC
        ARGFRAME ISTACK, 0, STACK
        ARGFRAME PSTACK, 0, STACK
        ARGFRAME XSTACK, 9, STACK
        ARGFRAME IOVERLAY, 0, STATIC
        ARGFRAME DOVERLAY, 0, STATIC
        FUNCALL M500PcdConfigISOType, WriteRawRC
        LOCFRAME ISTACK, 0, STACK
        LOCFRAME PSTACK, 0, STACK
        LOCFRAME XSTACK, 9, STACK
        LOCFRAME IOVERLAY, 0, STATIC
        LOCFRAME DOVERLAY, 0, STATIC
        ARGFRAME ISTACK, 0, STACK
        ARGFRAME PSTACK, 0, STACK
        ARGFRAME XSTACK, 9, STACK
        ARGFRAME IOVERLAY, 0, STATIC
        ARGFRAME DOVERLAY, 0, STATIC
        FUNCALL M500PcdConfigISOType, Delay_I_1us
        LOCFRAME ISTACK, 0, STACK
        LOCFRAME PSTACK, 0, STACK
        LOCFRAME XSTACK, 9, STACK
        LOCFRAME IOVERLAY, 0, STATIC
        LOCFRAME DOVERLAY, 0, STATIC
        ARGFRAME ISTACK, 0, STACK
        ARGFRAME PSTACK, 0, STACK
        ARGFRAME XSTACK, 9, STACK
        ARGFRAME IOVERLAY, 0, STATIC
        ARGFRAME DOVERLAY, 0, STATIC
        FUNCALL M500PcdConfigISOType, PcdAntennaOn
        LOCFRAME ISTACK, 0, STACK
        LOCFRAME PSTACK, 0, STACK
        LOCFRAME XSTACK, 9, STACK
        LOCFRAME IOVERLAY, 0, STATIC
        LOCFRAME DOVERLAY, 0, STATIC
        ARGFRAME ISTACK, 0, STACK
        ARGFRAME PSTACK, 0, STACK
        ARGFRAME XSTACK, 9, STACK
        ARGFRAME IOVERLAY, 0, STATIC
        ARGFRAME DOVERLAY, 0, STATIC
        MOV     A,#-0x9
        LCALL   ?BANKED_ENTER_XDATA
        CFI DPH0 load(1, XDATA, add(CFA_XSP16, literal(-1)))
        CFI DPL0 load(1, XDATA, add(CFA_XSP16, literal(-2)))
        CFI ?BRET_EXT load(1, XDATA, add(CFA_XSP16, literal(-3)))
        CFI ?RET_HIGH load(1, XDATA, add(CFA_XSP16, literal(-4)))
        CFI ?RET_LOW load(1, XDATA, add(CFA_XSP16, literal(-5)))
        CFI R7 load(1, XDATA, add(CFA_XSP16, literal(-6)))
        CFI V0 load(1, XDATA, add(CFA_XSP16, literal(-7)))
        CFI VB load(1, XDATA, add(CFA_XSP16, literal(-8)))
        CFI R6 load(1, XDATA, add(CFA_XSP16, literal(-9)))
        CFI CFA_SP SP+0
        CFI CFA_XSP16 add(XSP16, 9)
        ; Saved register size: 9
        ; Auto size: 0
        MOV     A,R1
        MOV     R6,A
//  207   if (type == 'A')                     //ISO14443_A
        MOV     A,#0x41
        XRL     A,R6
        JNZ     ??M500PcdConfigISOType_0
//  208   { 
//  209     ClearBitMask(Status2Reg,0x08);
        ; Setup parameters for call to function ClearBitMask
        MOV     R2,#0x8
        MOV     R1,#0x8
        LCALL   ??ClearBitMask?relay
//  210     WriteRawRC(ModeReg,0x3D);//3F
        ; Setup parameters for call to function WriteRawRC
        MOV     R2,#0x3d
        MOV     R1,#0x11
        LCALL   ??WriteRawRC?relay
//  211     WriteRawRC(RxSelReg,0x86);//84
        ; Setup parameters for call to function WriteRawRC
        MOV     R2,#-0x7a
        MOV     R1,#0x17
        LCALL   ??WriteRawRC?relay
//  212     WriteRawRC(RFCfgReg,0x7F);   //4F
        ; Setup parameters for call to function WriteRawRC
        MOV     R2,#0x7f
        MOV     R1,#0x26
        LCALL   ??WriteRawRC?relay
//  213     WriteRawRC(TReloadRegL,30);//tmoLength);// TReloadVal = 'h6a =tmoLength(dec) 
        ; Setup parameters for call to function WriteRawRC
        MOV     R2,#0x1e
        MOV     R1,#0x2d
        LCALL   ??WriteRawRC?relay
//  214     WriteRawRC(TReloadRegH,0);
        ; Setup parameters for call to function WriteRawRC
        MOV     R2,#0x0
        MOV     R1,#0x2c
        LCALL   ??WriteRawRC?relay
//  215     WriteRawRC(TModeReg,0x8D);
        ; Setup parameters for call to function WriteRawRC
        MOV     R2,#-0x73
        MOV     R1,#0x2a
        LCALL   ??WriteRawRC?relay
//  216     WriteRawRC(TPrescalerReg,0x3E);
        ; Setup parameters for call to function WriteRawRC
        MOV     R2,#0x3e
        MOV     R1,#0x2b
        LCALL   ??WriteRawRC?relay
//  217     Delay_I_1us(2);
        ; Setup parameters for call to function Delay_I_1us
        MOV     R2,#0x2
        MOV     R3,#0x0
        LCALL   ??Delay_I_1us?relay
//  218     PcdAntennaOn();//开天线
        ; Setup parameters for call to function PcdAntennaOn
        LCALL   ??PcdAntennaOn?relay
//  219   }
//  220   //  else return (-1); 
//  221   
//  222   //return MI_OK;
//  223 }
??M500PcdConfigISOType_0:
        MOV     R7,#0x1
        LJMP    ?BANKED_LEAVE_XDATA
        CFI EndBlock cfiBlock10
//  224 
//  225 /////////////////////////////////////////////////////////////////////
//  226 //功    能：通过RC522和ISO14443卡通讯
//  227 //参数说明：Command[IN]:RC522命令字
//  228 //          pInData[IN]:通过RC522发送到卡片的数据
//  229 //          InLenByte[IN]:发送数据的字节长度
//  230 //          pOutData[OUT]:接收到的卡片返回数据
//  231 //          *pOutLenBit[OUT]:返回数据的位长度
//  232 /////////////////////////////////////////////////////////////////////

        RSEG BANKED_CODE:CODE:NOROOT(0)
//  233 char PcdComMF522(unsigned char Command, 		//RC522命令字
PcdComMF522:
        CFI Block cfiBlock11 Using cfiCommon0
        CFI Function PcdComMF522
        CODE
//  234                  unsigned char *pInData, 		//通过RC522发送到卡片的数据
//  235                  unsigned char InLenByte,		//发送数据的字节长度
//  236                  unsigned char *pOutData, 		//接收到的卡片返回数据
//  237                  unsigned int  *pOutLenBit)		//返回数据的位长度
//  238 {
        FUNCALL PcdComMF522, WriteRawRC
        LOCFRAME ISTACK, 0, STACK
        LOCFRAME PSTACK, 0, STACK
        LOCFRAME XSTACK, 24, STACK
        LOCFRAME IOVERLAY, 0, STATIC
        LOCFRAME DOVERLAY, 0, STATIC
        ARGFRAME ISTACK, 0, STACK
        ARGFRAME PSTACK, 0, STACK
        ARGFRAME XSTACK, 24, STACK
        ARGFRAME IOVERLAY, 0, STATIC
        ARGFRAME DOVERLAY, 0, STATIC
        FUNCALL PcdComMF522, ClearBitMask
        LOCFRAME ISTACK, 0, STACK
        LOCFRAME PSTACK, 0, STACK
        LOCFRAME XSTACK, 24, STACK
        LOCFRAME IOVERLAY, 0, STATIC
        LOCFRAME DOVERLAY, 0, STATIC
        ARGFRAME ISTACK, 0, STACK
        ARGFRAME PSTACK, 0, STACK
        ARGFRAME XSTACK, 24, STACK
        ARGFRAME IOVERLAY, 0, STATIC
        ARGFRAME DOVERLAY, 0, STATIC
        FUNCALL PcdComMF522, WriteRawRC
        LOCFRAME ISTACK, 0, STACK
        LOCFRAME PSTACK, 0, STACK
        LOCFRAME XSTACK, 24, STACK
        LOCFRAME IOVERLAY, 0, STATIC
        LOCFRAME DOVERLAY, 0, STATIC
        ARGFRAME ISTACK, 0, STACK
        ARGFRAME PSTACK, 0, STACK
        ARGFRAME XSTACK, 24, STACK
        ARGFRAME IOVERLAY, 0, STATIC
        ARGFRAME DOVERLAY, 0, STATIC
        FUNCALL PcdComMF522, SetBitMask
        LOCFRAME ISTACK, 0, STACK
        LOCFRAME PSTACK, 0, STACK
        LOCFRAME XSTACK, 24, STACK
        LOCFRAME IOVERLAY, 0, STATIC
        LOCFRAME DOVERLAY, 0, STATIC
        ARGFRAME ISTACK, 0, STACK
        ARGFRAME PSTACK, 0, STACK
        ARGFRAME XSTACK, 24, STACK
        ARGFRAME IOVERLAY, 0, STATIC
        ARGFRAME DOVERLAY, 0, STATIC
        FUNCALL PcdComMF522, WriteRawRC
        LOCFRAME ISTACK, 0, STACK
        LOCFRAME PSTACK, 0, STACK
        LOCFRAME XSTACK, 24, STACK
        LOCFRAME IOVERLAY, 0, STATIC
        LOCFRAME DOVERLAY, 0, STATIC
        ARGFRAME ISTACK, 0, STACK
        ARGFRAME PSTACK, 0, STACK
        ARGFRAME XSTACK, 24, STACK
        ARGFRAME IOVERLAY, 0, STATIC
        ARGFRAME DOVERLAY, 0, STATIC
        FUNCALL PcdComMF522, WriteRawRC
        LOCFRAME ISTACK, 0, STACK
        LOCFRAME PSTACK, 0, STACK
        LOCFRAME XSTACK, 24, STACK
        LOCFRAME IOVERLAY, 0, STATIC
        LOCFRAME DOVERLAY, 0, STATIC
        ARGFRAME ISTACK, 0, STACK
        ARGFRAME PSTACK, 0, STACK
        ARGFRAME XSTACK, 24, STACK
        ARGFRAME IOVERLAY, 0, STATIC
        ARGFRAME DOVERLAY, 0, STATIC
        FUNCALL PcdComMF522, SetBitMask
        LOCFRAME ISTACK, 0, STACK
        LOCFRAME PSTACK, 0, STACK
        LOCFRAME XSTACK, 24, STACK
        LOCFRAME IOVERLAY, 0, STATIC
        LOCFRAME DOVERLAY, 0, STATIC
        ARGFRAME ISTACK, 0, STACK
        ARGFRAME PSTACK, 0, STACK
        ARGFRAME XSTACK, 24, STACK
        ARGFRAME IOVERLAY, 0, STATIC
        ARGFRAME DOVERLAY, 0, STATIC
        FUNCALL PcdComMF522, ReadRawRC
        LOCFRAME ISTACK, 0, STACK
        LOCFRAME PSTACK, 0, STACK
        LOCFRAME XSTACK, 24, STACK
        LOCFRAME IOVERLAY, 0, STATIC
        LOCFRAME DOVERLAY, 0, STATIC
        ARGFRAME ISTACK, 0, STACK
        ARGFRAME PSTACK, 0, STACK
        ARGFRAME XSTACK, 24, STACK
        ARGFRAME IOVERLAY, 0, STATIC
        ARGFRAME DOVERLAY, 0, STATIC
        FUNCALL PcdComMF522, ClearBitMask
        LOCFRAME ISTACK, 0, STACK
        LOCFRAME PSTACK, 0, STACK
        LOCFRAME XSTACK, 24, STACK
        LOCFRAME IOVERLAY, 0, STATIC
        LOCFRAME DOVERLAY, 0, STATIC
        ARGFRAME ISTACK, 0, STACK
        ARGFRAME PSTACK, 0, STACK
        ARGFRAME XSTACK, 24, STACK
        ARGFRAME IOVERLAY, 0, STATIC
        ARGFRAME DOVERLAY, 0, STATIC
        FUNCALL PcdComMF522, ReadRawRC
        LOCFRAME ISTACK, 0, STACK
        LOCFRAME PSTACK, 0, STACK
        LOCFRAME XSTACK, 24, STACK
        LOCFRAME IOVERLAY, 0, STATIC
        LOCFRAME DOVERLAY, 0, STATIC
        ARGFRAME ISTACK, 0, STACK
        ARGFRAME PSTACK, 0, STACK
        ARGFRAME XSTACK, 24, STACK
        ARGFRAME IOVERLAY, 0, STATIC
        ARGFRAME DOVERLAY, 0, STATIC
        FUNCALL PcdComMF522, ReadRawRC
        LOCFRAME ISTACK, 0, STACK
        LOCFRAME PSTACK, 0, STACK
        LOCFRAME XSTACK, 24, STACK
        LOCFRAME IOVERLAY, 0, STATIC
        LOCFRAME DOVERLAY, 0, STATIC
        ARGFRAME ISTACK, 0, STACK
        ARGFRAME PSTACK, 0, STACK
        ARGFRAME XSTACK, 24, STACK
        ARGFRAME IOVERLAY, 0, STATIC
        ARGFRAME DOVERLAY, 0, STATIC
        FUNCALL PcdComMF522, ReadRawRC
        LOCFRAME ISTACK, 0, STACK
        LOCFRAME PSTACK, 0, STACK
        LOCFRAME XSTACK, 24, STACK
        LOCFRAME IOVERLAY, 0, STATIC
        LOCFRAME DOVERLAY, 0, STATIC
        ARGFRAME ISTACK, 0, STACK
        ARGFRAME PSTACK, 0, STACK
        ARGFRAME XSTACK, 24, STACK
        ARGFRAME IOVERLAY, 0, STATIC
        ARGFRAME DOVERLAY, 0, STATIC
        FUNCALL PcdComMF522, ReadRawRC
        LOCFRAME ISTACK, 0, STACK
        LOCFRAME PSTACK, 0, STACK
        LOCFRAME XSTACK, 24, STACK
        LOCFRAME IOVERLAY, 0, STATIC
        LOCFRAME DOVERLAY, 0, STATIC
        ARGFRAME ISTACK, 0, STACK
        ARGFRAME PSTACK, 0, STACK
        ARGFRAME XSTACK, 24, STACK
        ARGFRAME IOVERLAY, 0, STATIC
        ARGFRAME DOVERLAY, 0, STATIC
        FUNCALL PcdComMF522, SetBitMask
        LOCFRAME ISTACK, 0, STACK
        LOCFRAME PSTACK, 0, STACK
        LOCFRAME XSTACK, 24, STACK
        LOCFRAME IOVERLAY, 0, STATIC
        LOCFRAME DOVERLAY, 0, STATIC
        ARGFRAME ISTACK, 0, STACK
        ARGFRAME PSTACK, 0, STACK
        ARGFRAME XSTACK, 24, STACK
        ARGFRAME IOVERLAY, 0, STATIC
        ARGFRAME DOVERLAY, 0, STATIC
        FUNCALL PcdComMF522, WriteRawRC
        LOCFRAME ISTACK, 0, STACK
        LOCFRAME PSTACK, 0, STACK
        LOCFRAME XSTACK, 24, STACK
        LOCFRAME IOVERLAY, 0, STATIC
        LOCFRAME DOVERLAY, 0, STATIC
        ARGFRAME ISTACK, 0, STACK
        ARGFRAME PSTACK, 0, STACK
        ARGFRAME XSTACK, 24, STACK
        ARGFRAME IOVERLAY, 0, STATIC
        ARGFRAME DOVERLAY, 0, STATIC
        MOV     A,#-0x18
        LCALL   ?BANKED_ENTER_XDATA
        CFI DPH0 load(1, XDATA, add(CFA_XSP16, literal(-1)))
        CFI DPL0 load(1, XDATA, add(CFA_XSP16, literal(-2)))
        CFI ?BRET_EXT load(1, XDATA, add(CFA_XSP16, literal(-3)))
        CFI ?RET_HIGH load(1, XDATA, add(CFA_XSP16, literal(-4)))
        CFI ?RET_LOW load(1, XDATA, add(CFA_XSP16, literal(-5)))
        CFI R7 load(1, XDATA, add(CFA_XSP16, literal(-6)))
        CFI V15 load(1, XDATA, add(CFA_XSP16, literal(-7)))
        CFI V14 load(1, XDATA, add(CFA_XSP16, literal(-8)))
        CFI V13 load(1, XDATA, add(CFA_XSP16, literal(-9)))
        CFI V12 load(1, XDATA, add(CFA_XSP16, literal(-10)))
        CFI V11 load(1, XDATA, add(CFA_XSP16, literal(-11)))
        CFI V10 load(1, XDATA, add(CFA_XSP16, literal(-12)))
        CFI V9 load(1, XDATA, add(CFA_XSP16, literal(-13)))
        CFI V8 load(1, XDATA, add(CFA_XSP16, literal(-14)))
        CFI V7 load(1, XDATA, add(CFA_XSP16, literal(-15)))
        CFI V6 load(1, XDATA, add(CFA_XSP16, literal(-16)))
        CFI V5 load(1, XDATA, add(CFA_XSP16, literal(-17)))
        CFI V4 load(1, XDATA, add(CFA_XSP16, literal(-18)))
        CFI V3 load(1, XDATA, add(CFA_XSP16, literal(-19)))
        CFI V2 load(1, XDATA, add(CFA_XSP16, literal(-20)))
        CFI V1 load(1, XDATA, add(CFA_XSP16, literal(-21)))
        CFI V0 load(1, XDATA, add(CFA_XSP16, literal(-22)))
        CFI VB load(1, XDATA, add(CFA_XSP16, literal(-23)))
        CFI R6 load(1, XDATA, add(CFA_XSP16, literal(-24)))
        CFI CFA_SP SP+0
        CFI CFA_XSP16 add(XSP16, 24)
        ; Saved register size: 24
        ; Auto size: 0
        MOV     ?V0 + 0,R1
        MOV     ?V0 + 14,R2
        MOV     ?V0 + 15,R3
        MOV     ?V0 + 8,R4
        MOV     A,#0x18
        LCALL   ?XSTACK_DISP0_8
        MOVX    A,@DPTR
        MOV     ?V0 + 12,A
        INC     DPTR
        MOVX    A,@DPTR
        MOV     ?V0 + 13,A
        MOV     A,#0x1a
        LCALL   ?XSTACK_DISP0_8
        MOVX    A,@DPTR
        MOV     ?V0 + 10,A
        INC     DPTR
        MOVX    A,@DPTR
        MOV     ?V0 + 11,A
//  239   char status = MI_ERR;
        MOV     ?V0 + 1,#-0x45
//  240   unsigned char irqEn   = 0x00;
        MOV     ?V0 + 2,#0x0
//  241   unsigned char waitFor = 0x00;
        MOV     ?V0 + 3,#0x0
//  242   unsigned char lastBits;
//  243   unsigned char n;
//  244   unsigned int i;
//  245   switch (Command)
        MOV     A,?V0 + 0
        ADD     A,#-0xc
        JZ      ??PcdComMF522_0
        ADD     A,#-0x2
        JNZ     ??PcdComMF522_1
//  246   {
//  247   case PCD_AUTHENT:		//Mifare认证
//  248     irqEn   = 0x12;		//允许错误中断请求ErrIEn  允许空闲中断IdleIEn
        MOV     ?V0 + 2,#0x12
//  249     waitFor = 0x10;		//认证寻卡等待时候 查询空闲中断标志位
        MOV     ?V0 + 3,#0x10
//  250     break;
        SJMP    ??PcdComMF522_1
//  251   case PCD_TRANSCEIVE:		//接收发送 发送接收
//  252     irqEn   = 0x77;		//允许TxIEn RxIEn IdleIEn LoAlertIEn ErrIEn TimerIEn
??PcdComMF522_0:
        MOV     ?V0 + 2,#0x77
//  253     waitFor = 0x30;		//寻卡等待时候 查询接收中断标志位与 空闲中断标志位
        MOV     ?V0 + 3,#0x30
//  254     break;
//  255   default:
//  256     break;
//  257   }
//  258   
//  259   WriteRawRC(ComIEnReg,irqEn|0x80);		//IRqInv置位管脚IRQ与Status1Reg的IRq位的值相反 
??PcdComMF522_1:
        ; Setup parameters for call to function WriteRawRC
        MOV     A,#-0x80
        ORL     A,?V0 + 2
        MOV     R2,A
        MOV     R1,#0x2
        LCALL   ??WriteRawRC?relay
//  260   ClearBitMask(ComIrqReg,0x80);			//Set1该位清零时，CommIRqReg的屏蔽位清零
        ; Setup parameters for call to function ClearBitMask
        MOV     R2,#-0x80
        MOV     R1,#0x4
        LCALL   ??ClearBitMask?relay
//  261   WriteRawRC(CommandReg,PCD_IDLE);		//写空闲命令
        ; Setup parameters for call to function WriteRawRC
        MOV     R2,#0x0
        MOV     R1,#0x1
        LCALL   ??WriteRawRC?relay
//  262   SetBitMask(FIFOLevelReg,0x80);			//置位FlushBuffer清除内部FIFO的读和写指针以及ErrReg的BufferOvfl标志位被清除
        ; Setup parameters for call to function SetBitMask
        MOV     R2,#-0x80
        MOV     R1,#0xa
        LCALL   ??SetBitMask?relay
//  263   
//  264   for (i=0; i<InLenByte; i++)
        MOV     R6,#0x0
        MOV     R7,#0x0
??PcdComMF522_2:
        MOV     ?V0 + 6,?V0 + 8
        MOV     ?V0 + 7,#0x0
        CLR     C
        MOV     A,R6
        SUBB    A,?V0 + 6
        MOV     A,R7
        SUBB    A,?V0 + 7
        JNC     ??PcdComMF522_3
//  265   {   WriteRawRC(FIFODataReg, pInData[i]);    }		//写数据进FIFOdata
        ; Setup parameters for call to function WriteRawRC
        MOV     A,?V0 + 14
        ADD     A,R6
        MOV     DPL,A
        MOV     A,?V0 + 15
        ADDC    A,R7
        MOV     DPH,A
        MOVX    A,@DPTR
        MOV     R2,A
        MOV     R1,#0x9
        LCALL   ??WriteRawRC?relay
        MOV     A,R6
        ADD     A,#0x1
        MOV     R6,A
        MOV     A,R7
        ADDC    A,#0x0
        MOV     R7,A
        SJMP    ??PcdComMF522_2
//  266   WriteRawRC(CommandReg, Command);					//写命令
??PcdComMF522_3:
        ; Setup parameters for call to function WriteRawRC
        MOV     R2,?V0 + 0
        MOV     R1,#0x1
        LCALL   ??WriteRawRC?relay
//  267   
//  268   
//  269   if (Command == PCD_TRANSCEIVE)
        MOV     A,#0xc
        XRL     A,?V0 + 0
        JNZ     ??PcdComMF522_4
//  270   {    SetBitMask(BitFramingReg,0x80);  }				//StartSend置位启动数据发送 该位与收发命令使用时才有效
        ; Setup parameters for call to function SetBitMask
        MOV     R2,#-0x80
        MOV     R1,#0xd
        LCALL   ??SetBitMask?relay
//  271   
//  272   i = 1000;//根据时钟频率调整，操作M1卡最大等待时间25ms
??PcdComMF522_4:
        MOV     R6,#-0x18
        MOV     R7,#0x3
//  273   do 														//认证 与寻卡等待时间	
//  274   {
//  275     n = ReadRawRC(ComIrqReg);							//查询事件中断
??PcdComMF522_5:
        ; Setup parameters for call to function ReadRawRC
        MOV     R1,#0x4
        LCALL   ??ReadRawRC?relay
        MOV     A,R1
        MOV     ?V0 + 4,A
//  276     i--;
        MOV     A,R6
        ADD     A,#-0x1
        MOV     R6,A
        MOV     A,R7
        ADDC    A,#-0x1
        MOV     R7,A
//  277   }
//  278   while ((i!=0) && !(n&0x01) && !(n&waitFor));		//退出条件i=0,定时器中断，与写空闲命令
        MOV     A,R6
        ORL     A,R7
        JZ      ??PcdComMF522_6
        MOV     A,?V0 + 4
        MOV     C,0xE0 /* A   */.0
        JC      ??PcdComMF522_6
        MOV     A,?V0 + 4
        ANL     A,?V0 + 3
        JZ      ??PcdComMF522_5
//  279   ClearBitMask(BitFramingReg,0x80);					//清理允许StartSend位
??PcdComMF522_6:
        ; Setup parameters for call to function ClearBitMask
        MOV     R2,#-0x80
        MOV     R1,#0xd
        LCALL   ??ClearBitMask?relay
//  280   if (i!=0)
        MOV     A,R6
        ORL     A,R7
        JNZ     $+5
        LJMP    ??PcdComMF522_7 & 0xFFFF
//  281   {    
//  282     if(!(ReadRawRC(ErrorReg)&0x1B))			//读错误标志寄存器BufferOfI CollErr ParityErr ProtocolErr
        ; Setup parameters for call to function ReadRawRC
        MOV     R1,#0x6
        LCALL   ??ReadRawRC?relay
        MOV     A,R1
        ANL     A,#0x1b
        JZ      $+5
        LJMP    ??PcdComMF522_8 & 0xFFFF
//  283     {
//  284       status = MI_OK;
        MOV     ?V0 + 1,#0x26
//  285       if (n & irqEn & 0x01)					//是否发生定时器中断
        MOV     A,?V0 + 2
        MOV     C,0xE0 /* A   */.0
        PUSH    PSW
        CFI CFA_SP SP+-1
        MOV     A,?V0 + 4
        MOV     C,0xE0 /* A   */.0
        MOV     B.0,C
        LCALL   ?POP_BIT_ISP
        DEC     SP
        CFI CFA_SP SP+0
        ANL     C,B.0
        JNC     ??PcdComMF522_9
//  286       {   status = MI_NOTAGERR;   }
        MOV     ?V0 + 1,#-0x34
//  287       if (Command == PCD_TRANSCEIVE)
??PcdComMF522_9:
        MOV     A,#0xc
        XRL     A,?V0 + 0
        JZ      $+5
        LJMP    ??PcdComMF522_7 & 0xFFFF
//  288       {
//  289         n = ReadRawRC(FIFOLevelReg);			//读FIFO中保存的字节数
        ; Setup parameters for call to function ReadRawRC
        MOV     R1,#0xa
        LCALL   ??ReadRawRC?relay
        MOV     A,R1
        MOV     ?V0 + 4,A
//  290         lastBits = ReadRawRC(ControlReg) & 0x07;	//最后接收到得字节的有效位数
        ; Setup parameters for call to function ReadRawRC
        MOV     R1,#0xc
        LCALL   ??ReadRawRC?relay
        MOV     A,R1
        ANL     A,#0x7
        MOV     ?V0 + 5,A
//  291         if (lastBits)
        MOV     A,?V0 + 5
        JZ      ??PcdComMF522_10
//  292         {   *pOutLenBit = (n-1)*8 + lastBits;   }	//N个字节数减去1（最后一个字节）+最后一位的位数 读取到的数据总位数
        MOV     ?V0 + 6,?V0 + 4
        MOV     ?V0 + 7,#0x0
        MOV     A,?V0 + 6
        ADD     A,#-0x1
        MOV     R0,A
        MOV     A,?V0 + 7
        ADDC    A,#-0x1
        MOV     R1,A
        MOV     A,R0
        MOV     B,#0x8
        MUL     AB
        XCH     A,R0
        MOV     R2,B
        MOV     B,#0x0
        MUL     AB
        ADD     A,R2
        MOV     R2,A
        MOV     B,#0x8
        MOV     A,R1
        MUL     AB
        ADD     A,R2
        MOV     R1,A
        MOV     ?V0 + 6,?V0 + 5
        MOV     ?V0 + 7,#0x0
        MOV     A,R0
        ADD     A,?V0 + 6
        MOV     R0,A
        MOV     A,R1
        ADDC    A,?V0 + 7
        MOV     R1,A
        MOV     DPL,?V0 + 10
        MOV     DPH,?V0 + 11
        MOV     A,R0
        MOVX    @DPTR,A
        INC     DPTR
        MOV     A,R1
        MOVX    @DPTR,A
        SJMP    ??PcdComMF522_11
//  293         else
//  294         {   *pOutLenBit = n*8;   }					//最后接收到的字节整个字节有效
??PcdComMF522_10:
        MOV     A,?V0 + 4
        MOV     R0,?V0 + 4
        MOV     R1,#0x0
        MOV     A,R0
        MOV     B,#0x8
        MUL     AB
        XCH     A,R0
        MOV     R2,B
        MOV     B,#0x0
        MUL     AB
        ADD     A,R2
        MOV     R2,A
        MOV     B,#0x8
        MOV     A,R1
        MUL     AB
        ADD     A,R2
        MOV     R1,A
        MOV     DPL,?V0 + 10
        MOV     DPH,?V0 + 11
        MOV     A,R0
        MOVX    @DPTR,A
        INC     DPTR
        MOV     A,R1
        MOVX    @DPTR,A
//  295         if (n == 0)									
??PcdComMF522_11:
        MOV     A,?V0 + 4
        JNZ     ??PcdComMF522_12
//  296         {   n = 1;    }
        MOV     ?V0 + 4,#0x1
//  297         if (n > MAXRLEN)
??PcdComMF522_12:
        MOV     A,?V0 + 4
        CLR     C
        SUBB    A,#0x13
        JC      ??PcdComMF522_13
//  298         {   n = MAXRLEN;   }
        MOV     ?V0 + 4,#0x12
//  299         for (i=0; i<n; i++)
??PcdComMF522_13:
        MOV     R6,#0x0
        MOV     R7,#0x0
??PcdComMF522_14:
        MOV     ?V0 + 6,?V0 + 4
        MOV     ?V0 + 7,#0x0
        CLR     C
        MOV     A,R6
        SUBB    A,?V0 + 6
        MOV     A,R7
        SUBB    A,?V0 + 7
        JNC     ??PcdComMF522_7
//  300         {   pOutData[i] = ReadRawRC(FIFODataReg);    }
        ; Setup parameters for call to function ReadRawRC
        MOV     R1,#0x9
        LCALL   ??ReadRawRC?relay
        MOV     A,R1
        PUSH    A
        CFI CFA_SP SP+-1
        MOV     A,?V0 + 12
        ADD     A,R6
        MOV     DPL,A
        MOV     A,?V0 + 13
        ADDC    A,R7
        MOV     DPH,A
        POP     A
        CFI CFA_SP SP+0
        MOVX    @DPTR,A
        MOV     A,R6
        ADD     A,#0x1
        MOV     R6,A
        MOV     A,R7
        ADDC    A,#0x0
        MOV     R7,A
        SJMP    ??PcdComMF522_14
//  301       }
//  302     }
//  303     else
//  304     {   status = MI_ERR;   }
??PcdComMF522_8:
        MOV     ?V0 + 1,#-0x45
//  305   }
//  306   
//  307   SetBitMask(ControlReg,0x80);           // stop timer now
??PcdComMF522_7:
        ; Setup parameters for call to function SetBitMask
        MOV     R2,#-0x80
        MOV     R1,#0xc
        LCALL   ??SetBitMask?relay
//  308   WriteRawRC(CommandReg,PCD_IDLE); 
        ; Setup parameters for call to function WriteRawRC
        MOV     R2,#0x0
        MOV     R1,#0x1
        LCALL   ??WriteRawRC?relay
//  309   return status;
        MOV     R1,?V0 + 1
        MOV     R7,#0x10
        LJMP    ?BANKED_LEAVE_XDATA
        CFI EndBlock cfiBlock11
//  310 }
//  311 
//  312 /////////////////////////////////////////////////////////////////////
//  313 //功    能：寻卡
//  314 //参数说明: req_code[IN]:寻卡方式
//  315 //                0x52 = 寻感应区内所有符合14443A标准的卡
//  316 //                0x26 = 寻未进入休眠状态的卡
//  317 //          pTagType[OUT]：卡片类型代码
//  318 //                0x4400 = Mifare_UltraLight
//  319 //                0x0400 = Mifare_One(S50)
//  320 //                0x0200 = Mifare_One(S70)
//  321 //                0x0800 = Mifare_Pro(X)
//  322 //                0x4403 = Mifare_DESFire
//  323 //返    回: 成功返回MI_OK
//  324 /////////////////////////////////////////////////////////////////////

        RSEG BANKED_CODE:CODE:NOROOT(0)
//  325 char PcdRequest(unsigned char req_code,unsigned char *pTagType)
PcdRequest:
        CFI Block cfiBlock12 Using cfiCommon0
        CFI Function PcdRequest
        CODE
//  326 {
        FUNCALL PcdRequest, ClearBitMask
        LOCFRAME ISTACK, 0, STACK
        LOCFRAME PSTACK, 0, STACK
        LOCFRAME XSTACK, 32, STACK
        LOCFRAME IOVERLAY, 0, STATIC
        LOCFRAME DOVERLAY, 0, STATIC
        ARGFRAME ISTACK, 0, STACK
        ARGFRAME PSTACK, 0, STACK
        ARGFRAME XSTACK, 32, STACK
        ARGFRAME IOVERLAY, 0, STATIC
        ARGFRAME DOVERLAY, 0, STATIC
        FUNCALL PcdRequest, WriteRawRC
        LOCFRAME ISTACK, 0, STACK
        LOCFRAME PSTACK, 0, STACK
        LOCFRAME XSTACK, 32, STACK
        LOCFRAME IOVERLAY, 0, STATIC
        LOCFRAME DOVERLAY, 0, STATIC
        ARGFRAME ISTACK, 0, STACK
        ARGFRAME PSTACK, 0, STACK
        ARGFRAME XSTACK, 32, STACK
        ARGFRAME IOVERLAY, 0, STATIC
        ARGFRAME DOVERLAY, 0, STATIC
        FUNCALL PcdRequest, SetBitMask
        LOCFRAME ISTACK, 0, STACK
        LOCFRAME PSTACK, 0, STACK
        LOCFRAME XSTACK, 32, STACK
        LOCFRAME IOVERLAY, 0, STATIC
        LOCFRAME DOVERLAY, 0, STATIC
        ARGFRAME ISTACK, 0, STACK
        ARGFRAME PSTACK, 0, STACK
        ARGFRAME XSTACK, 32, STACK
        ARGFRAME IOVERLAY, 0, STATIC
        ARGFRAME DOVERLAY, 0, STATIC
        FUNCALL PcdRequest, PcdComMF522
        LOCFRAME ISTACK, 0, STACK
        LOCFRAME PSTACK, 0, STACK
        LOCFRAME XSTACK, 36, STACK
        LOCFRAME IOVERLAY, 0, STATIC
        LOCFRAME DOVERLAY, 0, STATIC
        ARGFRAME ISTACK, 0, STACK
        ARGFRAME PSTACK, 0, STACK
        ARGFRAME XSTACK, 36, STACK
        ARGFRAME IOVERLAY, 0, STATIC
        ARGFRAME DOVERLAY, 0, STATIC
        MOV     A,#-0xc
        LCALL   ?BANKED_ENTER_XDATA
        CFI DPH0 load(1, XDATA, add(CFA_XSP16, literal(-1)))
        CFI DPL0 load(1, XDATA, add(CFA_XSP16, literal(-2)))
        CFI ?BRET_EXT load(1, XDATA, add(CFA_XSP16, literal(-3)))
        CFI ?RET_HIGH load(1, XDATA, add(CFA_XSP16, literal(-4)))
        CFI ?RET_LOW load(1, XDATA, add(CFA_XSP16, literal(-5)))
        CFI R7 load(1, XDATA, add(CFA_XSP16, literal(-6)))
        CFI V3 load(1, XDATA, add(CFA_XSP16, literal(-7)))
        CFI V2 load(1, XDATA, add(CFA_XSP16, literal(-8)))
        CFI V1 load(1, XDATA, add(CFA_XSP16, literal(-9)))
        CFI V0 load(1, XDATA, add(CFA_XSP16, literal(-10)))
        CFI VB load(1, XDATA, add(CFA_XSP16, literal(-11)))
        CFI R6 load(1, XDATA, add(CFA_XSP16, literal(-12)))
        CFI CFA_SP SP+0
        CFI CFA_XSP16 add(XSP16, 12)
        ; Saved register size: 12
        ; Auto size: 20
        MOV     A,#-0x14
        LCALL   ?ALLOC_XSTACK8
        CFI CFA_XSP16 add(XSP16, 32)
        MOV     ?V0 + 3,R1
        MOV     A,R2
        MOV     R6,A
        MOV     A,R3
        MOV     R7,A
//  327   char status;  
//  328   // uint i;
//  329   unsigned int  unLen;
//  330   unsigned char ucComMF522Buf[MAXRLEN]; 
//  331   
//  332   ClearBitMask(Status2Reg,0x08);	//清理指示MIFARECyptol单元接通以及所有卡的数据通信被加密的情况
        ; Setup parameters for call to function ClearBitMask
        MOV     R2,#0x8
        MOV     R1,#0x8
        LCALL   ??ClearBitMask?relay
//  333   WriteRawRC(BitFramingReg,0x07);	//	发送的最后一个字节的 七位
        ; Setup parameters for call to function WriteRawRC
        MOV     R2,#0x7
        MOV     R1,#0xd
        LCALL   ??WriteRawRC?relay
//  334   SetBitMask(TxControlReg,0x03);	//TX1,TX2管脚的输出信号传递经发送调制的13.56的能量载波信号
        ; Setup parameters for call to function SetBitMask
        MOV     R2,#0x3
        MOV     R1,#0x14
        LCALL   ??SetBitMask?relay
//  335   
//  336   ucComMF522Buf[0] = req_code;		//存入 卡片命令字
        MOV     A,?V0 + 3
        MOV     A,#0x2
        LCALL   ?XSTACK_DISP0_8
        MOV     A,?V0 + 3
        MOVX    @DPTR,A
//  337   
//  338   status = PcdComMF522(PCD_TRANSCEIVE,ucComMF522Buf,1,ucComMF522Buf,&unLen);	//寻卡    
        ; Setup parameters for call to function PcdComMF522
        MOV     DPL,?XSP + 0
        MOV     DPH,?XSP + 1
        MOV     ?V0 + 0,DPL
        MOV     ?V0 + 1,DPH
        MOV     R0,#?V0 + 0
        LCALL   ?PUSH_XSTACK_I_TWO
        CFI CFA_XSP16 add(XSP16, 34)
        MOV     A,#0x4
        LCALL   ?XSTACK_DISP0_8
        MOV     ?V0 + 0,DPL
        MOV     ?V0 + 1,DPH
        MOV     R0,#?V0 + 0
        LCALL   ?PUSH_XSTACK_I_TWO
        CFI CFA_XSP16 add(XSP16, 36)
        MOV     R4,#0x1
        MOV     A,#0x6
        LCALL   ?XSTACK_DISP0_8
        MOV     R2,DPL
        MOV     R3,DPH
        MOV     R1,#0xc
        LCALL   ??PcdComMF522?relay
        MOV     A,#0x4
        LCALL   ?DEALLOC_XSTACK8
        CFI CFA_XSP16 add(XSP16, 32)
        MOV     A,R1
        MOV     ?V0 + 2,A
//  339   if ((status == MI_OK) && (unLen == 0x10))	//寻卡成功返回卡类型 
        MOV     A,#0x26
        XRL     A,?V0 + 2
        JNZ     ??PcdRequest_0
        MOV     DPL,?XSP + 0
        MOV     DPH,?XSP + 1
        MOVX    A,@DPTR
        XRL     A,#0x10
        JNZ     ??PcdRequest_1
        INC     DPTR
        MOVX    A,@DPTR
        XRL     A,#0x0
??PcdRequest_1:
        JNZ     ??PcdRequest_0
//  340   {    
//  341     *pTagType     = ucComMF522Buf[0];
        MOV     A,#0x2
        LCALL   ?XSTACK_DISP0_8
        MOVX    A,@DPTR
        MOV     DPL,R6
        MOV     DPH,R7
        MOVX    @DPTR,A
//  342     *(pTagType+1) = ucComMF522Buf[1];
        MOV     A,#0x3
        LCALL   ?XSTACK_DISP0_8
        MOVX    A,@DPTR
        MOV     DPL,R6
        MOV     DPH,R7
        INC     DPTR
        MOVX    @DPTR,A
        SJMP    ??PcdRequest_2
//  343   }
//  344   else
//  345   {   
//  346     status = MI_ERR;
??PcdRequest_0:
        MOV     ?V0 + 2,#-0x45
//  347   }
//  348   
//  349   return status;
??PcdRequest_2:
        MOV     R1,?V0 + 2
        MOV     A,#0x14
        LCALL   ?DEALLOC_XSTACK8
        CFI CFA_XSP16 add(XSP16, 12)
        MOV     R7,#0x4
        LJMP    ?BANKED_LEAVE_XDATA
        CFI EndBlock cfiBlock12
//  350 }
//  351 
//  352 /////////////////////////////////////////////////////////////////////
//  353 //功    能：防冲撞
//  354 //参数说明: pSnr[OUT]:卡片序列号，4字节
//  355 //返    回: 成功返回MI_OK
//  356 /////////////////////////////////////////////////////////////////////  

        RSEG BANKED_CODE:CODE:NOROOT(0)
//  357 char PcdAnticoll(unsigned char *pSnr)
PcdAnticoll:
        CFI Block cfiBlock13 Using cfiCommon0
        CFI Function PcdAnticoll
        CODE
//  358 {
        FUNCALL PcdAnticoll, ClearBitMask
        LOCFRAME ISTACK, 0, STACK
        LOCFRAME PSTACK, 0, STACK
        LOCFRAME XSTACK, 33, STACK
        LOCFRAME IOVERLAY, 0, STATIC
        LOCFRAME DOVERLAY, 0, STATIC
        ARGFRAME ISTACK, 0, STACK
        ARGFRAME PSTACK, 0, STACK
        ARGFRAME XSTACK, 33, STACK
        ARGFRAME IOVERLAY, 0, STATIC
        ARGFRAME DOVERLAY, 0, STATIC
        FUNCALL PcdAnticoll, WriteRawRC
        LOCFRAME ISTACK, 0, STACK
        LOCFRAME PSTACK, 0, STACK
        LOCFRAME XSTACK, 33, STACK
        LOCFRAME IOVERLAY, 0, STATIC
        LOCFRAME DOVERLAY, 0, STATIC
        ARGFRAME ISTACK, 0, STACK
        ARGFRAME PSTACK, 0, STACK
        ARGFRAME XSTACK, 33, STACK
        ARGFRAME IOVERLAY, 0, STATIC
        ARGFRAME DOVERLAY, 0, STATIC
        FUNCALL PcdAnticoll, ClearBitMask
        LOCFRAME ISTACK, 0, STACK
        LOCFRAME PSTACK, 0, STACK
        LOCFRAME XSTACK, 33, STACK
        LOCFRAME IOVERLAY, 0, STATIC
        LOCFRAME DOVERLAY, 0, STATIC
        ARGFRAME ISTACK, 0, STACK
        ARGFRAME PSTACK, 0, STACK
        ARGFRAME XSTACK, 33, STACK
        ARGFRAME IOVERLAY, 0, STATIC
        ARGFRAME DOVERLAY, 0, STATIC
        FUNCALL PcdAnticoll, PcdComMF522
        LOCFRAME ISTACK, 0, STACK
        LOCFRAME PSTACK, 0, STACK
        LOCFRAME XSTACK, 37, STACK
        LOCFRAME IOVERLAY, 0, STATIC
        LOCFRAME DOVERLAY, 0, STATIC
        ARGFRAME ISTACK, 0, STACK
        ARGFRAME PSTACK, 0, STACK
        ARGFRAME XSTACK, 37, STACK
        ARGFRAME IOVERLAY, 0, STATIC
        ARGFRAME DOVERLAY, 0, STATIC
        FUNCALL PcdAnticoll, SetBitMask
        LOCFRAME ISTACK, 0, STACK
        LOCFRAME PSTACK, 0, STACK
        LOCFRAME XSTACK, 33, STACK
        LOCFRAME IOVERLAY, 0, STATIC
        LOCFRAME DOVERLAY, 0, STATIC
        ARGFRAME ISTACK, 0, STACK
        ARGFRAME PSTACK, 0, STACK
        ARGFRAME XSTACK, 33, STACK
        ARGFRAME IOVERLAY, 0, STATIC
        ARGFRAME DOVERLAY, 0, STATIC
        MOV     A,#-0xd
        LCALL   ?BANKED_ENTER_XDATA
        CFI DPH0 load(1, XDATA, add(CFA_XSP16, literal(-1)))
        CFI DPL0 load(1, XDATA, add(CFA_XSP16, literal(-2)))
        CFI ?BRET_EXT load(1, XDATA, add(CFA_XSP16, literal(-3)))
        CFI ?RET_HIGH load(1, XDATA, add(CFA_XSP16, literal(-4)))
        CFI ?RET_LOW load(1, XDATA, add(CFA_XSP16, literal(-5)))
        CFI R7 load(1, XDATA, add(CFA_XSP16, literal(-6)))
        CFI V4 load(1, XDATA, add(CFA_XSP16, literal(-7)))
        CFI V3 load(1, XDATA, add(CFA_XSP16, literal(-8)))
        CFI V2 load(1, XDATA, add(CFA_XSP16, literal(-9)))
        CFI V1 load(1, XDATA, add(CFA_XSP16, literal(-10)))
        CFI V0 load(1, XDATA, add(CFA_XSP16, literal(-11)))
        CFI VB load(1, XDATA, add(CFA_XSP16, literal(-12)))
        CFI R6 load(1, XDATA, add(CFA_XSP16, literal(-13)))
        CFI CFA_SP SP+0
        CFI CFA_XSP16 add(XSP16, 13)
        ; Saved register size: 13
        ; Auto size: 20
        MOV     A,#-0x14
        LCALL   ?ALLOC_XSTACK8
        CFI CFA_XSP16 add(XSP16, 33)
        MOV     A,R2
        MOV     R6,A
        MOV     A,R3
        MOV     R7,A
//  359   char status;
//  360   unsigned char i,snr_check=0;
        MOV     ?V0 + 3,#0x0
//  361   unsigned int  unLen;
//  362   unsigned char ucComMF522Buf[MAXRLEN]; 
//  363   
//  364   
//  365   ClearBitMask(Status2Reg,0x08);		//清MFCryptol On位 只有成功执行MFAuthent命令后，该位才能置位
        ; Setup parameters for call to function ClearBitMask
        MOV     R2,#0x8
        MOV     R1,#0x8
        LCALL   ??ClearBitMask?relay
//  366   WriteRawRC(BitFramingReg,0x00);		//清理寄存器 停止收发
        ; Setup parameters for call to function WriteRawRC
        MOV     R2,#0x0
        MOV     R1,#0xd
        LCALL   ??WriteRawRC?relay
//  367   ClearBitMask(CollReg,0x80);			//清ValuesAfterColl所有接收的位在冲突后被清除
        ; Setup parameters for call to function ClearBitMask
        MOV     R2,#-0x80
        MOV     R1,#0xe
        LCALL   ??ClearBitMask?relay
//  368   
//  369   // WriteRawRC(BitFramingReg,0x07);	//	发送的最后一个字节的 七位
//  370   // SetBitMask(TxControlReg,0x03);	//TX1,TX2管脚的输出信号传递经发送调制的13.56的能量载波信号
//  371   
//  372   ucComMF522Buf[0] = 0x93;	//卡片防冲突命令
        MOV     A,#0x2
        LCALL   ?XSTACK_DISP0_8
        MOV     A,#-0x6d
        MOVX    @DPTR,A
//  373   ucComMF522Buf[1] = 0x20;
        MOV     A,#0x3
        LCALL   ?XSTACK_DISP0_8
        MOV     A,#0x20
        MOVX    @DPTR,A
//  374   
//  375   status = PcdComMF522(PCD_TRANSCEIVE,ucComMF522Buf,2,ucComMF522Buf,&unLen);//与卡片通信
        ; Setup parameters for call to function PcdComMF522
        MOV     DPL,?XSP + 0
        MOV     DPH,?XSP + 1
        MOV     ?V0 + 0,DPL
        MOV     ?V0 + 1,DPH
        MOV     R0,#?V0 + 0
        LCALL   ?PUSH_XSTACK_I_TWO
        CFI CFA_XSP16 add(XSP16, 35)
        MOV     A,#0x4
        LCALL   ?XSTACK_DISP0_8
        MOV     ?V0 + 0,DPL
        MOV     ?V0 + 1,DPH
        MOV     R0,#?V0 + 0
        LCALL   ?PUSH_XSTACK_I_TWO
        CFI CFA_XSP16 add(XSP16, 37)
        MOV     R4,#0x2
        MOV     A,#0x6
        LCALL   ?XSTACK_DISP0_8
        MOV     R2,DPL
        MOV     R3,DPH
        MOV     R1,#0xc
        LCALL   ??PcdComMF522?relay
        MOV     A,#0x4
        LCALL   ?DEALLOC_XSTACK8
        CFI CFA_XSP16 add(XSP16, 33)
        MOV     A,R1
        MOV     ?V0 + 2,A
//  376   if (status == MI_OK)		//通信成功
        MOV     A,#0x26
        XRL     A,?V0 + 2
        JNZ     ??PcdAnticoll_0
//  377   {
//  378     for (i=0; i<4; i++)
        MOV     ?V0 + 4,#0x0
??PcdAnticoll_1:
        MOV     A,?V0 + 4
        CLR     C
        SUBB    A,#0x4
        JNC     ??PcdAnticoll_2
//  379     {   
//  380       *(pSnr+i)  = ucComMF522Buf[i];			//读出UID
        MOV     ?V0 + 0,?V0 + 4
        MOV     ?V0 + 1,#0x0
        MOV     A,#0x2
        LCALL   ?XSTACK_DISP0_8
        MOV     A,DPL
        ADD     A,?V0 + 0
        MOV     DPL,A
        MOV     A,DPH
        ADDC    A,?V0 + 1
        MOV     DPH,A
        MOVX    A,@DPTR
        PUSH    A
        CFI CFA_SP SP+-1
        MOV     ?V0 + 0,?V0 + 4
        MOV     ?V0 + 1,#0x0
        MOV     A,R6
        ADD     A,?V0 + 0
        MOV     DPL,A
        MOV     A,R7
        ADDC    A,?V0 + 1
        MOV     DPH,A
        POP     A
        CFI CFA_SP SP+0
        MOVX    @DPTR,A
//  381       snr_check ^= ucComMF522Buf[i];
        MOV     ?V0 + 0,?V0 + 4
        MOV     ?V0 + 1,#0x0
        MOV     A,#0x2
        LCALL   ?XSTACK_DISP0_8
        MOV     A,DPL
        ADD     A,?V0 + 0
        MOV     DPL,A
        MOV     A,DPH
        ADDC    A,?V0 + 1
        MOV     DPH,A
        MOVX    A,@DPTR
        XRL     ?V0 + 3,A
//  382       
//  383     }
        INC     ?V0 + 4
        SJMP    ??PcdAnticoll_1
//  384     if (snr_check != ucComMF522Buf[i])
??PcdAnticoll_2:
        MOV     ?V0 + 0,?V0 + 4
        MOV     ?V0 + 1,#0x0
        MOV     A,#0x2
        LCALL   ?XSTACK_DISP0_8
        MOV     A,DPL
        ADD     A,?V0 + 0
        MOV     DPL,A
        MOV     A,DPH
        ADDC    A,?V0 + 1
        MOV     DPH,A
        MOVX    A,@DPTR
        XRL     A,?V0 + 3
        JZ      ??PcdAnticoll_0
//  385     {   status = MI_ERR;    }
        MOV     ?V0 + 2,#-0x45
//  386   }
//  387   
//  388   SetBitMask(CollReg,0x80);
??PcdAnticoll_0:
        ; Setup parameters for call to function SetBitMask
        MOV     R2,#-0x80
        MOV     R1,#0xe
        LCALL   ??SetBitMask?relay
//  389   return status;
        MOV     R1,?V0 + 2
        MOV     A,#0x14
        LCALL   ?DEALLOC_XSTACK8
        CFI CFA_XSP16 add(XSP16, 13)
        MOV     R7,#0x5
        LJMP    ?BANKED_LEAVE_XDATA
        CFI EndBlock cfiBlock13
//  390 }
//  391 /////////////////////////////////////////////////////////////////////
//  392 //用MF522计算CRC16函数
//  393 /////////////////////////////////////////////////////////////////////

        RSEG BANKED_CODE:CODE:NOROOT(0)
//  394 void CalulateCRC(unsigned char *pIndata,unsigned char len,unsigned char *pOutData)
CalulateCRC:
        CFI Block cfiBlock14 Using cfiCommon0
        CFI Function CalulateCRC
        CODE
//  395 {
        FUNCALL CalulateCRC, ClearBitMask
        LOCFRAME ISTACK, 0, STACK
        LOCFRAME PSTACK, 0, STACK
        LOCFRAME XSTACK, 15, STACK
        LOCFRAME IOVERLAY, 0, STATIC
        LOCFRAME DOVERLAY, 0, STATIC
        ARGFRAME ISTACK, 0, STACK
        ARGFRAME PSTACK, 0, STACK
        ARGFRAME XSTACK, 15, STACK
        ARGFRAME IOVERLAY, 0, STATIC
        ARGFRAME DOVERLAY, 0, STATIC
        FUNCALL CalulateCRC, WriteRawRC
        LOCFRAME ISTACK, 0, STACK
        LOCFRAME PSTACK, 0, STACK
        LOCFRAME XSTACK, 15, STACK
        LOCFRAME IOVERLAY, 0, STATIC
        LOCFRAME DOVERLAY, 0, STATIC
        ARGFRAME ISTACK, 0, STACK
        ARGFRAME PSTACK, 0, STACK
        ARGFRAME XSTACK, 15, STACK
        ARGFRAME IOVERLAY, 0, STATIC
        ARGFRAME DOVERLAY, 0, STATIC
        FUNCALL CalulateCRC, SetBitMask
        LOCFRAME ISTACK, 0, STACK
        LOCFRAME PSTACK, 0, STACK
        LOCFRAME XSTACK, 15, STACK
        LOCFRAME IOVERLAY, 0, STATIC
        LOCFRAME DOVERLAY, 0, STATIC
        ARGFRAME ISTACK, 0, STACK
        ARGFRAME PSTACK, 0, STACK
        ARGFRAME XSTACK, 15, STACK
        ARGFRAME IOVERLAY, 0, STATIC
        ARGFRAME DOVERLAY, 0, STATIC
        FUNCALL CalulateCRC, WriteRawRC
        LOCFRAME ISTACK, 0, STACK
        LOCFRAME PSTACK, 0, STACK
        LOCFRAME XSTACK, 15, STACK
        LOCFRAME IOVERLAY, 0, STATIC
        LOCFRAME DOVERLAY, 0, STATIC
        ARGFRAME ISTACK, 0, STACK
        ARGFRAME PSTACK, 0, STACK
        ARGFRAME XSTACK, 15, STACK
        ARGFRAME IOVERLAY, 0, STATIC
        ARGFRAME DOVERLAY, 0, STATIC
        FUNCALL CalulateCRC, WriteRawRC
        LOCFRAME ISTACK, 0, STACK
        LOCFRAME PSTACK, 0, STACK
        LOCFRAME XSTACK, 15, STACK
        LOCFRAME IOVERLAY, 0, STATIC
        LOCFRAME DOVERLAY, 0, STATIC
        ARGFRAME ISTACK, 0, STACK
        ARGFRAME PSTACK, 0, STACK
        ARGFRAME XSTACK, 15, STACK
        ARGFRAME IOVERLAY, 0, STATIC
        ARGFRAME DOVERLAY, 0, STATIC
        FUNCALL CalulateCRC, ReadRawRC
        LOCFRAME ISTACK, 0, STACK
        LOCFRAME PSTACK, 0, STACK
        LOCFRAME XSTACK, 15, STACK
        LOCFRAME IOVERLAY, 0, STATIC
        LOCFRAME DOVERLAY, 0, STATIC
        ARGFRAME ISTACK, 0, STACK
        ARGFRAME PSTACK, 0, STACK
        ARGFRAME XSTACK, 15, STACK
        ARGFRAME IOVERLAY, 0, STATIC
        ARGFRAME DOVERLAY, 0, STATIC
        FUNCALL CalulateCRC, ReadRawRC
        LOCFRAME ISTACK, 0, STACK
        LOCFRAME PSTACK, 0, STACK
        LOCFRAME XSTACK, 15, STACK
        LOCFRAME IOVERLAY, 0, STATIC
        LOCFRAME DOVERLAY, 0, STATIC
        ARGFRAME ISTACK, 0, STACK
        ARGFRAME PSTACK, 0, STACK
        ARGFRAME XSTACK, 15, STACK
        ARGFRAME IOVERLAY, 0, STATIC
        ARGFRAME DOVERLAY, 0, STATIC
        FUNCALL CalulateCRC, ReadRawRC
        LOCFRAME ISTACK, 0, STACK
        LOCFRAME PSTACK, 0, STACK
        LOCFRAME XSTACK, 15, STACK
        LOCFRAME IOVERLAY, 0, STATIC
        LOCFRAME DOVERLAY, 0, STATIC
        ARGFRAME ISTACK, 0, STACK
        ARGFRAME PSTACK, 0, STACK
        ARGFRAME XSTACK, 15, STACK
        ARGFRAME IOVERLAY, 0, STATIC
        ARGFRAME DOVERLAY, 0, STATIC
        MOV     A,#-0xf
        LCALL   ?BANKED_ENTER_XDATA
        CFI DPH0 load(1, XDATA, add(CFA_XSP16, literal(-1)))
        CFI DPL0 load(1, XDATA, add(CFA_XSP16, literal(-2)))
        CFI ?BRET_EXT load(1, XDATA, add(CFA_XSP16, literal(-3)))
        CFI ?RET_HIGH load(1, XDATA, add(CFA_XSP16, literal(-4)))
        CFI ?RET_LOW load(1, XDATA, add(CFA_XSP16, literal(-5)))
        CFI R7 load(1, XDATA, add(CFA_XSP16, literal(-6)))
        CFI V6 load(1, XDATA, add(CFA_XSP16, literal(-7)))
        CFI V5 load(1, XDATA, add(CFA_XSP16, literal(-8)))
        CFI V4 load(1, XDATA, add(CFA_XSP16, literal(-9)))
        CFI V3 load(1, XDATA, add(CFA_XSP16, literal(-10)))
        CFI V2 load(1, XDATA, add(CFA_XSP16, literal(-11)))
        CFI V1 load(1, XDATA, add(CFA_XSP16, literal(-12)))
        CFI V0 load(1, XDATA, add(CFA_XSP16, literal(-13)))
        CFI VB load(1, XDATA, add(CFA_XSP16, literal(-14)))
        CFI R6 load(1, XDATA, add(CFA_XSP16, literal(-15)))
        CFI CFA_SP SP+0
        CFI CFA_XSP16 add(XSP16, 15)
        ; Saved register size: 15
        ; Auto size: 0
        MOV     A,R2
        MOV     R6,A
        MOV     A,R3
        MOV     R7,A
        MOV     ?V0 + 5,R1
        MOV     ?V0 + 0,R4
        MOV     ?V0 + 1,R5
//  396   unsigned char i,n;
//  397   ClearBitMask(DivIrqReg,0x04);
        ; Setup parameters for call to function ClearBitMask
        MOV     R2,#0x4
        MOV     R1,#0x5
        LCALL   ??ClearBitMask?relay
//  398   WriteRawRC(CommandReg,PCD_IDLE);
        ; Setup parameters for call to function WriteRawRC
        MOV     R2,#0x0
        MOV     R1,#0x1
        LCALL   ??WriteRawRC?relay
//  399   SetBitMask(FIFOLevelReg,0x80);
        ; Setup parameters for call to function SetBitMask
        MOV     R2,#-0x80
        MOV     R1,#0xa
        LCALL   ??SetBitMask?relay
//  400   for (i=0; i<len; i++)
        MOV     ?V0 + 4,#0x0
??CalulateCRC_0:
        MOV     A,?V0 + 4
        CLR     C
        SUBB    A,?V0 + 5
        JNC     ??CalulateCRC_1
//  401   {   WriteRawRC(FIFODataReg, *(pIndata+i));   }
        ; Setup parameters for call to function WriteRawRC
        MOV     ?V0 + 2,?V0 + 4
        MOV     ?V0 + 3,#0x0
        MOV     A,R6
        ADD     A,?V0 + 2
        MOV     DPL,A
        MOV     A,R7
        ADDC    A,?V0 + 3
        MOV     DPH,A
        MOVX    A,@DPTR
        MOV     R2,A
        MOV     R1,#0x9
        LCALL   ??WriteRawRC?relay
        INC     ?V0 + 4
        SJMP    ??CalulateCRC_0
//  402   WriteRawRC(CommandReg, PCD_CALCCRC);
??CalulateCRC_1:
        ; Setup parameters for call to function WriteRawRC
        MOV     R2,#0x3
        MOV     R1,#0x1
        LCALL   ??WriteRawRC?relay
//  403   i = 0xFF;
        MOV     ?V0 + 4,#-0x1
//  404   do 
//  405   {
//  406     n = ReadRawRC(DivIrqReg);
??CalulateCRC_2:
        ; Setup parameters for call to function ReadRawRC
        MOV     R1,#0x5
        LCALL   ??ReadRawRC?relay
        MOV     A,R1
        MOV     ?V0 + 6,A
//  407     i--;
        DEC     ?V0 + 4
//  408   }
//  409   while ((i!=0) && !(n&0x04));
        MOV     A,?V0 + 4
        JZ      ??CalulateCRC_3
        MOV     A,?V0 + 6
        MOV     C,0xE0 /* A   */.2
        JNC     ??CalulateCRC_2
//  410   pOutData[0] = ReadRawRC(CRCResultRegL);
??CalulateCRC_3:
        ; Setup parameters for call to function ReadRawRC
        MOV     R1,#0x22
        LCALL   ??ReadRawRC?relay
        MOV     A,R1
        MOV     DPL,?V0 + 0
        MOV     DPH,?V0 + 1
        MOVX    @DPTR,A
//  411   pOutData[1] = ReadRawRC(CRCResultRegM);
        ; Setup parameters for call to function ReadRawRC
        MOV     R1,#0x21
        LCALL   ??ReadRawRC?relay
        MOV     A,R1
        MOV     DPL,?V0 + 0
        MOV     DPH,?V0 + 1
        INC     DPTR
        MOVX    @DPTR,A
//  412 }
        MOV     R7,#0x7
        LJMP    ?BANKED_LEAVE_XDATA
        CFI EndBlock cfiBlock14
//  413 /////////////////////////////////////////////////////////////////////
//  414 //功    能：选定卡片
//  415 //参数说明: pSnr[IN]:卡片序列号，4字节
//  416 //返    回: 成功返回MI_OK
//  417 /////////////////////////////////////////////////////////////////////

        RSEG BANKED_CODE:CODE:NOROOT(0)
//  418 char PcdSelect(unsigned char *pSnr)
PcdSelect:
        CFI Block cfiBlock15 Using cfiCommon0
        CFI Function PcdSelect
        CODE
//  419 {
        FUNCALL PcdSelect, CalulateCRC
        LOCFRAME ISTACK, 0, STACK
        LOCFRAME PSTACK, 0, STACK
        LOCFRAME XSTACK, 32, STACK
        LOCFRAME IOVERLAY, 0, STATIC
        LOCFRAME DOVERLAY, 0, STATIC
        ARGFRAME ISTACK, 0, STACK
        ARGFRAME PSTACK, 0, STACK
        ARGFRAME XSTACK, 32, STACK
        ARGFRAME IOVERLAY, 0, STATIC
        ARGFRAME DOVERLAY, 0, STATIC
        FUNCALL PcdSelect, ClearBitMask
        LOCFRAME ISTACK, 0, STACK
        LOCFRAME PSTACK, 0, STACK
        LOCFRAME XSTACK, 32, STACK
        LOCFRAME IOVERLAY, 0, STATIC
        LOCFRAME DOVERLAY, 0, STATIC
        ARGFRAME ISTACK, 0, STACK
        ARGFRAME PSTACK, 0, STACK
        ARGFRAME XSTACK, 32, STACK
        ARGFRAME IOVERLAY, 0, STATIC
        ARGFRAME DOVERLAY, 0, STATIC
        FUNCALL PcdSelect, PcdComMF522
        LOCFRAME ISTACK, 0, STACK
        LOCFRAME PSTACK, 0, STACK
        LOCFRAME XSTACK, 36, STACK
        LOCFRAME IOVERLAY, 0, STATIC
        LOCFRAME DOVERLAY, 0, STATIC
        ARGFRAME ISTACK, 0, STACK
        ARGFRAME PSTACK, 0, STACK
        ARGFRAME XSTACK, 36, STACK
        ARGFRAME IOVERLAY, 0, STATIC
        ARGFRAME DOVERLAY, 0, STATIC
        MOV     A,#-0xc
        LCALL   ?BANKED_ENTER_XDATA
        CFI DPH0 load(1, XDATA, add(CFA_XSP16, literal(-1)))
        CFI DPL0 load(1, XDATA, add(CFA_XSP16, literal(-2)))
        CFI ?BRET_EXT load(1, XDATA, add(CFA_XSP16, literal(-3)))
        CFI ?RET_HIGH load(1, XDATA, add(CFA_XSP16, literal(-4)))
        CFI ?RET_LOW load(1, XDATA, add(CFA_XSP16, literal(-5)))
        CFI R7 load(1, XDATA, add(CFA_XSP16, literal(-6)))
        CFI V3 load(1, XDATA, add(CFA_XSP16, literal(-7)))
        CFI V2 load(1, XDATA, add(CFA_XSP16, literal(-8)))
        CFI V1 load(1, XDATA, add(CFA_XSP16, literal(-9)))
        CFI V0 load(1, XDATA, add(CFA_XSP16, literal(-10)))
        CFI VB load(1, XDATA, add(CFA_XSP16, literal(-11)))
        CFI R6 load(1, XDATA, add(CFA_XSP16, literal(-12)))
        CFI CFA_SP SP+0
        CFI CFA_XSP16 add(XSP16, 12)
        ; Saved register size: 12
        ; Auto size: 20
        MOV     A,#-0x14
        LCALL   ?ALLOC_XSTACK8
        CFI CFA_XSP16 add(XSP16, 32)
        MOV     A,R2
        MOV     R6,A
        MOV     A,R3
        MOV     R7,A
//  420   char status;
//  421   unsigned char i;
//  422   unsigned int  unLen;
//  423   unsigned char ucComMF522Buf[MAXRLEN]; 
//  424   
//  425   ucComMF522Buf[0] = PICC_ANTICOLL1;
        MOV     A,#0x2
        LCALL   ?XSTACK_DISP0_8
        MOV     A,#-0x6d
        MOVX    @DPTR,A
//  426   ucComMF522Buf[1] = 0x70;
        MOV     A,#0x3
        LCALL   ?XSTACK_DISP0_8
        MOV     A,#0x70
        MOVX    @DPTR,A
//  427   ucComMF522Buf[6] = 0;
        MOV     A,#0x8
        LCALL   ?XSTACK_DISP0_8
        MOV     A,#0x0
        MOVX    @DPTR,A
//  428   for (i=0; i<4; i++)
        MOV     ?V0 + 3,#0x0
??PcdSelect_0:
        MOV     A,?V0 + 3
        CLR     C
        SUBB    A,#0x4
        JNC     ??PcdSelect_1
//  429   {
//  430     ucComMF522Buf[i+2] = *(pSnr+i);
        MOV     ?V0 + 0,?V0 + 3
        MOV     ?V0 + 1,#0x0
        MOV     A,R6
        ADD     A,?V0 + 0
        MOV     DPL,A
        MOV     A,R7
        ADDC    A,?V0 + 1
        MOV     DPH,A
        MOVX    A,@DPTR
        PUSH    A
        CFI CFA_SP SP+-1
        MOV     ?V0 + 0,?V0 + 3
        MOV     ?V0 + 1,#0x0
        MOV     A,#0x2
        LCALL   ?XSTACK_DISP0_8
        MOV     A,DPL
        ADD     A,?V0 + 0
        MOV     DPL,A
        MOV     A,DPH
        ADDC    A,?V0 + 1
        MOV     DPH,A
        INC     DPTR
        INC     DPTR
        POP     A
        CFI CFA_SP SP+0
        MOVX    @DPTR,A
//  431     ucComMF522Buf[6]  ^= *(pSnr+i);
        MOV     ?V0 + 0,?V0 + 3
        MOV     ?V0 + 1,#0x0
        MOV     A,R6
        ADD     A,?V0 + 0
        MOV     DPL,A
        MOV     A,R7
        ADDC    A,?V0 + 1
        MOV     DPH,A
        MOVX    A,@DPTR
        MOV     R0,A
        MOV     A,#0x8
        LCALL   ?XSTACK_DISP0_8
        MOVX    A,@DPTR
        XRL     A,R0
        MOVX    @DPTR,A
//  432   }
        INC     ?V0 + 3
        SJMP    ??PcdSelect_0
//  433   CalulateCRC(ucComMF522Buf,7,&ucComMF522Buf[7]);
??PcdSelect_1:
        ; Setup parameters for call to function CalulateCRC
        MOV     A,#0x9
        LCALL   ?XSTACK_DISP0_8
        MOV     R4,DPL
        MOV     R5,DPH
        MOV     R1,#0x7
        MOV     A,#0x2
        LCALL   ?XSTACK_DISP0_8
        MOV     R2,DPL
        MOV     R3,DPH
        LCALL   ??CalulateCRC?relay
//  434   
//  435   ClearBitMask(Status2Reg,0x08);
        ; Setup parameters for call to function ClearBitMask
        MOV     R2,#0x8
        MOV     R1,#0x8
        LCALL   ??ClearBitMask?relay
//  436   
//  437   status = PcdComMF522(PCD_TRANSCEIVE,ucComMF522Buf,9,ucComMF522Buf,&unLen);
        ; Setup parameters for call to function PcdComMF522
        MOV     DPL,?XSP + 0
        MOV     DPH,?XSP + 1
        MOV     ?V0 + 0,DPL
        MOV     ?V0 + 1,DPH
        MOV     R0,#?V0 + 0
        LCALL   ?PUSH_XSTACK_I_TWO
        CFI CFA_XSP16 add(XSP16, 34)
        MOV     A,#0x4
        LCALL   ?XSTACK_DISP0_8
        MOV     ?V0 + 0,DPL
        MOV     ?V0 + 1,DPH
        MOV     R0,#?V0 + 0
        LCALL   ?PUSH_XSTACK_I_TWO
        CFI CFA_XSP16 add(XSP16, 36)
        MOV     R4,#0x9
        MOV     A,#0x6
        LCALL   ?XSTACK_DISP0_8
        MOV     R2,DPL
        MOV     R3,DPH
        MOV     R1,#0xc
        LCALL   ??PcdComMF522?relay
        MOV     A,#0x4
        LCALL   ?DEALLOC_XSTACK8
        CFI CFA_XSP16 add(XSP16, 32)
        MOV     A,R1
        MOV     ?V0 + 2,A
//  438   
//  439   if ((status == MI_OK) && (unLen == 0x18))
        MOV     A,#0x26
        XRL     A,?V0 + 2
        JNZ     ??PcdSelect_2
        MOV     DPL,?XSP + 0
        MOV     DPH,?XSP + 1
        MOVX    A,@DPTR
        XRL     A,#0x18
        JNZ     ??PcdSelect_3
        INC     DPTR
        MOVX    A,@DPTR
        XRL     A,#0x0
??PcdSelect_3:
        JNZ     ??PcdSelect_2
//  440   {   status = MI_OK;  }
        MOV     ?V0 + 2,#0x26
        SJMP    ??PcdSelect_4
//  441   else
//  442   {   status = MI_ERR;    }
??PcdSelect_2:
        MOV     ?V0 + 2,#-0x45
//  443   
//  444   return status;
??PcdSelect_4:
        MOV     R1,?V0 + 2
        MOV     A,#0x14
        LCALL   ?DEALLOC_XSTACK8
        CFI CFA_XSP16 add(XSP16, 12)
        MOV     R7,#0x4
        LJMP    ?BANKED_LEAVE_XDATA
        CFI EndBlock cfiBlock15
//  445 }
//  446 
//  447 /////////////////////////////////////////////////////////////////////
//  448 //功    能：验证卡片密码
//  449 //参数说明: auth_mode[IN]: 密码验证模式
//  450 //                 0x60 = 验证A密钥
//  451 //                 0x61 = 验证B密钥 
//  452 //          addr[IN]：块地址
//  453 //          pKey[IN]：密码
//  454 //          pSnr[IN]：卡片序列号，4字节
//  455 //返    回: 成功返回MI_OK
//  456 /////////////////////////////////////////////////////////////////////               

        RSEG BANKED_CODE:CODE:NOROOT(0)
//  457 char PcdAuthState(unsigned char auth_mode,unsigned char addr,unsigned char *pKey,unsigned char *pSnr)
PcdAuthState:
        CFI Block cfiBlock16 Using cfiCommon0
        CFI Function PcdAuthState
        CODE
//  458 {
        FUNCALL PcdAuthState, PcdComMF522
        LOCFRAME ISTACK, 0, STACK
        LOCFRAME PSTACK, 0, STACK
        LOCFRAME XSTACK, 40, STACK
        LOCFRAME IOVERLAY, 0, STATIC
        LOCFRAME DOVERLAY, 0, STATIC
        ARGFRAME ISTACK, 0, STACK
        ARGFRAME PSTACK, 0, STACK
        ARGFRAME XSTACK, 40, STACK
        ARGFRAME IOVERLAY, 0, STATIC
        ARGFRAME DOVERLAY, 0, STATIC
        FUNCALL PcdAuthState, ReadRawRC
        LOCFRAME ISTACK, 0, STACK
        LOCFRAME PSTACK, 0, STACK
        LOCFRAME XSTACK, 36, STACK
        LOCFRAME IOVERLAY, 0, STATIC
        LOCFRAME DOVERLAY, 0, STATIC
        ARGFRAME ISTACK, 0, STACK
        ARGFRAME PSTACK, 0, STACK
        ARGFRAME XSTACK, 36, STACK
        ARGFRAME IOVERLAY, 0, STATIC
        ARGFRAME DOVERLAY, 0, STATIC
        MOV     A,#-0x10
        LCALL   ?BANKED_ENTER_XDATA
        CFI DPH0 load(1, XDATA, add(CFA_XSP16, literal(-1)))
        CFI DPL0 load(1, XDATA, add(CFA_XSP16, literal(-2)))
        CFI ?BRET_EXT load(1, XDATA, add(CFA_XSP16, literal(-3)))
        CFI ?RET_HIGH load(1, XDATA, add(CFA_XSP16, literal(-4)))
        CFI ?RET_LOW load(1, XDATA, add(CFA_XSP16, literal(-5)))
        CFI R7 load(1, XDATA, add(CFA_XSP16, literal(-6)))
        CFI V7 load(1, XDATA, add(CFA_XSP16, literal(-7)))
        CFI V6 load(1, XDATA, add(CFA_XSP16, literal(-8)))
        CFI V5 load(1, XDATA, add(CFA_XSP16, literal(-9)))
        CFI V4 load(1, XDATA, add(CFA_XSP16, literal(-10)))
        CFI V3 load(1, XDATA, add(CFA_XSP16, literal(-11)))
        CFI V2 load(1, XDATA, add(CFA_XSP16, literal(-12)))
        CFI V1 load(1, XDATA, add(CFA_XSP16, literal(-13)))
        CFI V0 load(1, XDATA, add(CFA_XSP16, literal(-14)))
        CFI VB load(1, XDATA, add(CFA_XSP16, literal(-15)))
        CFI R6 load(1, XDATA, add(CFA_XSP16, literal(-16)))
        CFI CFA_SP SP+0
        CFI CFA_XSP16 add(XSP16, 16)
        ; Saved register size: 16
        ; Auto size: 20
        MOV     A,#-0x14
        LCALL   ?ALLOC_XSTACK8
        CFI CFA_XSP16 add(XSP16, 36)
        MOV     ?V0 + 2,R1
        MOV     ?V0 + 3,R2
        MOV     A,R4
        MOV     R6,A
        MOV     A,R5
        MOV     R7,A
        MOV     A,#0x24
        LCALL   ?XSTACK_DISP0_8
        MOVX    A,@DPTR
        MOV     R0,A
        INC     DPTR
        MOVX    A,@DPTR
        MOV     R1,A
        MOV     ?V0 + 0,R0
        MOV     ?V0 + 1,R1
//  459   char status;
//  460   unsigned int  unLen;
//  461   unsigned char i,ucComMF522Buf[MAXRLEN]; 
//  462   
//  463   ucComMF522Buf[0] = auth_mode;
        MOV     A,?V0 + 2
        MOV     A,#0x2
        LCALL   ?XSTACK_DISP0_8
        MOV     A,?V0 + 2
        MOVX    @DPTR,A
//  464   ucComMF522Buf[1] = addr;
        MOV     A,?V0 + 3
        MOV     A,#0x3
        LCALL   ?XSTACK_DISP0_8
        MOV     A,?V0 + 3
        MOVX    @DPTR,A
//  465   for (i=0; i<6; i++)
        MOV     ?V0 + 7,#0x0
??PcdAuthState_0:
        MOV     A,?V0 + 7
        CLR     C
        SUBB    A,#0x6
        JNC     ??PcdAuthState_1
//  466   {    ucComMF522Buf[i+2] = *(pKey+i);   }
        MOV     ?V0 + 4,?V0 + 7
        MOV     ?V0 + 5,#0x0
        MOV     A,R6
        ADD     A,?V0 + 4
        MOV     DPL,A
        MOV     A,R7
        ADDC    A,?V0 + 5
        MOV     DPH,A
        MOVX    A,@DPTR
        PUSH    A
        CFI CFA_SP SP+-1
        MOV     ?V0 + 4,?V0 + 7
        MOV     ?V0 + 5,#0x0
        MOV     A,#0x2
        LCALL   ?XSTACK_DISP0_8
        MOV     A,DPL
        ADD     A,?V0 + 4
        MOV     DPL,A
        MOV     A,DPH
        ADDC    A,?V0 + 5
        MOV     DPH,A
        INC     DPTR
        INC     DPTR
        POP     A
        CFI CFA_SP SP+0
        MOVX    @DPTR,A
        INC     ?V0 + 7
        SJMP    ??PcdAuthState_0
//  467   for (i=0; i<6; i++)
??PcdAuthState_1:
        MOV     ?V0 + 7,#0x0
??PcdAuthState_2:
        MOV     A,?V0 + 7
        CLR     C
        SUBB    A,#0x6
        JNC     ??PcdAuthState_3
//  468   {    ucComMF522Buf[i+8] = *(pSnr+i);   }
        MOV     ?V0 + 4,?V0 + 7
        MOV     ?V0 + 5,#0x0
        MOV     A,?V0 + 0
        ADD     A,?V0 + 4
        MOV     DPL,A
        MOV     A,?V0 + 1
        ADDC    A,?V0 + 5
        MOV     DPH,A
        MOVX    A,@DPTR
        PUSH    A
        CFI CFA_SP SP+-1
        MOV     ?V0 + 4,?V0 + 7
        MOV     ?V0 + 5,#0x0
        MOV     A,#0x2
        LCALL   ?XSTACK_DISP0_8
        MOV     A,DPL
        ADD     A,?V0 + 4
        MOV     DPL,A
        MOV     A,DPH
        ADDC    A,?V0 + 5
        MOV     DPH,A
        INC     DPTR
        INC     DPTR
        INC     DPTR
        INC     DPTR
        INC     DPTR
        INC     DPTR
        INC     DPTR
        INC     DPTR
        POP     A
        CFI CFA_SP SP+0
        MOVX    @DPTR,A
        INC     ?V0 + 7
        SJMP    ??PcdAuthState_2
//  469   //   memcpy(&ucComMF522Buf[2], pKey, 6); 
//  470   //   memcpy(&ucComMF522Buf[8], pSnr, 4); 
//  471   
//  472   status = PcdComMF522(PCD_AUTHENT,ucComMF522Buf,12,ucComMF522Buf,&unLen);
??PcdAuthState_3:
        ; Setup parameters for call to function PcdComMF522
        MOV     DPL,?XSP + 0
        MOV     DPH,?XSP + 1
        MOV     ?V0 + 4,DPL
        MOV     ?V0 + 5,DPH
        MOV     R0,#?V0 + 4
        LCALL   ?PUSH_XSTACK_I_TWO
        CFI CFA_XSP16 add(XSP16, 38)
        MOV     A,#0x4
        LCALL   ?XSTACK_DISP0_8
        MOV     ?V0 + 4,DPL
        MOV     ?V0 + 5,DPH
        MOV     R0,#?V0 + 4
        LCALL   ?PUSH_XSTACK_I_TWO
        CFI CFA_XSP16 add(XSP16, 40)
        MOV     R4,#0xc
        MOV     A,#0x6
        LCALL   ?XSTACK_DISP0_8
        MOV     R2,DPL
        MOV     R3,DPH
        MOV     R1,#0xe
        LCALL   ??PcdComMF522?relay
        MOV     A,#0x4
        LCALL   ?DEALLOC_XSTACK8
        CFI CFA_XSP16 add(XSP16, 36)
        MOV     A,R1
        MOV     ?V0 + 6,A
//  473   if ((status != MI_OK) || (!(ReadRawRC(Status2Reg) & 0x08)))
        MOV     A,#0x26
        XRL     A,?V0 + 6
        JNZ     ??PcdAuthState_4
        ; Setup parameters for call to function ReadRawRC
        MOV     R1,#0x8
        LCALL   ??ReadRawRC?relay
        MOV     A,R1
        MOV     R0,A
        MOV     C,0xE0 /* A   */.3
        JC      ??PcdAuthState_5
//  474   {   status = MI_ERR;   }
??PcdAuthState_4:
        MOV     ?V0 + 6,#-0x45
//  475   
//  476   return status;
??PcdAuthState_5:
        MOV     R1,?V0 + 6
        MOV     A,#0x14
        LCALL   ?DEALLOC_XSTACK8
        CFI CFA_XSP16 add(XSP16, 16)
        MOV     R7,#0x8
        LJMP    ?BANKED_LEAVE_XDATA
        CFI EndBlock cfiBlock16
//  477 }
//  478 
//  479 /////////////////////////////////////////////////////////////////////
//  480 //功    能：写数据到M1卡一块
//  481 //参数说明: addr[IN]：块地址
//  482 //          pData[IN]：写入的数据，16字节
//  483 //返    回: 成功返回MI_OK
//  484 /////////////////////////////////////////////////////////////////////                  

        RSEG BANKED_CODE:CODE:NOROOT(0)
//  485 char PcdWrite(unsigned char addr,unsigned char *pData)
PcdWrite:
        CFI Block cfiBlock17 Using cfiCommon0
        CFI Function PcdWrite
        CODE
//  486 {
        FUNCALL PcdWrite, CalulateCRC
        LOCFRAME ISTACK, 0, STACK
        LOCFRAME PSTACK, 0, STACK
        LOCFRAME XSTACK, 34, STACK
        LOCFRAME IOVERLAY, 0, STATIC
        LOCFRAME DOVERLAY, 0, STATIC
        ARGFRAME ISTACK, 0, STACK
        ARGFRAME PSTACK, 0, STACK
        ARGFRAME XSTACK, 34, STACK
        ARGFRAME IOVERLAY, 0, STATIC
        ARGFRAME DOVERLAY, 0, STATIC
        FUNCALL PcdWrite, PcdComMF522
        LOCFRAME ISTACK, 0, STACK
        LOCFRAME PSTACK, 0, STACK
        LOCFRAME XSTACK, 38, STACK
        LOCFRAME IOVERLAY, 0, STATIC
        LOCFRAME DOVERLAY, 0, STATIC
        ARGFRAME ISTACK, 0, STACK
        ARGFRAME PSTACK, 0, STACK
        ARGFRAME XSTACK, 38, STACK
        ARGFRAME IOVERLAY, 0, STATIC
        ARGFRAME DOVERLAY, 0, STATIC
        FUNCALL PcdWrite, CalulateCRC
        LOCFRAME ISTACK, 0, STACK
        LOCFRAME PSTACK, 0, STACK
        LOCFRAME XSTACK, 34, STACK
        LOCFRAME IOVERLAY, 0, STATIC
        LOCFRAME DOVERLAY, 0, STATIC
        ARGFRAME ISTACK, 0, STACK
        ARGFRAME PSTACK, 0, STACK
        ARGFRAME XSTACK, 34, STACK
        ARGFRAME IOVERLAY, 0, STATIC
        ARGFRAME DOVERLAY, 0, STATIC
        FUNCALL PcdWrite, PcdComMF522
        LOCFRAME ISTACK, 0, STACK
        LOCFRAME PSTACK, 0, STACK
        LOCFRAME XSTACK, 38, STACK
        LOCFRAME IOVERLAY, 0, STATIC
        LOCFRAME DOVERLAY, 0, STATIC
        ARGFRAME ISTACK, 0, STACK
        ARGFRAME PSTACK, 0, STACK
        ARGFRAME XSTACK, 38, STACK
        ARGFRAME IOVERLAY, 0, STATIC
        ARGFRAME DOVERLAY, 0, STATIC
        MOV     A,#-0xe
        LCALL   ?BANKED_ENTER_XDATA
        CFI DPH0 load(1, XDATA, add(CFA_XSP16, literal(-1)))
        CFI DPL0 load(1, XDATA, add(CFA_XSP16, literal(-2)))
        CFI ?BRET_EXT load(1, XDATA, add(CFA_XSP16, literal(-3)))
        CFI ?RET_HIGH load(1, XDATA, add(CFA_XSP16, literal(-4)))
        CFI ?RET_LOW load(1, XDATA, add(CFA_XSP16, literal(-5)))
        CFI R7 load(1, XDATA, add(CFA_XSP16, literal(-6)))
        CFI V5 load(1, XDATA, add(CFA_XSP16, literal(-7)))
        CFI V4 load(1, XDATA, add(CFA_XSP16, literal(-8)))
        CFI V3 load(1, XDATA, add(CFA_XSP16, literal(-9)))
        CFI V2 load(1, XDATA, add(CFA_XSP16, literal(-10)))
        CFI V1 load(1, XDATA, add(CFA_XSP16, literal(-11)))
        CFI V0 load(1, XDATA, add(CFA_XSP16, literal(-12)))
        CFI VB load(1, XDATA, add(CFA_XSP16, literal(-13)))
        CFI R6 load(1, XDATA, add(CFA_XSP16, literal(-14)))
        CFI CFA_SP SP+0
        CFI CFA_XSP16 add(XSP16, 14)
        ; Saved register size: 14
        ; Auto size: 20
        MOV     A,#-0x14
        LCALL   ?ALLOC_XSTACK8
        CFI CFA_XSP16 add(XSP16, 34)
        MOV     ?V0 + 0,R1
        MOV     ?V0 + 2,R2
        MOV     ?V0 + 3,R3
//  487   char status;
//  488   unsigned int  unLen;
//  489   unsigned char i,ucComMF522Buf[MAXRLEN]; 
//  490   
//  491   ucComMF522Buf[0] = PICC_WRITE;
        MOV     A,#0x2
        LCALL   ?XSTACK_DISP0_8
        MOV     A,#-0x60
        MOVX    @DPTR,A
//  492   ucComMF522Buf[1] = addr;
        MOV     A,?V0 + 0
        MOV     A,#0x3
        LCALL   ?XSTACK_DISP0_8
        MOV     A,?V0 + 0
        MOVX    @DPTR,A
//  493   CalulateCRC(ucComMF522Buf,2,&ucComMF522Buf[2]);
        ; Setup parameters for call to function CalulateCRC
        MOV     A,#0x4
        LCALL   ?XSTACK_DISP0_8
        MOV     R4,DPL
        MOV     R5,DPH
        MOV     R1,#0x2
        MOV     A,#0x2
        LCALL   ?XSTACK_DISP0_8
        MOV     R2,DPL
        MOV     R3,DPH
        LCALL   ??CalulateCRC?relay
//  494   
//  495   status = PcdComMF522(PCD_TRANSCEIVE,ucComMF522Buf,4,ucComMF522Buf,&unLen);
        ; Setup parameters for call to function PcdComMF522
        MOV     DPL,?XSP + 0
        MOV     DPH,?XSP + 1
        MOV     ?V0 + 4,DPL
        MOV     ?V0 + 5,DPH
        MOV     R0,#?V0 + 4
        LCALL   ?PUSH_XSTACK_I_TWO
        CFI CFA_XSP16 add(XSP16, 36)
        MOV     A,#0x4
        LCALL   ?XSTACK_DISP0_8
        MOV     ?V0 + 4,DPL
        MOV     ?V0 + 5,DPH
        MOV     R0,#?V0 + 4
        LCALL   ?PUSH_XSTACK_I_TWO
        CFI CFA_XSP16 add(XSP16, 38)
        MOV     R4,#0x4
        MOV     A,#0x6
        LCALL   ?XSTACK_DISP0_8
        MOV     R2,DPL
        MOV     R3,DPH
        MOV     R1,#0xc
        LCALL   ??PcdComMF522?relay
        MOV     A,#0x4
        LCALL   ?DEALLOC_XSTACK8
        CFI CFA_XSP16 add(XSP16, 34)
        MOV     A,R1
        MOV     R6,A
//  496   
//  497   if ((status != MI_OK) || (unLen != 4) || ((ucComMF522Buf[0] & 0x0F) != 0x0A))
        MOV     A,#0x26
        XRL     A,R6
        JNZ     ??PcdWrite_0
        MOV     DPL,?XSP + 0
        MOV     DPH,?XSP + 1
        MOVX    A,@DPTR
        XRL     A,#0x4
        JNZ     ??PcdWrite_1
        INC     DPTR
        MOVX    A,@DPTR
        XRL     A,#0x0
??PcdWrite_1:
        JNZ     ??PcdWrite_0
        MOV     A,#0x2
        LCALL   ?XSTACK_DISP0_8
        MOVX    A,@DPTR
        ANL     A,#0xf
        XRL     A,#0xa
        JZ      ??PcdWrite_2
//  498   {   status = MI_ERR;   }
??PcdWrite_0:
        MOV     R6,#-0x45
//  499   
//  500   if (status == MI_OK)
??PcdWrite_2:
        MOV     A,#0x26
        XRL     A,R6
        JZ      $+5
        LJMP    ??PcdWrite_3 & 0xFFFF
//  501   {
//  502     //memcpy(ucComMF522Buf, pData, 16);
//  503     for (i=0; i<16; i++)
        MOV     R7,#0x0
??PcdWrite_4:
        MOV     A,R7
        CLR     C
        SUBB    A,#0x10
        JNC     ??PcdWrite_5
//  504     {    ucComMF522Buf[i] = *(pData+i);   }
        MOV     ?V0 + 4,R7
        MOV     ?V0 + 5,#0x0
        MOV     A,?V0 + 2
        ADD     A,?V0 + 4
        MOV     DPL,A
        MOV     A,?V0 + 3
        ADDC    A,?V0 + 5
        MOV     DPH,A
        MOVX    A,@DPTR
        PUSH    A
        CFI CFA_SP SP+-1
        MOV     ?V0 + 4,R7
        MOV     ?V0 + 5,#0x0
        MOV     A,#0x2
        LCALL   ?XSTACK_DISP0_8
        MOV     A,DPL
        ADD     A,?V0 + 4
        MOV     DPL,A
        MOV     A,DPH
        ADDC    A,?V0 + 5
        MOV     DPH,A
        POP     A
        CFI CFA_SP SP+0
        MOVX    @DPTR,A
        INC     R7
        SJMP    ??PcdWrite_4
//  505     CalulateCRC(ucComMF522Buf,16,&ucComMF522Buf[16]);
??PcdWrite_5:
        ; Setup parameters for call to function CalulateCRC
        MOV     A,#0x12
        LCALL   ?XSTACK_DISP0_8
        MOV     R4,DPL
        MOV     R5,DPH
        MOV     R1,#0x10
        MOV     A,#0x2
        LCALL   ?XSTACK_DISP0_8
        MOV     R2,DPL
        MOV     R3,DPH
        LCALL   ??CalulateCRC?relay
//  506     
//  507     status = PcdComMF522(PCD_TRANSCEIVE,ucComMF522Buf,18,ucComMF522Buf,&unLen);
        ; Setup parameters for call to function PcdComMF522
        MOV     DPL,?XSP + 0
        MOV     DPH,?XSP + 1
        MOV     ?V0 + 4,DPL
        MOV     ?V0 + 5,DPH
        MOV     R0,#?V0 + 4
        LCALL   ?PUSH_XSTACK_I_TWO
        CFI CFA_XSP16 add(XSP16, 36)
        MOV     A,#0x4
        LCALL   ?XSTACK_DISP0_8
        MOV     ?V0 + 4,DPL
        MOV     ?V0 + 5,DPH
        MOV     R0,#?V0 + 4
        LCALL   ?PUSH_XSTACK_I_TWO
        CFI CFA_XSP16 add(XSP16, 38)
        MOV     R4,#0x12
        MOV     A,#0x6
        LCALL   ?XSTACK_DISP0_8
        MOV     R2,DPL
        MOV     R3,DPH
        MOV     R1,#0xc
        LCALL   ??PcdComMF522?relay
        MOV     A,#0x4
        LCALL   ?DEALLOC_XSTACK8
        CFI CFA_XSP16 add(XSP16, 34)
        MOV     A,R1
        MOV     R6,A
//  508     if ((status != MI_OK) || (unLen != 4) || ((ucComMF522Buf[0] & 0x0F) != 0x0A))
        MOV     A,#0x26
        XRL     A,R6
        JNZ     ??PcdWrite_6
        MOV     DPL,?XSP + 0
        MOV     DPH,?XSP + 1
        MOVX    A,@DPTR
        XRL     A,#0x4
        JNZ     ??PcdWrite_7
        INC     DPTR
        MOVX    A,@DPTR
        XRL     A,#0x0
??PcdWrite_7:
        JNZ     ??PcdWrite_6
        MOV     A,#0x2
        LCALL   ?XSTACK_DISP0_8
        MOVX    A,@DPTR
        ANL     A,#0xf
        XRL     A,#0xa
        JZ      ??PcdWrite_3
//  509     {   status = MI_ERR;   }
??PcdWrite_6:
        MOV     R6,#-0x45
//  510   } 
//  511   return status;
??PcdWrite_3:
        MOV     A,R6
        MOV     R1,A
        MOV     A,#0x14
        LCALL   ?DEALLOC_XSTACK8
        CFI CFA_XSP16 add(XSP16, 14)
        MOV     R7,#0x6
        LJMP    ?BANKED_LEAVE_XDATA
        CFI EndBlock cfiBlock17
//  512 }
//  513 /////////////////////////////////////////////////////////////////////
//  514 //功    能：读取M1卡一块数据
//  515 //参数说明: addr[IN]：块地址
//  516 //          pData[OUT]：读出的数据，16字节
//  517 //返    回: 成功返回MI_OK
//  518 ///////////////////////////////////////////////////////////////////// 

        RSEG BANKED_CODE:CODE:NOROOT(0)
//  519 char PcdRead(unsigned char addr,unsigned char *pData)
PcdRead:
        CFI Block cfiBlock18 Using cfiCommon0
        CFI Function PcdRead
        CODE
//  520 {
        FUNCALL PcdRead, CalulateCRC
        LOCFRAME ISTACK, 0, STACK
        LOCFRAME PSTACK, 0, STACK
        LOCFRAME XSTACK, 34, STACK
        LOCFRAME IOVERLAY, 0, STATIC
        LOCFRAME DOVERLAY, 0, STATIC
        ARGFRAME ISTACK, 0, STACK
        ARGFRAME PSTACK, 0, STACK
        ARGFRAME XSTACK, 34, STACK
        ARGFRAME IOVERLAY, 0, STATIC
        ARGFRAME DOVERLAY, 0, STATIC
        FUNCALL PcdRead, PcdComMF522
        LOCFRAME ISTACK, 0, STACK
        LOCFRAME PSTACK, 0, STACK
        LOCFRAME XSTACK, 38, STACK
        LOCFRAME IOVERLAY, 0, STATIC
        LOCFRAME DOVERLAY, 0, STATIC
        ARGFRAME ISTACK, 0, STACK
        ARGFRAME PSTACK, 0, STACK
        ARGFRAME XSTACK, 38, STACK
        ARGFRAME IOVERLAY, 0, STATIC
        ARGFRAME DOVERLAY, 0, STATIC
        MOV     A,#-0xe
        LCALL   ?BANKED_ENTER_XDATA
        CFI DPH0 load(1, XDATA, add(CFA_XSP16, literal(-1)))
        CFI DPL0 load(1, XDATA, add(CFA_XSP16, literal(-2)))
        CFI ?BRET_EXT load(1, XDATA, add(CFA_XSP16, literal(-3)))
        CFI ?RET_HIGH load(1, XDATA, add(CFA_XSP16, literal(-4)))
        CFI ?RET_LOW load(1, XDATA, add(CFA_XSP16, literal(-5)))
        CFI R7 load(1, XDATA, add(CFA_XSP16, literal(-6)))
        CFI V5 load(1, XDATA, add(CFA_XSP16, literal(-7)))
        CFI V4 load(1, XDATA, add(CFA_XSP16, literal(-8)))
        CFI V3 load(1, XDATA, add(CFA_XSP16, literal(-9)))
        CFI V2 load(1, XDATA, add(CFA_XSP16, literal(-10)))
        CFI V1 load(1, XDATA, add(CFA_XSP16, literal(-11)))
        CFI V0 load(1, XDATA, add(CFA_XSP16, literal(-12)))
        CFI VB load(1, XDATA, add(CFA_XSP16, literal(-13)))
        CFI R6 load(1, XDATA, add(CFA_XSP16, literal(-14)))
        CFI CFA_SP SP+0
        CFI CFA_XSP16 add(XSP16, 14)
        ; Saved register size: 14
        ; Auto size: 20
        MOV     A,#-0x14
        LCALL   ?ALLOC_XSTACK8
        CFI CFA_XSP16 add(XSP16, 34)
        MOV     ?V0 + 1,R1
        MOV     A,R2
        MOV     R6,A
        MOV     A,R3
        MOV     R7,A
//  521   char status;
//  522   unsigned int  unLen;
//  523   unsigned char i,ucComMF522Buf[MAXRLEN]; 
//  524   
//  525   ucComMF522Buf[0] = PICC_READ;
        MOV     A,#0x2
        LCALL   ?XSTACK_DISP0_8
        MOV     A,#0x30
        MOVX    @DPTR,A
//  526   ucComMF522Buf[1] = addr;
        MOV     A,?V0 + 1
        MOV     A,#0x3
        LCALL   ?XSTACK_DISP0_8
        MOV     A,?V0 + 1
        MOVX    @DPTR,A
//  527   CalulateCRC(ucComMF522Buf,2,&ucComMF522Buf[2]);
        ; Setup parameters for call to function CalulateCRC
        MOV     A,#0x4
        LCALL   ?XSTACK_DISP0_8
        MOV     R4,DPL
        MOV     R5,DPH
        MOV     R1,#0x2
        MOV     A,#0x2
        LCALL   ?XSTACK_DISP0_8
        MOV     R2,DPL
        MOV     R3,DPH
        LCALL   ??CalulateCRC?relay
//  528   
//  529   status = PcdComMF522(PCD_TRANSCEIVE,ucComMF522Buf,4,ucComMF522Buf,&unLen);
        ; Setup parameters for call to function PcdComMF522
        MOV     DPL,?XSP + 0
        MOV     DPH,?XSP + 1
        MOV     ?V0 + 4,DPL
        MOV     ?V0 + 5,DPH
        MOV     R0,#?V0 + 4
        LCALL   ?PUSH_XSTACK_I_TWO
        CFI CFA_XSP16 add(XSP16, 36)
        MOV     A,#0x4
        LCALL   ?XSTACK_DISP0_8
        MOV     ?V0 + 4,DPL
        MOV     ?V0 + 5,DPH
        MOV     R0,#?V0 + 4
        LCALL   ?PUSH_XSTACK_I_TWO
        CFI CFA_XSP16 add(XSP16, 38)
        MOV     R4,#0x4
        MOV     A,#0x6
        LCALL   ?XSTACK_DISP0_8
        MOV     R2,DPL
        MOV     R3,DPH
        MOV     R1,#0xc
        LCALL   ??PcdComMF522?relay
        MOV     A,#0x4
        LCALL   ?DEALLOC_XSTACK8
        CFI CFA_XSP16 add(XSP16, 34)
        MOV     A,R1
        MOV     ?V0 + 0,A
//  530   if ((status == MI_OK) && (unLen == 0x90))
        MOV     A,#0x26
        XRL     A,?V0 + 0
        JNZ     ??PcdRead_0
        MOV     DPL,?XSP + 0
        MOV     DPH,?XSP + 1
        MOVX    A,@DPTR
        XRL     A,#0x90
        JNZ     ??PcdRead_1
        INC     DPTR
        MOVX    A,@DPTR
        XRL     A,#0x0
??PcdRead_1:
        JNZ     ??PcdRead_0
//  531     //   {   memcpy(pData, ucComMF522Buf, 16);   }
//  532   {
//  533     for (i=0; i<16; i++)
        MOV     ?V0 + 2,#0x0
??PcdRead_2:
        MOV     A,?V0 + 2
        CLR     C
        SUBB    A,#0x10
        JNC     ??PcdRead_3
//  534     {    *(pData+i) = ucComMF522Buf[i];   }
        MOV     ?V0 + 4,?V0 + 2
        MOV     ?V0 + 5,#0x0
        MOV     A,#0x2
        LCALL   ?XSTACK_DISP0_8
        MOV     A,DPL
        ADD     A,?V0 + 4
        MOV     DPL,A
        MOV     A,DPH
        ADDC    A,?V0 + 5
        MOV     DPH,A
        MOVX    A,@DPTR
        PUSH    A
        CFI CFA_SP SP+-1
        MOV     ?V0 + 4,?V0 + 2
        MOV     ?V0 + 5,#0x0
        MOV     A,R6
        ADD     A,?V0 + 4
        MOV     DPL,A
        MOV     A,R7
        ADDC    A,?V0 + 5
        MOV     DPH,A
        POP     A
        CFI CFA_SP SP+0
        MOVX    @DPTR,A
        INC     ?V0 + 2
        SJMP    ??PcdRead_2
//  535   }
//  536   else
//  537   {   status = MI_ERR;   }
??PcdRead_0:
        MOV     ?V0 + 0,#-0x45
//  538   
//  539   return status;
??PcdRead_3:
        MOV     R1,?V0 + 0
        MOV     A,#0x14
        LCALL   ?DEALLOC_XSTACK8
        CFI CFA_XSP16 add(XSP16, 14)
        MOV     R7,#0x6
        LJMP    ?BANKED_LEAVE_XDATA
        CFI EndBlock cfiBlock18
//  540 }
//  541 
//  542 /////////////////////////////////////////////////////////////////////
//  543 //功    能：命令卡片进入休眠状态
//  544 //返    回: 成功返回MI_OK
//  545 /////////////////////////////////////////////////////////////////////

        RSEG BANKED_CODE:CODE:NOROOT(0)
//  546 char PcdHalt(void)
PcdHalt:
        CFI Block cfiBlock19 Using cfiCommon0
        CFI Function PcdHalt
        CODE
//  547 {
        FUNCALL PcdHalt, CalulateCRC
        LOCFRAME ISTACK, 0, STACK
        LOCFRAME PSTACK, 0, STACK
        LOCFRAME XSTACK, 30, STACK
        LOCFRAME IOVERLAY, 0, STATIC
        LOCFRAME DOVERLAY, 0, STATIC
        ARGFRAME ISTACK, 0, STACK
        ARGFRAME PSTACK, 0, STACK
        ARGFRAME XSTACK, 30, STACK
        ARGFRAME IOVERLAY, 0, STATIC
        ARGFRAME DOVERLAY, 0, STATIC
        FUNCALL PcdHalt, PcdComMF522
        LOCFRAME ISTACK, 0, STACK
        LOCFRAME PSTACK, 0, STACK
        LOCFRAME XSTACK, 34, STACK
        LOCFRAME IOVERLAY, 0, STATIC
        LOCFRAME DOVERLAY, 0, STATIC
        ARGFRAME ISTACK, 0, STACK
        ARGFRAME PSTACK, 0, STACK
        ARGFRAME XSTACK, 34, STACK
        ARGFRAME IOVERLAY, 0, STATIC
        ARGFRAME DOVERLAY, 0, STATIC
        MOV     A,#-0xa
        LCALL   ?BANKED_ENTER_XDATA
        CFI DPH0 load(1, XDATA, add(CFA_XSP16, literal(-1)))
        CFI DPL0 load(1, XDATA, add(CFA_XSP16, literal(-2)))
        CFI ?BRET_EXT load(1, XDATA, add(CFA_XSP16, literal(-3)))
        CFI ?RET_HIGH load(1, XDATA, add(CFA_XSP16, literal(-4)))
        CFI ?RET_LOW load(1, XDATA, add(CFA_XSP16, literal(-5)))
        CFI R7 load(1, XDATA, add(CFA_XSP16, literal(-6)))
        CFI V1 load(1, XDATA, add(CFA_XSP16, literal(-7)))
        CFI V0 load(1, XDATA, add(CFA_XSP16, literal(-8)))
        CFI VB load(1, XDATA, add(CFA_XSP16, literal(-9)))
        CFI R6 load(1, XDATA, add(CFA_XSP16, literal(-10)))
        CFI CFA_SP SP+0
        CFI CFA_XSP16 add(XSP16, 10)
        ; Saved register size: 10
        ; Auto size: 20
        MOV     A,#-0x14
        LCALL   ?ALLOC_XSTACK8
        CFI CFA_XSP16 add(XSP16, 30)
//  548   //    char status;
//  549   unsigned int  unLen;
//  550   unsigned char ucComMF522Buf[MAXRLEN]; 
//  551   
//  552   ucComMF522Buf[0] = PICC_HALT;
        MOV     A,#0x2
        LCALL   ?XSTACK_DISP0_8
        MOV     A,#0x50
        MOVX    @DPTR,A
//  553   ucComMF522Buf[1] = 0;
        MOV     A,#0x3
        LCALL   ?XSTACK_DISP0_8
        MOV     A,#0x0
        MOVX    @DPTR,A
//  554   CalulateCRC(ucComMF522Buf,2,&ucComMF522Buf[2]);
        ; Setup parameters for call to function CalulateCRC
        MOV     A,#0x4
        LCALL   ?XSTACK_DISP0_8
        MOV     R4,DPL
        MOV     R5,DPH
        MOV     R1,#0x2
        MOV     A,#0x2
        LCALL   ?XSTACK_DISP0_8
        MOV     R2,DPL
        MOV     R3,DPH
        LCALL   ??CalulateCRC?relay
//  555   PcdComMF522(PCD_TRANSCEIVE,ucComMF522Buf,4,ucComMF522Buf,&unLen);
        ; Setup parameters for call to function PcdComMF522
        MOV     DPL,?XSP + 0
        MOV     DPH,?XSP + 1
        MOV     ?V0 + 0,DPL
        MOV     ?V0 + 1,DPH
        MOV     R0,#?V0 + 0
        LCALL   ?PUSH_XSTACK_I_TWO
        CFI CFA_XSP16 add(XSP16, 32)
        MOV     A,#0x4
        LCALL   ?XSTACK_DISP0_8
        MOV     ?V0 + 0,DPL
        MOV     ?V0 + 1,DPH
        MOV     R0,#?V0 + 0
        LCALL   ?PUSH_XSTACK_I_TWO
        CFI CFA_XSP16 add(XSP16, 34)
        MOV     R4,#0x4
        MOV     A,#0x6
        LCALL   ?XSTACK_DISP0_8
        MOV     R2,DPL
        MOV     R3,DPH
        MOV     R1,#0xc
        LCALL   ??PcdComMF522?relay
        MOV     A,#0x4
        LCALL   ?DEALLOC_XSTACK8
        CFI CFA_XSP16 add(XSP16, 30)
        MOV     A,R1
//  556   // status = PcdComMF522(PCD_TRANSCEIVE,ucComMF522Buf,4,ucComMF522Buf,&unLen);
//  557   
//  558   return MI_OK;
        MOV     R1,#0x26
        MOV     A,#0x14
        LCALL   ?DEALLOC_XSTACK8
        CFI CFA_XSP16 add(XSP16, 10)
        MOV     R7,#0x2
        LJMP    ?BANKED_LEAVE_XDATA
        CFI EndBlock cfiBlock19
//  559 }
//  560 
//  561 

        RSEG BANKED_CODE:CODE:NOROOT(0)
//  562 void IC_CMT(uchar *UID,uchar *KEY,uchar RW,char *Dat)
IC_CMT:
        CFI Block cfiBlock20 Using cfiCommon0
        CFI Function IC_CMT
        CODE
//  563 {
        FUNCALL IC_CMT, PcdRequest
        LOCFRAME ISTACK, 0, STACK
        LOCFRAME PSTACK, 0, STACK
        LOCFRAME XSTACK, 46, STACK
        LOCFRAME IOVERLAY, 0, STATIC
        LOCFRAME DOVERLAY, 0, STATIC
        ARGFRAME ISTACK, 0, STACK
        ARGFRAME PSTACK, 0, STACK
        ARGFRAME XSTACK, 46, STACK
        ARGFRAME IOVERLAY, 0, STATIC
        ARGFRAME DOVERLAY, 0, STATIC
        FUNCALL IC_CMT, UartSend
        LOCFRAME ISTACK, 0, STACK
        LOCFRAME PSTACK, 0, STACK
        LOCFRAME XSTACK, 46, STACK
        LOCFRAME IOVERLAY, 0, STATIC
        LOCFRAME DOVERLAY, 0, STATIC
        ARGFRAME ISTACK, 0, STACK
        ARGFRAME PSTACK, 0, STACK
        ARGFRAME XSTACK, 46, STACK
        ARGFRAME IOVERLAY, 0, STATIC
        ARGFRAME DOVERLAY, 0, STATIC
        FUNCALL IC_CMT, PcdAnticoll
        LOCFRAME ISTACK, 0, STACK
        LOCFRAME PSTACK, 0, STACK
        LOCFRAME XSTACK, 46, STACK
        LOCFRAME IOVERLAY, 0, STATIC
        LOCFRAME DOVERLAY, 0, STATIC
        ARGFRAME ISTACK, 0, STACK
        ARGFRAME PSTACK, 0, STACK
        ARGFRAME XSTACK, 46, STACK
        ARGFRAME IOVERLAY, 0, STATIC
        ARGFRAME DOVERLAY, 0, STATIC
        FUNCALL IC_CMT, UartSend
        LOCFRAME ISTACK, 0, STACK
        LOCFRAME PSTACK, 0, STACK
        LOCFRAME XSTACK, 46, STACK
        LOCFRAME IOVERLAY, 0, STATIC
        LOCFRAME DOVERLAY, 0, STATIC
        ARGFRAME ISTACK, 0, STACK
        ARGFRAME PSTACK, 0, STACK
        ARGFRAME XSTACK, 46, STACK
        ARGFRAME IOVERLAY, 0, STATIC
        ARGFRAME DOVERLAY, 0, STATIC
        FUNCALL IC_CMT, PcdSelect
        LOCFRAME ISTACK, 0, STACK
        LOCFRAME PSTACK, 0, STACK
        LOCFRAME XSTACK, 46, STACK
        LOCFRAME IOVERLAY, 0, STATIC
        LOCFRAME DOVERLAY, 0, STATIC
        ARGFRAME ISTACK, 0, STACK
        ARGFRAME PSTACK, 0, STACK
        ARGFRAME XSTACK, 46, STACK
        ARGFRAME IOVERLAY, 0, STATIC
        ARGFRAME DOVERLAY, 0, STATIC
        FUNCALL IC_CMT, UartSend
        LOCFRAME ISTACK, 0, STACK
        LOCFRAME PSTACK, 0, STACK
        LOCFRAME XSTACK, 46, STACK
        LOCFRAME IOVERLAY, 0, STATIC
        LOCFRAME DOVERLAY, 0, STATIC
        ARGFRAME ISTACK, 0, STACK
        ARGFRAME PSTACK, 0, STACK
        ARGFRAME XSTACK, 46, STACK
        ARGFRAME IOVERLAY, 0, STATIC
        ARGFRAME DOVERLAY, 0, STATIC
        FUNCALL IC_CMT, PcdAuthState
        LOCFRAME ISTACK, 0, STACK
        LOCFRAME PSTACK, 0, STACK
        LOCFRAME XSTACK, 48, STACK
        LOCFRAME IOVERLAY, 0, STATIC
        LOCFRAME DOVERLAY, 0, STATIC
        ARGFRAME ISTACK, 0, STACK
        ARGFRAME PSTACK, 0, STACK
        ARGFRAME XSTACK, 48, STACK
        ARGFRAME IOVERLAY, 0, STATIC
        ARGFRAME DOVERLAY, 0, STATIC
        FUNCALL IC_CMT, UartSend
        LOCFRAME ISTACK, 0, STACK
        LOCFRAME PSTACK, 0, STACK
        LOCFRAME XSTACK, 46, STACK
        LOCFRAME IOVERLAY, 0, STATIC
        LOCFRAME DOVERLAY, 0, STATIC
        ARGFRAME ISTACK, 0, STACK
        ARGFRAME PSTACK, 0, STACK
        ARGFRAME XSTACK, 46, STACK
        ARGFRAME IOVERLAY, 0, STATIC
        ARGFRAME DOVERLAY, 0, STATIC
        FUNCALL IC_CMT, PcdRead
        LOCFRAME ISTACK, 0, STACK
        LOCFRAME PSTACK, 0, STACK
        LOCFRAME XSTACK, 46, STACK
        LOCFRAME IOVERLAY, 0, STATIC
        LOCFRAME DOVERLAY, 0, STATIC
        ARGFRAME ISTACK, 0, STACK
        ARGFRAME PSTACK, 0, STACK
        ARGFRAME XSTACK, 46, STACK
        ARGFRAME IOVERLAY, 0, STATIC
        ARGFRAME DOVERLAY, 0, STATIC
        FUNCALL IC_CMT, UartSend
        LOCFRAME ISTACK, 0, STACK
        LOCFRAME PSTACK, 0, STACK
        LOCFRAME XSTACK, 46, STACK
        LOCFRAME IOVERLAY, 0, STATIC
        LOCFRAME DOVERLAY, 0, STATIC
        ARGFRAME ISTACK, 0, STACK
        ARGFRAME PSTACK, 0, STACK
        ARGFRAME XSTACK, 46, STACK
        ARGFRAME IOVERLAY, 0, STATIC
        ARGFRAME DOVERLAY, 0, STATIC
        FUNCALL IC_CMT, PcdWrite
        LOCFRAME ISTACK, 0, STACK
        LOCFRAME PSTACK, 0, STACK
        LOCFRAME XSTACK, 46, STACK
        LOCFRAME IOVERLAY, 0, STATIC
        LOCFRAME DOVERLAY, 0, STATIC
        ARGFRAME ISTACK, 0, STACK
        ARGFRAME PSTACK, 0, STACK
        ARGFRAME XSTACK, 46, STACK
        ARGFRAME IOVERLAY, 0, STATIC
        ARGFRAME DOVERLAY, 0, STATIC
        FUNCALL IC_CMT, UartSend
        LOCFRAME ISTACK, 0, STACK
        LOCFRAME PSTACK, 0, STACK
        LOCFRAME XSTACK, 46, STACK
        LOCFRAME IOVERLAY, 0, STATIC
        LOCFRAME DOVERLAY, 0, STATIC
        ARGFRAME ISTACK, 0, STACK
        ARGFRAME PSTACK, 0, STACK
        ARGFRAME XSTACK, 46, STACK
        ARGFRAME IOVERLAY, 0, STATIC
        ARGFRAME DOVERLAY, 0, STATIC
        FUNCALL IC_CMT, PcdHalt
        LOCFRAME ISTACK, 0, STACK
        LOCFRAME PSTACK, 0, STACK
        LOCFRAME XSTACK, 46, STACK
        LOCFRAME IOVERLAY, 0, STATIC
        LOCFRAME DOVERLAY, 0, STATIC
        ARGFRAME ISTACK, 0, STACK
        ARGFRAME PSTACK, 0, STACK
        ARGFRAME XSTACK, 46, STACK
        ARGFRAME IOVERLAY, 0, STATIC
        ARGFRAME DOVERLAY, 0, STATIC
        FUNCALL IC_CMT, UartSend
        LOCFRAME ISTACK, 0, STACK
        LOCFRAME PSTACK, 0, STACK
        LOCFRAME XSTACK, 46, STACK
        LOCFRAME IOVERLAY, 0, STATIC
        LOCFRAME DOVERLAY, 0, STATIC
        ARGFRAME ISTACK, 0, STACK
        ARGFRAME PSTACK, 0, STACK
        ARGFRAME XSTACK, 46, STACK
        ARGFRAME IOVERLAY, 0, STATIC
        ARGFRAME DOVERLAY, 0, STATIC
        MOV     A,#-0xe
        LCALL   ?BANKED_ENTER_XDATA
        CFI DPH0 load(1, XDATA, add(CFA_XSP16, literal(-1)))
        CFI DPL0 load(1, XDATA, add(CFA_XSP16, literal(-2)))
        CFI ?BRET_EXT load(1, XDATA, add(CFA_XSP16, literal(-3)))
        CFI ?RET_HIGH load(1, XDATA, add(CFA_XSP16, literal(-4)))
        CFI ?RET_LOW load(1, XDATA, add(CFA_XSP16, literal(-5)))
        CFI R7 load(1, XDATA, add(CFA_XSP16, literal(-6)))
        CFI V5 load(1, XDATA, add(CFA_XSP16, literal(-7)))
        CFI V4 load(1, XDATA, add(CFA_XSP16, literal(-8)))
        CFI V3 load(1, XDATA, add(CFA_XSP16, literal(-9)))
        CFI V2 load(1, XDATA, add(CFA_XSP16, literal(-10)))
        CFI V1 load(1, XDATA, add(CFA_XSP16, literal(-11)))
        CFI V0 load(1, XDATA, add(CFA_XSP16, literal(-12)))
        CFI VB load(1, XDATA, add(CFA_XSP16, literal(-13)))
        CFI R6 load(1, XDATA, add(CFA_XSP16, literal(-14)))
        CFI CFA_SP SP+0
        CFI CFA_XSP16 add(XSP16, 14)
        ; Saved register size: 14
        ; Auto size: 32
        MOV     A,#-0x20
        LCALL   ?ALLOC_XSTACK8
        CFI CFA_XSP16 add(XSP16, 46)
        MOV     ?V0 + 2,R2
        MOV     ?V0 + 3,R3
        MOV     ?V0 + 0,R4
        MOV     ?V0 + 1,R5
        MOV     ?V0 + 4,R1
        MOV     A,#0x2e
        LCALL   ?XSTACK_DISP0_8
        MOVX    A,@DPTR
        MOV     R6,A
        INC     DPTR
        MOVX    A,@DPTR
        MOV     R7,A
//  564   uchar status = 0xab;
        MOV     ?V0 + 5,#-0x55
//  565   uchar qq[16]=0;//IC卡的类型
        MOV     DPTR,#`?<Constant {0}>`
        PUSH    DPL
        CFI CFA_SP SP+-1
        PUSH    DPH
        CFI CFA_SP SP+-2
        MOV     A,#0x10
        LCALL   ?XSTACK_DISP0_8
        MOV     R4,DPL
        MOV     R5,DPH
        POP     DPH
        CFI CFA_SP SP+-1
        POP     DPL
        CFI CFA_SP SP+0
        MOV     A,#0x10
        LCALL   ?MOVE_LONG8_XDATA_XDATA
//  566   uchar IC_uid[16]=0;//IC卡的UID
        MOV     DPTR,#`?<Constant {0}>_1`
        PUSH    DPL
        CFI CFA_SP SP+-1
        PUSH    DPH
        CFI CFA_SP SP+-2
        MOV     DPL,?XSP + 0
        MOV     DPH,?XSP + 1
        MOV     R4,DPL
        MOV     R5,DPH
        POP     DPH
        CFI CFA_SP SP+-1
        POP     DPL
        CFI CFA_SP SP+0
        MOV     A,#0x10
        LCALL   ?MOVE_LONG8_XDATA_XDATA
//  567   
//  568   UartSend(PcdRequest(0x52,qq));//寻卡
        ; Setup parameters for call to function UartSend
        ; Setup parameters for call to function PcdRequest
        MOV     A,#0x10
        LCALL   ?XSTACK_DISP0_8
        MOV     R2,DPL
        MOV     R3,DPH
        MOV     R1,#0x52
        LCALL   ??PcdRequest?relay
        LCALL   ??UartSend?relay
//  569   UartSend(PcdAnticoll(IC_uid));//防冲撞
        ; Setup parameters for call to function UartSend
        ; Setup parameters for call to function PcdAnticoll
        MOV     DPL,?XSP + 0
        MOV     DPH,?XSP + 1
        MOV     R2,DPL
        MOV     R3,DPH
        LCALL   ??PcdAnticoll?relay
        LCALL   ??UartSend?relay
//  570   
//  571   UartSend(PcdSelect(UID));//选定卡
        ; Setup parameters for call to function UartSend
        ; Setup parameters for call to function PcdSelect
        MOV     R2,?V0 + 2
        MOV     R3,?V0 + 3
        LCALL   ??PcdSelect?relay
        LCALL   ??UartSend?relay
//  572   
//  573   UartSend(PcdAuthState(0x60,0x10,KEY,UID));//校验
        ; Setup parameters for call to function UartSend
        ; Setup parameters for call to function PcdAuthState
        MOV     R0,#?V0 + 2
        LCALL   ?PUSH_XSTACK_I_TWO
        CFI CFA_XSP16 add(XSP16, 48)
        MOV     R4,?V0 + 0
        MOV     R5,?V0 + 1
        MOV     R2,#0x10
        MOV     R1,#0x60
        LCALL   ??PcdAuthState?relay
        MOV     A,#0x2
        LCALL   ?DEALLOC_XSTACK8
        CFI CFA_XSP16 add(XSP16, 46)
        LCALL   ??UartSend?relay
//  574   if(RW)//读写选择，1是读，0是写
        MOV     A,?V0 + 4
        JZ      ??IC_CMT_0
//  575   {
//  576     UartSend (PcdRead(0x10,Dat));
        ; Setup parameters for call to function UartSend
        ; Setup parameters for call to function PcdRead
        MOV     A,R6
        MOV     R2,A
        MOV     A,R7
        MOV     R3,A
        MOV     R1,#0x10
        LCALL   ??PcdRead?relay
        LCALL   ??UartSend?relay
        SJMP    ??IC_CMT_1
//  577   }
//  578   else 
//  579   {
//  580     UartSend(PcdWrite(0x10,Dat));
??IC_CMT_0:
        ; Setup parameters for call to function UartSend
        ; Setup parameters for call to function PcdWrite
        MOV     A,R6
        MOV     R2,A
        MOV     A,R7
        MOV     R3,A
        MOV     R1,#0x10
        LCALL   ??PcdWrite?relay
        LCALL   ??UartSend?relay
//  581   } 
//  582   UartSend(PcdHalt());
??IC_CMT_1:
        ; Setup parameters for call to function UartSend
        ; Setup parameters for call to function PcdHalt
        LCALL   ??PcdHalt?relay
        LCALL   ??UartSend?relay
//  583 }
        MOV     A,#0x20
        LCALL   ?DEALLOC_XSTACK8
        CFI CFA_XSP16 add(XSP16, 14)
        MOV     R7,#0x6
        LJMP    ?BANKED_LEAVE_XDATA
        CFI EndBlock cfiBlock20

        RSEG BANK_RELAYS:CODE:REORDER:NOROOT(0)
??Delay_I_1us?relay:
        LCALL   ?BDISPATCH
        DATA
        DC24    Delay_I_1us

        RSEG BANK_RELAYS:CODE:REORDER:NOROOT(0)
??SPIWriteByte?relay:
        LCALL   ?BDISPATCH
        DATA
        DC24    SPIWriteByte

        RSEG BANK_RELAYS:CODE:REORDER:NOROOT(0)
??SPIReadByte?relay:
        LCALL   ?BDISPATCH
        DATA
        DC24    SPIReadByte

        RSEG BANK_RELAYS:CODE:REORDER:NOROOT(0)
??ReadRawRC?relay:
        LCALL   ?BDISPATCH
        DATA
        DC24    ReadRawRC

        RSEG BANK_RELAYS:CODE:REORDER:NOROOT(0)
??WriteRawRC?relay:
        LCALL   ?BDISPATCH
        DATA
        DC24    WriteRawRC

        RSEG BANK_RELAYS:CODE:REORDER:NOROOT(0)
??SetBitMask?relay:
        LCALL   ?BDISPATCH
        DATA
        DC24    SetBitMask

        RSEG BANK_RELAYS:CODE:REORDER:NOROOT(0)
??ClearBitMask?relay:
        LCALL   ?BDISPATCH
        DATA
        DC24    ClearBitMask

        RSEG BANK_RELAYS:CODE:REORDER:NOROOT(0)
??PcdAntennaOn?relay:
        LCALL   ?BDISPATCH
        DATA
        DC24    PcdAntennaOn

        RSEG BANK_RELAYS:CODE:REORDER:NOROOT(0)
??PcdAntennaOff?relay:
        LCALL   ?BDISPATCH
        DATA
        DC24    PcdAntennaOff

        RSEG BANK_RELAYS:CODE:REORDER:NOROOT(0)
??PcdReset?relay:
        LCALL   ?BDISPATCH
        DATA
        DC24    PcdReset

        RSEG BANK_RELAYS:CODE:REORDER:NOROOT(0)
??M500PcdConfigISOType?relay:
        LCALL   ?BDISPATCH
        DATA
        DC24    M500PcdConfigISOType

        RSEG BANK_RELAYS:CODE:REORDER:NOROOT(0)
??PcdComMF522?relay:
        LCALL   ?BDISPATCH
        DATA
        DC24    PcdComMF522

        RSEG BANK_RELAYS:CODE:REORDER:NOROOT(0)
??PcdRequest?relay:
        LCALL   ?BDISPATCH
        DATA
        DC24    PcdRequest

        RSEG BANK_RELAYS:CODE:REORDER:NOROOT(0)
??PcdAnticoll?relay:
        LCALL   ?BDISPATCH
        DATA
        DC24    PcdAnticoll

        RSEG BANK_RELAYS:CODE:REORDER:NOROOT(0)
??CalulateCRC?relay:
        LCALL   ?BDISPATCH
        DATA
        DC24    CalulateCRC

        RSEG BANK_RELAYS:CODE:REORDER:NOROOT(0)
??PcdSelect?relay:
        LCALL   ?BDISPATCH
        DATA
        DC24    PcdSelect

        RSEG BANK_RELAYS:CODE:REORDER:NOROOT(0)
??PcdAuthState?relay:
        LCALL   ?BDISPATCH
        DATA
        DC24    PcdAuthState

        RSEG BANK_RELAYS:CODE:REORDER:NOROOT(0)
??PcdWrite?relay:
        LCALL   ?BDISPATCH
        DATA
        DC24    PcdWrite

        RSEG BANK_RELAYS:CODE:REORDER:NOROOT(0)
??PcdRead?relay:
        LCALL   ?BDISPATCH
        DATA
        DC24    PcdRead

        RSEG BANK_RELAYS:CODE:REORDER:NOROOT(0)
??PcdHalt?relay:
        LCALL   ?BDISPATCH
        DATA
        DC24    PcdHalt

        RSEG BANK_RELAYS:CODE:REORDER:NOROOT(0)
??IC_CMT?relay:
        LCALL   ?BDISPATCH
        DATA
        DC24    IC_CMT

        RSEG XDATA_ROM_C:CONST:REORDER:NOROOT(0)
        DATA8
`?<Constant {0}>`:
        DB 0
        DB 0, 0, 0, 0, 0, 0, 0, 0
        DB 0, 0, 0, 0, 0, 0, 0

        RSEG XDATA_ROM_C:CONST:REORDER:NOROOT(0)
        DATA8
`?<Constant {0}>_1`:
        DB 0
        DB 0, 0, 0, 0, 0, 0, 0, 0
        DB 0, 0, 0, 0, 0, 0, 0

        END
// 
// 3 004 bytes in segment BANKED_CODE
//   126 bytes in segment BANK_RELAYS
//     2 bytes in segment SFR_AN
//    32 bytes in segment XDATA_ROM_C
// 
// 3 130 bytes of CODE  memory
//    32 bytes of CONST memory
//     0 bytes of DATA  memory (+ 2 bytes shared)
//
//Errors: none
//Warnings: 5
