///////////////////////////////////////////////////////////////////////////////
//                                                                            /
// IAR C/C++ Compiler V8.10.1.40194/W32 for 8051        03/Mar/2020  13:32:27 /
// Copyright 2004-2011 IAR Systems AB.                                        /
//                                                                            /
//    Core               =  plain                                             /
//    Code model         =  banked                                            /
//    Data model         =  large                                             /
//    Calling convention =  xdata reentrant                                   /
//    Constant location  =  data_rom                                          /
//    Dptr setup         =  1,16                                              /
//    Source file        =  C:\Texas Instruments\ZStack-CC2530-2.5.1a\Project /
//                          s\zstack\Samples\Diplomaproject\Source\ledDevice2 /
//                          .c                                                /
//    Command line       =  -f "C:\Texas Instruments\ZStack-CC2530-2.5.1a\Pro /
//                          jects\zstack\Samples\Diplomaproject\CC2530DB\..\. /
//                          .\..\Tools\CC2530DB\f8wCoord.cfg" (-DCPU32MHZ     /
//                          -DROOT=__near_func -DMAC_CFG_APP_PENDING_QUEUE=TR /
//                          UE -DMAC_CFG_TX_DATA_MAX=5 -DMAC_CFG_TX_MAX=8     /
//                          -DMAC_CFG_RX_MAX=5 -DZDO_COORDINATOR -DRTR_NWK)   /
//                          -f "C:\Texas Instruments\ZStack-CC2530-2.5.1a\Pro /
//                          jects\zstack\Samples\Diplomaproject\CC2530DB\..\. /
//                          .\..\Tools\CC2530DB\f8wConfig.cfg" (-DZIGBEEPRO   /
//                          -DSECURE=0 -DZG_SECURE_DYNAMIC=0 -DREFLECTOR      /
//                          -DDEFAULT_CHANLIST=0x00000800                     /
//                          -DZDAPP_CONFIG_PAN_ID=0xFFFF                      /
//                          -DNWK_START_DELAY=100 -DEXTENDED_JOINING_RANDOM_M /
//                          ASK=0x007F -DBEACON_REQUEST_DELAY=100             /
//                          -DBEACON_REQ_DELAY_MASK=0x00FF                    /
//                          -DLINK_STATUS_JITTER_MASK=0x007F                  /
//                          -DROUTE_EXPIRY_TIME=30 -DAPSC_ACK_WAIT_DURATION_P /
//                          OLLED=3000 -DNWK_INDIRECT_MSG_TIMEOUT=7           /
//                          -DMAX_RREQ_ENTRIES=8 -DAPSC_MAX_FRAME_RETRIES=3   /
//                          -DNWK_MAX_DATA_RETRIES=2                          /
//                          -DMAX_POLL_FAILURE_RETRIES=2 -DMAX_BCAST=9        /
//                          -DAPS_MAX_GROUPS=16 -DMAX_RTG_ENTRIES=40          /
//                          -DNWK_MAX_BINDING_ENTRIES=4                       /
//                          -DMAX_BINDING_CLUSTER_IDS=4                       /
//                          "-DDEFAULT_KEY={0x01, 0x03, 0x05, 0x07, 0x09,     /
//                          0x0B, 0x0D, 0x0F, 0x00, 0x02, 0x04, 0x06, 0x08,   /
//                          0x0A, 0x0C, 0x0D}" -DMAC_MAX_FRAME_SIZE=116       /
//                          -DZDNWKMGR_MIN_TRANSMISSIONS=20 "-DCONST=const    /
//                          __code" -DGENERIC=__generic                       /
//                          -DRFD_RCVC_ALWAYS_ON=FALSE -DPOLL_RATE=1000       /
//                          -DQUEUED_POLL_RATE=100 -DRESPONSE_POLL_RATE=100)  /
//                          -DREJOIN_POLL_RATE=440 "C:\Texas                  /
//                          Instruments\ZStack-CC2530-2.5.1a\Projects\zstack\ /
//                          Samples\Diplomaproject\Source\ledDevice2.c" -D    /
//                          ZTOOL_P1 -D xMT_TASK -D xMT_SYS_FUNC -D           /
//                          xMT_ZDO_FUNC -D xLCD_SUPPORTED=DEBUG -lC          /
//                          "C:\Texas Instruments\ZStack-CC2530-2.5.1a\Projec /
//                          ts\zstack\Samples\Diplomaproject\CC2530DB\Coordin /
//                          atorEB\List\" -lA "C:\Texas                       /
//                          Instruments\ZStack-CC2530-2.5.1a\Projects\zstack\ /
//                          Samples\Diplomaproject\CC2530DB\CoordinatorEB\Lis /
//                          t\" --diag_suppress Pe001,Pa010 -o "C:\Texas      /
//                          Instruments\ZStack-CC2530-2.5.1a\Projects\zstack\ /
//                          Samples\Diplomaproject\CC2530DB\CoordinatorEB\Obj /
//                          \" -e --no_cse --no_unroll --no_inline            /
//                          --no_code_motion --no_tbaa --debug --core=plain   /
//                          --dptr=16,1 --data_model=large                    /
//                          --code_model=banked --calling_convention=xdata_re /
//                          entrant --place_constants=data_rom                /
//                          --nr_virtual_regs 16 -I "C:\Texas                 /
//                          Instruments\ZStack-CC2530-2.5.1a\Projects\zstack\ /
//                          Samples\Diplomaproject\CC2530DB\" -I "C:\Texas    /
//                          Instruments\ZStack-CC2530-2.5.1a\Projects\zstack\ /
//                          Samples\Diplomaproject\CC2530DB\..\Source\" -I    /
//                          "C:\Texas Instruments\ZStack-CC2530-2.5.1a\Projec /
//                          ts\zstack\Samples\Diplomaproject\CC2530DB\..\..\. /
//                          .\ZMain\TI2530DB\" -I "C:\Texas                   /
//                          Instruments\ZStack-CC2530-2.5.1a\Projects\zstack\ /
//                          Samples\Diplomaproject\CC2530DB\..\..\..\..\..\Co /
//                          mponents\hal\include\" -I "C:\Texas               /
//                          Instruments\ZStack-CC2530-2.5.1a\Projects\zstack\ /
//                          Samples\Diplomaproject\CC2530DB\..\..\..\..\..\Co /
//                          mponents\hal\target\CC2530EB\" -I "C:\Texas       /
//                          Instruments\ZStack-CC2530-2.5.1a\Projects\zstack\ /
//                          Samples\Diplomaproject\CC2530DB\..\..\..\..\..\Co /
//                          mponents\mac\include\" -I "C:\Texas               /
//                          Instruments\ZStack-CC2530-2.5.1a\Projects\zstack\ /
//                          Samples\Diplomaproject\CC2530DB\..\..\..\..\..\Co /
//                          mponents\mac\high_level\" -I "C:\Texas            /
//                          Instruments\ZStack-CC2530-2.5.1a\Projects\zstack\ /
//                          Samples\Diplomaproject\CC2530DB\..\..\..\..\..\Co /
//                          mponents\mac\low_level\srf04\" -I "C:\Texas       /
//                          Instruments\ZStack-CC2530-2.5.1a\Projects\zstack\ /
//                          Samples\Diplomaproject\CC2530DB\..\..\..\..\..\Co /
//                          mponents\mac\low_level\srf04\single_chip\" -I     /
//                          "C:\Texas Instruments\ZStack-CC2530-2.5.1a\Projec /
//                          ts\zstack\Samples\Diplomaproject\CC2530DB\..\..\. /
//                          .\..\..\Components\mt\" -I "C:\Texas              /
//                          Instruments\ZStack-CC2530-2.5.1a\Projects\zstack\ /
//                          Samples\Diplomaproject\CC2530DB\..\..\..\..\..\Co /
//                          mponents\osal\include\" -I "C:\Texas              /
//                          Instruments\ZStack-CC2530-2.5.1a\Projects\zstack\ /
//                          Samples\Diplomaproject\CC2530DB\..\..\..\..\..\Co /
//                          mponents\services\saddr\" -I "C:\Texas            /
//                          Instruments\ZStack-CC2530-2.5.1a\Projects\zstack\ /
//                          Samples\Diplomaproject\CC2530DB\..\..\..\..\..\Co /
//                          mponents\services\sdata\" -I "C:\Texas            /
//                          Instruments\ZStack-CC2530-2.5.1a\Projects\zstack\ /
//                          Samples\Diplomaproject\CC2530DB\..\..\..\..\..\Co /
//                          mponents\stack\af\" -I "C:\Texas                  /
//                          Instruments\ZStack-CC2530-2.5.1a\Projects\zstack\ /
//                          Samples\Diplomaproject\CC2530DB\..\..\..\..\..\Co /
//                          mponents\stack\nwk\" -I "C:\Texas                 /
//                          Instruments\ZStack-CC2530-2.5.1a\Projects\zstack\ /
//                          Samples\Diplomaproject\CC2530DB\..\..\..\..\..\Co /
//                          mponents\stack\sapi\" -I "C:\Texas                /
//                          Instruments\ZStack-CC2530-2.5.1a\Projects\zstack\ /
//                          Samples\Diplomaproject\CC2530DB\..\..\..\..\..\Co /
//                          mponents\stack\sec\" -I "C:\Texas                 /
//                          Instruments\ZStack-CC2530-2.5.1a\Projects\zstack\ /
//                          Samples\Diplomaproject\CC2530DB\..\..\..\..\..\Co /
//                          mponents\stack\sys\" -I "C:\Texas                 /
//                          Instruments\ZStack-CC2530-2.5.1a\Projects\zstack\ /
//                          Samples\Diplomaproject\CC2530DB\..\..\..\..\..\Co /
//                          mponents\stack\zdo\" -I "C:\Texas                 /
//                          Instruments\ZStack-CC2530-2.5.1a\Projects\zstack\ /
//                          Samples\Diplomaproject\CC2530DB\..\..\..\..\..\Co /
//                          mponents\zmac\" -I "C:\Texas                      /
//                          Instruments\ZStack-CC2530-2.5.1a\Projects\zstack\ /
//                          Samples\Diplomaproject\CC2530DB\..\..\..\..\..\Co /
//                          mponents\zmac\f8w\" -On                           /
//    List file          =  C:\Texas Instruments\ZStack-CC2530-2.5.1a\Project /
//                          s\zstack\Samples\Diplomaproject\CC2530DB\Coordina /
//                          torEB\List\ledDevice2.s51                         /
//                                                                            /
//                                                                            /
///////////////////////////////////////////////////////////////////////////////

        NAME ledDevice2

        RTMODEL "__SystemLibrary", "CLib"
        RTMODEL "__calling_convention", "xdata_reentrant"
        RTMODEL "__code_model", "banked"
        RTMODEL "__core", "plain"
        RTMODEL "__data_model", "large"
        RTMODEL "__dptr_size", "16"
        RTMODEL "__extended_stack", "disabled"
        RTMODEL "__location_for_constants", "data"
        RTMODEL "__number_of_dptrs", "1"
        RTMODEL "__rt_version", "1"

        RSEG DOVERLAY:DATA:NOROOT(0)
        RSEG IOVERLAY:IDATA:NOROOT(0)
        RSEG ISTACK:IDATA:NOROOT(0)
        RSEG PSTACK:XDATA:NOROOT(0)
        RSEG XSTACK:XDATA:NOROOT(0)

        EXTERN ?ALLOC_XSTACK8
        EXTERN ?BANKED_ENTER_XDATA
        EXTERN ?BANKED_LEAVE_XDATA
        EXTERN ?BDISPATCH
        EXTERN ?BRET
        EXTERN ?DEALLOC_XSTACK8
        EXTERN ?PUSH_XSTACK_I_ONE
        EXTERN ?PUSH_XSTACK_I_TWO
        EXTERN ?V0
        EXTERN ?XSP
        EXTERN ?XSTACK_DISP0_8
        EXTERN __INIT_XDATA_I

        PUBLIC ??zb_AllowBindConfirm?relay
        FUNCTION ??zb_AllowBindConfirm?relay,0203H
        PUBLIC ??zb_BindConfirm?relay
        FUNCTION ??zb_BindConfirm?relay,0203H
        PUBLIC ??zb_FindDeviceConfirm?relay
        FUNCTION ??zb_FindDeviceConfirm?relay,0203H
        PUBLIC ??zb_HandleKeys?relay
        FUNCTION ??zb_HandleKeys?relay,0203H
        PUBLIC ??zb_HandleOsalEvent?relay
        FUNCTION ??zb_HandleOsalEvent?relay,0203H
        PUBLIC ??zb_ReceiveDataIndication?relay
        FUNCTION ??zb_ReceiveDataIndication?relay,0203H
        PUBLIC ??zb_SendDataConfirm?relay
        FUNCTION ??zb_SendDataConfirm?relay,0203H
        PUBLIC ??zb_StartConfirm?relay
        FUNCTION ??zb_StartConfirm?relay,0203H
        PUBLIC ledDeviceInputCommandList
        PUBLIC ledDeviceOutputCommandList
        PUBLIC ledIdList
        PUBLIC zb_AllowBindConfirm
        FUNCTION zb_AllowBindConfirm,0203H
        ARGFRAME XSTACK, 0, STACK
        PUBLIC zb_BindConfirm
        FUNCTION zb_BindConfirm,0203H
        ARGFRAME XSTACK, 0, STACK
        PUBLIC zb_FindDeviceConfirm
        FUNCTION zb_FindDeviceConfirm,0203H
        ARGFRAME XSTACK, 0, STACK
        PUBLIC zb_HandleKeys
        FUNCTION zb_HandleKeys,0203H
        ARGFRAME XSTACK, 0, STACK
        PUBLIC zb_HandleOsalEvent
        FUNCTION zb_HandleOsalEvent,021203H
        ARGFRAME XSTACK, 0, STACK
        LOCFRAME ISTACK, 1, STACK
        LOCFRAME XSTACK, 24, STACK
        PUBLIC zb_ReceiveDataIndication
        FUNCTION zb_ReceiveDataIndication,021203H
        ARGFRAME XSTACK, 4, STACK
        LOCFRAME XSTACK, 16, STACK
        PUBLIC zb_SendDataConfirm
        FUNCTION zb_SendDataConfirm,0203H
        ARGFRAME XSTACK, 0, STACK
        PUBLIC zb_SimpleDesc
        PUBLIC zb_StartConfirm
        FUNCTION zb_StartConfirm,021203H
        ARGFRAME XSTACK, 0, STACK
        LOCFRAME XSTACK, 15, STACK
        
        CFI Names cfiNames0
        CFI StackFrame CFA_SP SP IDATA
        CFI StackFrame CFA_PSP16 PSP16 XDATA
        CFI StackFrame CFA_XSP16 XSP16 XDATA
        CFI StaticOverlayFrame CFA_IOVERLAY IOVERLAY
        CFI StaticOverlayFrame CFA_DOVERLAY DOVERLAY
        CFI Resource `PSW.CY`:1, `B.BR0`:1, `B.BR1`:1, `B.BR2`:1, `B.BR3`:1
        CFI Resource `B.BR4`:1, `B.BR5`:1, `B.BR6`:1, `B.BR7`:1, `VB.BR8`:1
        CFI Resource `VB.BR9`:1, `VB.BR10`:1, `VB.BR11`:1, `VB.BR12`:1
        CFI Resource `VB.BR13`:1, `VB.BR14`:1, `VB.BR15`:1, VB:8, B:8, A:8
        CFI Resource PSW:8, DPL0:8, DPH0:8, R0:8, R1:8, R2:8, R3:8, R4:8, R5:8
        CFI Resource R6:8, R7:8, V0:8, V1:8, V2:8, V3:8, V4:8, V5:8, V6:8, V7:8
        CFI Resource V8:8, V9:8, V10:8, V11:8, V12:8, V13:8, V14:8, V15:8, SP:8
        CFI Resource PSPH:8, PSPL:8, PSP16:16, XSPH:8, XSPL:8, XSP16:16
        CFI VirtualResource ?RET:24
        CFI Resource ?BRET_EXT:8
        CFI VirtualResource ?RET_HIGH:8, ?RET_LOW:8
        CFI ResourceParts PSP16 PSPH, PSPL
        CFI ResourceParts XSP16 XSPH, XSPL
        CFI ResourceParts ?RET ?BRET_EXT, ?RET_HIGH, ?RET_LOW
        CFI EndNames cfiNames0
        
        CFI Common cfiCommon0 Using cfiNames0
        CFI CodeAlign 1
        CFI DataAlign -1
        CFI ReturnAddress ?RET CODE
        CFI CFA_DOVERLAY Used
        CFI CFA_IOVERLAY Used
        CFI CFA_SP SP+-3
        CFI CFA_PSP16 PSP16+0
        CFI CFA_XSP16 XSP16+0
        CFI `PSW.CY` SameValue
        CFI `B.BR0` SameValue
        CFI `B.BR1` SameValue
        CFI `B.BR2` SameValue
        CFI `B.BR3` SameValue
        CFI `B.BR4` SameValue
        CFI `B.BR5` SameValue
        CFI `B.BR6` SameValue
        CFI `B.BR7` SameValue
        CFI `VB.BR8` SameValue
        CFI `VB.BR9` SameValue
        CFI `VB.BR10` SameValue
        CFI `VB.BR11` SameValue
        CFI `VB.BR12` SameValue
        CFI `VB.BR13` SameValue
        CFI `VB.BR14` SameValue
        CFI `VB.BR15` SameValue
        CFI VB SameValue
        CFI B Undefined
        CFI A Undefined
        CFI PSW SameValue
        CFI DPL0 SameValue
        CFI DPH0 SameValue
        CFI R0 Undefined
        CFI R1 Undefined
        CFI R2 Undefined
        CFI R3 Undefined
        CFI R4 Undefined
        CFI R5 Undefined
        CFI R6 SameValue
        CFI R7 SameValue
        CFI V0 SameValue
        CFI V1 SameValue
        CFI V2 SameValue
        CFI V3 SameValue
        CFI V4 SameValue
        CFI V5 SameValue
        CFI V6 SameValue
        CFI V7 SameValue
        CFI V8 SameValue
        CFI V9 SameValue
        CFI V10 SameValue
        CFI V11 SameValue
        CFI V12 SameValue
        CFI V13 SameValue
        CFI V14 SameValue
        CFI V15 SameValue
        CFI PSPH Undefined
        CFI PSPL Undefined
        CFI XSPH Undefined
        CFI XSPL Undefined
        CFI ?RET Concat
        CFI ?BRET_EXT Frame(CFA_SP, 3)
        CFI ?RET_HIGH Frame(CFA_SP, 2)
        CFI ?RET_LOW Frame(CFA_SP, 1)
        CFI EndCommon cfiCommon0
        
HalLedSet           SYMBOL "HalLedSet"
BEEStart            SYMBOL "BEEStart"
BEEClose            SYMBOL "BEEClose"
JDQStart            SYMBOL "JDQStart"
JDQClose            SYMBOL "JDQClose"
L298NStart          SYMBOL "L298NStart"
L298NClose          SYMBOL "L298NClose"
JDQ1Start           SYMBOL "JDQ1Start"
JDQ1Close           SYMBOL "JDQ1Close"
zb_SendDataRequest  SYMBOL "zb_SendDataRequest"
osal_start_timerEx  SYMBOL "osal_start_timerEx"
HalLedBlink         SYMBOL "HalLedBlink"
Initout             SYMBOL "Initout"
GetDht11Value       SYMBOL "GetDht11Value"
Get_ADCValue        SYMBOL "Get_ADCValue"
AirScan             SYMBOL "AirScan"
??AirScan?relay     SYMBOL "?relay", AirScan
??BEEClose?relay    SYMBOL "?relay", BEEClose
??BEEStart?relay    SYMBOL "?relay", BEEStart
??GetDht11Value?relay SYMBOL "?relay", GetDht11Value
??Get_ADCValue?relay SYMBOL "?relay", Get_ADCValue
??HalLedBlink?relay SYMBOL "?relay", HalLedBlink
??HalLedSet?relay   SYMBOL "?relay", HalLedSet
??Initout?relay     SYMBOL "?relay", Initout
??JDQ1Close?relay   SYMBOL "?relay", JDQ1Close
??JDQ1Start?relay   SYMBOL "?relay", JDQ1Start
??JDQClose?relay    SYMBOL "?relay", JDQClose
??JDQStart?relay    SYMBOL "?relay", JDQStart
??L298NClose?relay  SYMBOL "?relay", L298NClose
??L298NStart?relay  SYMBOL "?relay", L298NStart
??osal_start_timerEx?relay SYMBOL "?relay", osal_start_timerEx
??zb_SendDataRequest?relay SYMBOL "?relay", zb_SendDataRequest
zb_AllowBindConfirm SYMBOL "zb_AllowBindConfirm"
??zb_AllowBindConfirm?relay SYMBOL "?relay", zb_AllowBindConfirm
zb_BindConfirm      SYMBOL "zb_BindConfirm"
??zb_BindConfirm?relay SYMBOL "?relay", zb_BindConfirm
zb_FindDeviceConfirm SYMBOL "zb_FindDeviceConfirm"
??zb_FindDeviceConfirm?relay SYMBOL "?relay", zb_FindDeviceConfirm
zb_HandleKeys       SYMBOL "zb_HandleKeys"
??zb_HandleKeys?relay SYMBOL "?relay", zb_HandleKeys
zb_HandleOsalEvent  SYMBOL "zb_HandleOsalEvent"
??zb_HandleOsalEvent?relay SYMBOL "?relay", zb_HandleOsalEvent
zb_ReceiveDataIndication SYMBOL "zb_ReceiveDataIndication"
??zb_ReceiveDataIndication?relay SYMBOL "?relay", zb_ReceiveDataIndication
zb_SendDataConfirm  SYMBOL "zb_SendDataConfirm"
??zb_SendDataConfirm?relay SYMBOL "?relay", zb_SendDataConfirm
zb_StartConfirm     SYMBOL "zb_StartConfirm"
??zb_StartConfirm?relay SYMBOL "?relay", zb_StartConfirm

        EXTERN HalLedSet
        FUNCTION HalLedSet,0202H
        ARGFRAME ISTACK, 0, STACK
        ARGFRAME PSTACK, 0, STACK
        ARGFRAME XSTACK, 19, STACK
        ARGFRAME IOVERLAY, 0, STATIC
        ARGFRAME DOVERLAY, 0, STATIC
        EXTERN BEEStart
        FUNCTION BEEStart,0200H
        ARGFRAME ISTACK, 0, STACK
        ARGFRAME PSTACK, 0, STACK
        ARGFRAME XSTACK, 16, STACK
        ARGFRAME IOVERLAY, 0, STATIC
        ARGFRAME DOVERLAY, 0, STATIC
        EXTERN BEEClose
        FUNCTION BEEClose,0200H
        ARGFRAME ISTACK, 0, STACK
        ARGFRAME PSTACK, 0, STACK
        ARGFRAME XSTACK, 16, STACK
        ARGFRAME IOVERLAY, 0, STATIC
        ARGFRAME DOVERLAY, 0, STATIC
        EXTERN JDQStart
        FUNCTION JDQStart,0200H
        ARGFRAME ISTACK, 0, STACK
        ARGFRAME PSTACK, 0, STACK
        ARGFRAME XSTACK, 16, STACK
        ARGFRAME IOVERLAY, 0, STATIC
        ARGFRAME DOVERLAY, 0, STATIC
        EXTERN JDQClose
        FUNCTION JDQClose,0200H
        ARGFRAME ISTACK, 0, STACK
        ARGFRAME PSTACK, 0, STACK
        ARGFRAME XSTACK, 16, STACK
        ARGFRAME IOVERLAY, 0, STATIC
        ARGFRAME DOVERLAY, 0, STATIC
        EXTERN L298NStart
        FUNCTION L298NStart,0200H
        ARGFRAME ISTACK, 0, STACK
        ARGFRAME PSTACK, 0, STACK
        ARGFRAME XSTACK, 16, STACK
        ARGFRAME IOVERLAY, 0, STATIC
        ARGFRAME DOVERLAY, 0, STATIC
        EXTERN L298NClose
        FUNCTION L298NClose,0200H
        ARGFRAME ISTACK, 0, STACK
        ARGFRAME PSTACK, 0, STACK
        ARGFRAME XSTACK, 16, STACK
        ARGFRAME IOVERLAY, 0, STATIC
        ARGFRAME DOVERLAY, 0, STATIC
        EXTERN JDQ1Start
        FUNCTION JDQ1Start,0200H
        ARGFRAME ISTACK, 0, STACK
        ARGFRAME PSTACK, 0, STACK
        ARGFRAME XSTACK, 16, STACK
        ARGFRAME IOVERLAY, 0, STATIC
        ARGFRAME DOVERLAY, 0, STATIC
        EXTERN JDQ1Close
        FUNCTION JDQ1Close,0200H
        ARGFRAME ISTACK, 0, STACK
        ARGFRAME PSTACK, 0, STACK
        ARGFRAME XSTACK, 16, STACK
        ARGFRAME IOVERLAY, 0, STATIC
        ARGFRAME DOVERLAY, 0, STATIC
        EXTERN zb_SendDataRequest
        FUNCTION zb_SendDataRequest,0202H
        ARGFRAME ISTACK, 0, STACK
        ARGFRAME PSTACK, 0, STACK
        ARGFRAME XSTACK, 24, STACK
        ARGFRAME IOVERLAY, 0, STATIC
        ARGFRAME DOVERLAY, 0, STATIC
        EXTERN osal_start_timerEx
        FUNCTION osal_start_timerEx,0202H
        ARGFRAME ISTACK, 0, STACK
        ARGFRAME PSTACK, 0, STACK
        ARGFRAME XSTACK, 19, STACK
        ARGFRAME IOVERLAY, 0, STATIC
        ARGFRAME DOVERLAY, 0, STATIC
        EXTERN HalLedBlink
        FUNCTION HalLedBlink,0202H
        ARGFRAME ISTACK, 0, STACK
        ARGFRAME PSTACK, 0, STACK
        ARGFRAME XSTACK, 10, STACK
        ARGFRAME IOVERLAY, 0, STATIC
        ARGFRAME DOVERLAY, 0, STATIC
        EXTERN Initout
        FUNCTION Initout,0202H
        ARGFRAME ISTACK, 0, STACK
        ARGFRAME PSTACK, 0, STACK
        ARGFRAME XSTACK, 10, STACK
        ARGFRAME IOVERLAY, 0, STATIC
        ARGFRAME DOVERLAY, 0, STATIC
        EXTERN GetDht11Value
        FUNCTION GetDht11Value,0202H
        ARGFRAME ISTACK, 0, STACK
        ARGFRAME PSTACK, 0, STACK
        ARGFRAME XSTACK, 19, STACK
        ARGFRAME IOVERLAY, 0, STATIC
        ARGFRAME DOVERLAY, 0, STATIC
        EXTERN Get_ADCValue
        FUNCTION Get_ADCValue,0202H
        ARGFRAME ISTACK, 0, STACK
        ARGFRAME PSTACK, 0, STACK
        ARGFRAME XSTACK, 19, STACK
        ARGFRAME IOVERLAY, 0, STATIC
        ARGFRAME DOVERLAY, 0, STATIC
        EXTERN AirScan
        FUNCTION AirScan,0202H
        ARGFRAME ISTACK, 0, STACK
        ARGFRAME PSTACK, 0, STACK
        ARGFRAME XSTACK, 19, STACK
        ARGFRAME IOVERLAY, 0, STATIC
        ARGFRAME DOVERLAY, 0, STATIC
        EXTERN ??AirScan?relay
        FUNCTION ??AirScan?relay,00H
        EXTERN ??BEEClose?relay
        FUNCTION ??BEEClose?relay,00H
        EXTERN ??BEEStart?relay
        FUNCTION ??BEEStart?relay,00H
        EXTERN ??GetDht11Value?relay
        FUNCTION ??GetDht11Value?relay,00H
        EXTERN ??Get_ADCValue?relay
        FUNCTION ??Get_ADCValue?relay,00H
        EXTERN ??HalLedBlink?relay
        FUNCTION ??HalLedBlink?relay,00H
        EXTERN ??HalLedSet?relay
        FUNCTION ??HalLedSet?relay,00H
        EXTERN ??Initout?relay
        FUNCTION ??Initout?relay,00H
        EXTERN ??JDQ1Close?relay
        FUNCTION ??JDQ1Close?relay,00H
        EXTERN ??JDQ1Start?relay
        FUNCTION ??JDQ1Start?relay,00H
        EXTERN ??JDQClose?relay
        FUNCTION ??JDQClose?relay,00H
        EXTERN ??JDQStart?relay
        FUNCTION ??JDQStart?relay,00H
        EXTERN ??L298NClose?relay
        FUNCTION ??L298NClose?relay,00H
        EXTERN ??L298NStart?relay
        FUNCTION ??L298NStart?relay,00H
        EXTERN ??osal_start_timerEx?relay
        FUNCTION ??osal_start_timerEx?relay,00H
        EXTERN ??zb_SendDataRequest?relay
        FUNCTION ??zb_SendDataRequest?relay,00H
        EXTERN BZ
        EXTERN LZ
        EXTERN sapi_TaskID

// C:\Texas Instruments\ZStack-CC2530-2.5.1a\Projects\zstack\Samples\Diplomaproject\Source\ledDevice2.c
//    1 #include "smartHome.h"
//    2 #include "sapi.h"
//    3 #include "hal_led.h"
//    4 #include "dht11.h"
//    5 #include "adc.h"
//    6 #include "MQ-2.h"
//    7 #include "out.h"
//    8 #include "OnBoard.h"
//    9 #include "stdio.h"
//   10 #include "string.h"
//   11 
//   12 #define NUM_LED_1 3
//   13 #define NUM_LED_2 4
//   14 
//   15 #define LEDNUM  2

        RSEG XDATA_I:XDATA:NOROOT(0)
//   16 uint8 ledIdList[LEDNUM]={NUM_LED_1,NUM_LED_2};
ledIdList:
        DATA16
        DS 2
        REQUIRE `?<Initializer for ledIdList>`
        REQUIRE __INIT_XDATA_I
//   17 
//   18 #define NUM_IN_CMD_LEDDEVICE 1
//   19 #define NUM_OUT_CMD_LEDDEVICE 2
//   20 
//   21 extern int BZ,LZ;
//   22 

        RSEG XDATA_ROM_C:CONST:REORDER:NOROOT(0)
        DATA16
//   23 const cId_t ledDeviceInputCommandList[NUM_IN_CMD_LEDDEVICE]=
ledDeviceInputCommandList:
        DW 2
//   24 {TOGGLE_LED_CMD_ID};

        RSEG XDATA_ROM_C:CONST:REORDER:NOROOT(0)
        DATA32
//   25 const cId_t ledDeviceOutputCommandList[NUM_OUT_CMD_LEDDEVICE]=
ledDeviceOutputCommandList:
        DATA16
        DW 1
        DW 3
//   26 {LEDJOINNET_CMD_ID,HEART_BEAT_CMD_ID};

        RSEG XDATA_ROM_C:CONST:REORDER:NOROOT(0)
        DATA8
//   27 const SimpleDescriptionFormat_t zb_SimpleDesc=
zb_SimpleDesc:
        DB 1
        DATA16
        DW 1281
        DW 2
        DATA8
        DB 0
        DB 1
        DATA16
        DW ledDeviceInputCommandList
        DATA8
        DB 2
        DATA16
        DW ledDeviceOutputCommandList
//   28 {
//   29   ENDPOINT_ID_SMARTHOME,
//   30   PROFILE_ID_SMARTHOME,
//   31   DEVICE_ID_LEDDEVICE,
//   32   DEVIDE_VERSION_ID,
//   33   0,
//   34   NUM_IN_CMD_LEDDEVICE,
//   35   (cId_t*)ledDeviceInputCommandList,
//   36   NUM_OUT_CMD_LEDDEVICE,
//   37   (cId_t*)ledDeviceOutputCommandList  
//   38 };
//   39 /***********
//   40 æ‰§è¡Œæ—¶æœºï¼šå‘é€çš„æ•°æ®åŒ…è¢«æŽ¥æ”¶æ–¹æ”¶åˆ°æ—¶è¢«è°ƒç”?handle:åŒ…çš„ç¼–å·ï¼?status:ZSUCCESSè¡¨ç¤ºæˆåŠŸæŽ¥æ”¶
//   41 ************/

        RSEG BANKED_CODE:CODE:NOROOT(0)
//   42 void zb_SendDataConfirm( uint8 handle, uint8 status )
zb_SendDataConfirm:
        CFI Block cfiBlock0 Using cfiCommon0
        CFI Function zb_SendDataConfirm
        CODE
//   43 {
        ; Saved register size: 0
        ; Auto size: 0
//   44   
//   45 }
        LJMP    ?BRET
        CFI EndBlock cfiBlock0
//   46 
//   47 /***********
//   48 æ‰§è¡Œæ—¶æœºï¼šæŽ¥æ”¶åˆ°çš„æ•°æ®åŒ…è¢«è°ƒç”?************/

        RSEG BANKED_CODE:CODE:NOROOT(0)
//   49 void zb_ReceiveDataIndication( uint16 source, uint16 command, 
zb_ReceiveDataIndication:
        CFI Block cfiBlock1 Using cfiCommon0
        CFI Function zb_ReceiveDataIndication
        CODE
//   50                               uint16 len, uint8 *pData  )
//   51 {
        FUNCALL zb_ReceiveDataIndication, HalLedSet
        LOCFRAME ISTACK, 0, STACK
        LOCFRAME PSTACK, 0, STACK
        LOCFRAME XSTACK, 16, STACK
        LOCFRAME IOVERLAY, 0, STATIC
        LOCFRAME DOVERLAY, 0, STATIC
        ARGFRAME ISTACK, 0, STACK
        ARGFRAME PSTACK, 0, STACK
        ARGFRAME XSTACK, 16, STACK
        ARGFRAME IOVERLAY, 0, STATIC
        ARGFRAME DOVERLAY, 0, STATIC
        FUNCALL zb_ReceiveDataIndication, HalLedSet
        LOCFRAME ISTACK, 0, STACK
        LOCFRAME PSTACK, 0, STACK
        LOCFRAME XSTACK, 16, STACK
        LOCFRAME IOVERLAY, 0, STATIC
        LOCFRAME DOVERLAY, 0, STATIC
        ARGFRAME ISTACK, 0, STACK
        ARGFRAME PSTACK, 0, STACK
        ARGFRAME XSTACK, 16, STACK
        ARGFRAME IOVERLAY, 0, STATIC
        ARGFRAME DOVERLAY, 0, STATIC
        FUNCALL zb_ReceiveDataIndication, BEEStart
        LOCFRAME ISTACK, 0, STACK
        LOCFRAME PSTACK, 0, STACK
        LOCFRAME XSTACK, 16, STACK
        LOCFRAME IOVERLAY, 0, STATIC
        LOCFRAME DOVERLAY, 0, STATIC
        ARGFRAME ISTACK, 0, STACK
        ARGFRAME PSTACK, 0, STACK
        ARGFRAME XSTACK, 16, STACK
        ARGFRAME IOVERLAY, 0, STATIC
        ARGFRAME DOVERLAY, 0, STATIC
        FUNCALL zb_ReceiveDataIndication, BEEClose
        LOCFRAME ISTACK, 0, STACK
        LOCFRAME PSTACK, 0, STACK
        LOCFRAME XSTACK, 16, STACK
        LOCFRAME IOVERLAY, 0, STATIC
        LOCFRAME DOVERLAY, 0, STATIC
        ARGFRAME ISTACK, 0, STACK
        ARGFRAME PSTACK, 0, STACK
        ARGFRAME XSTACK, 16, STACK
        ARGFRAME IOVERLAY, 0, STATIC
        ARGFRAME DOVERLAY, 0, STATIC
        FUNCALL zb_ReceiveDataIndication, JDQStart
        LOCFRAME ISTACK, 0, STACK
        LOCFRAME PSTACK, 0, STACK
        LOCFRAME XSTACK, 16, STACK
        LOCFRAME IOVERLAY, 0, STATIC
        LOCFRAME DOVERLAY, 0, STATIC
        ARGFRAME ISTACK, 0, STACK
        ARGFRAME PSTACK, 0, STACK
        ARGFRAME XSTACK, 16, STACK
        ARGFRAME IOVERLAY, 0, STATIC
        ARGFRAME DOVERLAY, 0, STATIC
        FUNCALL zb_ReceiveDataIndication, JDQClose
        LOCFRAME ISTACK, 0, STACK
        LOCFRAME PSTACK, 0, STACK
        LOCFRAME XSTACK, 16, STACK
        LOCFRAME IOVERLAY, 0, STATIC
        LOCFRAME DOVERLAY, 0, STATIC
        ARGFRAME ISTACK, 0, STACK
        ARGFRAME PSTACK, 0, STACK
        ARGFRAME XSTACK, 16, STACK
        ARGFRAME IOVERLAY, 0, STATIC
        ARGFRAME DOVERLAY, 0, STATIC
        FUNCALL zb_ReceiveDataIndication, HalLedSet
        LOCFRAME ISTACK, 0, STACK
        LOCFRAME PSTACK, 0, STACK
        LOCFRAME XSTACK, 16, STACK
        LOCFRAME IOVERLAY, 0, STATIC
        LOCFRAME DOVERLAY, 0, STATIC
        ARGFRAME ISTACK, 0, STACK
        ARGFRAME PSTACK, 0, STACK
        ARGFRAME XSTACK, 16, STACK
        ARGFRAME IOVERLAY, 0, STATIC
        ARGFRAME DOVERLAY, 0, STATIC
        FUNCALL zb_ReceiveDataIndication, HalLedSet
        LOCFRAME ISTACK, 0, STACK
        LOCFRAME PSTACK, 0, STACK
        LOCFRAME XSTACK, 16, STACK
        LOCFRAME IOVERLAY, 0, STATIC
        LOCFRAME DOVERLAY, 0, STATIC
        ARGFRAME ISTACK, 0, STACK
        ARGFRAME PSTACK, 0, STACK
        ARGFRAME XSTACK, 16, STACK
        ARGFRAME IOVERLAY, 0, STATIC
        ARGFRAME DOVERLAY, 0, STATIC
        FUNCALL zb_ReceiveDataIndication, L298NStart
        LOCFRAME ISTACK, 0, STACK
        LOCFRAME PSTACK, 0, STACK
        LOCFRAME XSTACK, 16, STACK
        LOCFRAME IOVERLAY, 0, STATIC
        LOCFRAME DOVERLAY, 0, STATIC
        ARGFRAME ISTACK, 0, STACK
        ARGFRAME PSTACK, 0, STACK
        ARGFRAME XSTACK, 16, STACK
        ARGFRAME IOVERLAY, 0, STATIC
        ARGFRAME DOVERLAY, 0, STATIC
        FUNCALL zb_ReceiveDataIndication, L298NClose
        LOCFRAME ISTACK, 0, STACK
        LOCFRAME PSTACK, 0, STACK
        LOCFRAME XSTACK, 16, STACK
        LOCFRAME IOVERLAY, 0, STATIC
        LOCFRAME DOVERLAY, 0, STATIC
        ARGFRAME ISTACK, 0, STACK
        ARGFRAME PSTACK, 0, STACK
        ARGFRAME XSTACK, 16, STACK
        ARGFRAME IOVERLAY, 0, STATIC
        ARGFRAME DOVERLAY, 0, STATIC
        FUNCALL zb_ReceiveDataIndication, JDQ1Start
        LOCFRAME ISTACK, 0, STACK
        LOCFRAME PSTACK, 0, STACK
        LOCFRAME XSTACK, 16, STACK
        LOCFRAME IOVERLAY, 0, STATIC
        LOCFRAME DOVERLAY, 0, STATIC
        ARGFRAME ISTACK, 0, STACK
        ARGFRAME PSTACK, 0, STACK
        ARGFRAME XSTACK, 16, STACK
        ARGFRAME IOVERLAY, 0, STATIC
        ARGFRAME DOVERLAY, 0, STATIC
        FUNCALL zb_ReceiveDataIndication, JDQ1Close
        LOCFRAME ISTACK, 0, STACK
        LOCFRAME PSTACK, 0, STACK
        LOCFRAME XSTACK, 16, STACK
        LOCFRAME IOVERLAY, 0, STATIC
        LOCFRAME DOVERLAY, 0, STATIC
        ARGFRAME ISTACK, 0, STACK
        ARGFRAME PSTACK, 0, STACK
        ARGFRAME XSTACK, 16, STACK
        ARGFRAME IOVERLAY, 0, STATIC
        ARGFRAME DOVERLAY, 0, STATIC
        MOV     A,#-0x10
        LCALL   ?BANKED_ENTER_XDATA
        CFI DPH0 load(1, XDATA, add(CFA_XSP16, literal(-1)))
        CFI DPL0 load(1, XDATA, add(CFA_XSP16, literal(-2)))
        CFI ?BRET_EXT load(1, XDATA, add(CFA_XSP16, literal(-3)))
        CFI ?RET_HIGH load(1, XDATA, add(CFA_XSP16, literal(-4)))
        CFI ?RET_LOW load(1, XDATA, add(CFA_XSP16, literal(-5)))
        CFI R7 load(1, XDATA, add(CFA_XSP16, literal(-6)))
        CFI V7 load(1, XDATA, add(CFA_XSP16, literal(-7)))
        CFI V6 load(1, XDATA, add(CFA_XSP16, literal(-8)))
        CFI V5 load(1, XDATA, add(CFA_XSP16, literal(-9)))
        CFI V4 load(1, XDATA, add(CFA_XSP16, literal(-10)))
        CFI V3 load(1, XDATA, add(CFA_XSP16, literal(-11)))
        CFI V2 load(1, XDATA, add(CFA_XSP16, literal(-12)))
        CFI V1 load(1, XDATA, add(CFA_XSP16, literal(-13)))
        CFI V0 load(1, XDATA, add(CFA_XSP16, literal(-14)))
        CFI VB load(1, XDATA, add(CFA_XSP16, literal(-15)))
        CFI R6 load(1, XDATA, add(CFA_XSP16, literal(-16)))
        CFI CFA_SP SP+0
        CFI CFA_XSP16 add(XSP16, 16)
        ; Saved register size: 16
        ; Auto size: 0
        MOV     ?V0 + 0,R2
        MOV     ?V0 + 1,R3
        MOV     A,R4
        MOV     R6,A
        MOV     A,R5
        MOV     R7,A
        MOV     A,#0x10
        LCALL   ?XSTACK_DISP0_8
        MOVX    A,@DPTR
        MOV     ?V0 + 4,A
        INC     DPTR
        MOVX    A,@DPTR
        MOV     ?V0 + 5,A
        MOV     A,#0x12
        LCALL   ?XSTACK_DISP0_8
        MOVX    A,@DPTR
        MOV     R0,A
        INC     DPTR
        MOVX    A,@DPTR
        MOV     R1,A
        MOV     ?V0 + 2,R0
        MOV     ?V0 + 3,R1
//   52   if(command==TOGGLE_LED_CMD_ID)
        MOV     A,#0x2
        XRL     A,R6
        JNZ     ??zb_ReceiveDataIndication_0
        MOV     A,#0x0
        XRL     A,R7
??zb_ReceiveDataIndication_0:
        JZ      $+5
        LJMP    ??zb_ReceiveDataIndication_1 & 0xFFFF
//   53   {
//   54     uint8 led_num=pData[0];
        MOV     DPL,?V0 + 2
        MOV     DPH,?V0 + 3
        MOVX    A,@DPTR
        MOV     ?V0 + 6,A
//   55     uint8 led_status=pData[1];
        MOV     DPL,?V0 + 2
        MOV     DPH,?V0 + 3
        INC     DPTR
        MOVX    A,@DPTR
        MOV     ?V0 + 7,A
//   56     
//   57     if(led_num==NUM_LED_1)
        MOV     A,#0x3
        XRL     A,?V0 + 6
        JNZ     ??zb_ReceiveDataIndication_2
//   58     {
//   59       if(led_status==1)
        MOV     A,#0x1
        XRL     A,?V0 + 7
        JNZ     ??zb_ReceiveDataIndication_3
//   60         HalLedSet(HAL_LED_1,HAL_LED_MODE_ON);
        ; Setup parameters for call to function HalLedSet
        MOV     R2,#0x1
        MOV     R1,#0x1
        LCALL   ??HalLedSet?relay
        MOV     A,R1
        LJMP    ??zb_ReceiveDataIndication_1 & 0xFFFF
//   61       else if(led_status==0)
??zb_ReceiveDataIndication_3:
        MOV     A,?V0 + 7
        JNZ     ??zb_ReceiveDataIndication_4
//   62         HalLedSet(HAL_LED_1,HAL_LED_MODE_OFF);
        ; Setup parameters for call to function HalLedSet
        MOV     R2,#0x0
        MOV     R1,#0x1
        LCALL   ??HalLedSet?relay
        MOV     A,R1
        LJMP    ??zb_ReceiveDataIndication_1 & 0xFFFF
//   63       else if(led_status==2)
??zb_ReceiveDataIndication_4:
        MOV     A,#0x2
        XRL     A,?V0 + 7
        JNZ     ??zb_ReceiveDataIndication_5
//   64       {
//   65         BEEStart();
        ; Setup parameters for call to function BEEStart
        LCALL   ??BEEStart?relay
        LJMP    ??zb_ReceiveDataIndication_1 & 0xFFFF
//   66       }
//   67       else if(led_status==3)
??zb_ReceiveDataIndication_5:
        MOV     A,#0x3
        XRL     A,?V0 + 7
        JNZ     ??zb_ReceiveDataIndication_6
//   68       {
//   69         BEEClose();
        ; Setup parameters for call to function BEEClose
        LCALL   ??BEEClose?relay
        LJMP    ??zb_ReceiveDataIndication_1 & 0xFFFF
//   70       }
//   71       else if(led_status==4)
??zb_ReceiveDataIndication_6:
        MOV     A,#0x4
        XRL     A,?V0 + 7
        JNZ     ??zb_ReceiveDataIndication_7
//   72       {
//   73         JDQStart();
        ; Setup parameters for call to function JDQStart
        LCALL   ??JDQStart?relay
        LJMP    ??zb_ReceiveDataIndication_1 & 0xFFFF
//   74       }
//   75       else if(led_status==5)
??zb_ReceiveDataIndication_7:
        MOV     A,#0x5
        XRL     A,?V0 + 7
        JNZ     ??zb_ReceiveDataIndication_8
//   76       {
//   77         JDQClose();
        ; Setup parameters for call to function JDQClose
        LCALL   ??JDQClose?relay
        LJMP    ??zb_ReceiveDataIndication_1 & 0xFFFF
//   78       }
//   79       else if(led_status==6)
??zb_ReceiveDataIndication_8:
        MOV     A,#0x6
        XRL     A,?V0 + 7
        JNZ     ??zb_ReceiveDataIndication_9
//   80       {
//   81         BZ=1;
        MOV     DPTR,#BZ
        MOV     A,#0x1
        MOVX    @DPTR,A
        INC     DPTR
        MOV     A,#0x0
        MOVX    @DPTR,A
        LJMP    ??zb_ReceiveDataIndication_1 & 0xFFFF
//   82       }
//   83       else if(led_status==7)
??zb_ReceiveDataIndication_9:
        MOV     A,#0x7
        XRL     A,?V0 + 7
        JNZ     ??zb_ReceiveDataIndication_1
//   84       {
//   85         BZ=0;
        MOV     DPTR,#BZ
        MOV     A,#0x0
        MOVX    @DPTR,A
        INC     DPTR
        MOV     A,#0x0
        MOVX    @DPTR,A
        SJMP    ??zb_ReceiveDataIndication_1
//   86       }
//   87     }
//   88     else if(led_num==NUM_LED_2)
??zb_ReceiveDataIndication_2:
        MOV     A,#0x4
        XRL     A,?V0 + 6
        JNZ     ??zb_ReceiveDataIndication_1
//   89     {
//   90       if(led_status==1)
        MOV     A,#0x1
        XRL     A,?V0 + 7
        JNZ     ??zb_ReceiveDataIndication_10
//   91         HalLedSet(HAL_LED_2,HAL_LED_MODE_ON);
        ; Setup parameters for call to function HalLedSet
        MOV     R2,#0x1
        MOV     R1,#0x2
        LCALL   ??HalLedSet?relay
        MOV     A,R1
        SJMP    ??zb_ReceiveDataIndication_1
//   92       else if(led_status==0)
??zb_ReceiveDataIndication_10:
        MOV     A,?V0 + 7
        JNZ     ??zb_ReceiveDataIndication_11
//   93         HalLedSet(HAL_LED_2,HAL_LED_MODE_OFF);
        ; Setup parameters for call to function HalLedSet
        MOV     R2,#0x0
        MOV     R1,#0x2
        LCALL   ??HalLedSet?relay
        MOV     A,R1
        SJMP    ??zb_ReceiveDataIndication_1
//   94       else if(led_status==2)
??zb_ReceiveDataIndication_11:
        MOV     A,#0x2
        XRL     A,?V0 + 7
        JNZ     ??zb_ReceiveDataIndication_12
//   95       {
//   96         L298NStart();
        ; Setup parameters for call to function L298NStart
        LCALL   ??L298NStart?relay
        SJMP    ??zb_ReceiveDataIndication_1
//   97       }
//   98       else if(led_status==3)
??zb_ReceiveDataIndication_12:
        MOV     A,#0x3
        XRL     A,?V0 + 7
        JNZ     ??zb_ReceiveDataIndication_13
//   99       {
//  100         L298NClose();
        ; Setup parameters for call to function L298NClose
        LCALL   ??L298NClose?relay
        SJMP    ??zb_ReceiveDataIndication_1
//  101       }
//  102       else if(led_status==4)
??zb_ReceiveDataIndication_13:
        MOV     A,#0x4
        XRL     A,?V0 + 7
        JNZ     ??zb_ReceiveDataIndication_14
//  103       {
//  104         JDQ1Start();
        ; Setup parameters for call to function JDQ1Start
        LCALL   ??JDQ1Start?relay
        SJMP    ??zb_ReceiveDataIndication_1
//  105       }
//  106       else if(led_status==5)
??zb_ReceiveDataIndication_14:
        MOV     A,#0x5
        XRL     A,?V0 + 7
        JNZ     ??zb_ReceiveDataIndication_15
//  107       {
//  108         JDQ1Close();
        ; Setup parameters for call to function JDQ1Close
        LCALL   ??JDQ1Close?relay
        SJMP    ??zb_ReceiveDataIndication_1
//  109       }
//  110       else if(led_status==6)
??zb_ReceiveDataIndication_15:
        MOV     A,#0x6
        XRL     A,?V0 + 7
        JNZ     ??zb_ReceiveDataIndication_16
//  111       {
//  112         LZ=1;
        MOV     DPTR,#LZ
        MOV     A,#0x1
        MOVX    @DPTR,A
        INC     DPTR
        MOV     A,#0x0
        MOVX    @DPTR,A
        SJMP    ??zb_ReceiveDataIndication_1
//  113       }
//  114       else if(led_status==7)
??zb_ReceiveDataIndication_16:
        MOV     A,#0x7
        XRL     A,?V0 + 7
        JNZ     ??zb_ReceiveDataIndication_1
//  115       {
//  116         LZ=0;
        MOV     DPTR,#LZ
        MOV     A,#0x0
        MOVX    @DPTR,A
        INC     DPTR
        MOV     A,#0x0
        MOVX    @DPTR,A
//  117       }
//  118     }
//  119   }
//  120 }
??zb_ReceiveDataIndication_1:
        MOV     R7,#0x8
        LJMP    ?BANKED_LEAVE_XDATA
        CFI EndBlock cfiBlock1
//  121 
//  122 

        RSEG BANKED_CODE:CODE:NOROOT(0)
//  123 void zb_AllowBindConfirm( uint16 source )
zb_AllowBindConfirm:
        CFI Block cfiBlock2 Using cfiCommon0
        CFI Function zb_AllowBindConfirm
        CODE
//  124 {
        ; Saved register size: 0
        ; Auto size: 0
//  125 }
        LJMP    ?BRET
        CFI EndBlock cfiBlock2
//  126 

        RSEG BANKED_CODE:CODE:NOROOT(0)
//  127 void zb_HandleKeys( uint8 shift, uint8 keys )
zb_HandleKeys:
        CFI Block cfiBlock3 Using cfiCommon0
        CFI Function zb_HandleKeys
        CODE
//  128 {
        ; Saved register size: 0
        ; Auto size: 0
//  129   
//  130 }
        LJMP    ?BRET
        CFI EndBlock cfiBlock3
//  131 

        RSEG BANKED_CODE:CODE:NOROOT(0)
//  132 void zb_BindConfirm( uint16 commandId, uint8 status )
zb_BindConfirm:
        CFI Block cfiBlock4 Using cfiCommon0
        CFI Function zb_BindConfirm
        CODE
//  133 {
        ; Saved register size: 0
        ; Auto size: 0
//  134 }
        LJMP    ?BRET
        CFI EndBlock cfiBlock4
//  135 

        RSEG BANKED_CODE:CODE:NOROOT(0)
//  136 void zb_StartConfirm( uint8 status )
zb_StartConfirm:
        CFI Block cfiBlock5 Using cfiCommon0
        CFI Function zb_StartConfirm
        CODE
//  137 {
        FUNCALL zb_StartConfirm, zb_SendDataRequest
        LOCFRAME ISTACK, 0, STACK
        LOCFRAME PSTACK, 0, STACK
        LOCFRAME XSTACK, 15, STACK
        LOCFRAME IOVERLAY, 0, STATIC
        LOCFRAME DOVERLAY, 0, STATIC
        ARGFRAME ISTACK, 0, STACK
        ARGFRAME PSTACK, 0, STACK
        ARGFRAME XSTACK, 15, STACK
        ARGFRAME IOVERLAY, 0, STATIC
        ARGFRAME DOVERLAY, 0, STATIC
        FUNCALL zb_StartConfirm, osal_start_timerEx
        LOCFRAME ISTACK, 0, STACK
        LOCFRAME PSTACK, 0, STACK
        LOCFRAME XSTACK, 10, STACK
        LOCFRAME IOVERLAY, 0, STATIC
        LOCFRAME DOVERLAY, 0, STATIC
        ARGFRAME ISTACK, 0, STACK
        ARGFRAME PSTACK, 0, STACK
        ARGFRAME XSTACK, 10, STACK
        ARGFRAME IOVERLAY, 0, STATIC
        ARGFRAME DOVERLAY, 0, STATIC
        FUNCALL zb_StartConfirm, osal_start_timerEx
        LOCFRAME ISTACK, 0, STACK
        LOCFRAME PSTACK, 0, STACK
        LOCFRAME XSTACK, 10, STACK
        LOCFRAME IOVERLAY, 0, STATIC
        LOCFRAME DOVERLAY, 0, STATIC
        ARGFRAME ISTACK, 0, STACK
        ARGFRAME PSTACK, 0, STACK
        ARGFRAME XSTACK, 10, STACK
        ARGFRAME IOVERLAY, 0, STATIC
        ARGFRAME DOVERLAY, 0, STATIC
        FUNCALL zb_StartConfirm, HalLedBlink
        LOCFRAME ISTACK, 0, STACK
        LOCFRAME PSTACK, 0, STACK
        LOCFRAME XSTACK, 10, STACK
        LOCFRAME IOVERLAY, 0, STATIC
        LOCFRAME DOVERLAY, 0, STATIC
        ARGFRAME ISTACK, 0, STACK
        ARGFRAME PSTACK, 0, STACK
        ARGFRAME XSTACK, 10, STACK
        ARGFRAME IOVERLAY, 0, STATIC
        ARGFRAME DOVERLAY, 0, STATIC
        FUNCALL zb_StartConfirm, Initout
        LOCFRAME ISTACK, 0, STACK
        LOCFRAME PSTACK, 0, STACK
        LOCFRAME XSTACK, 10, STACK
        LOCFRAME IOVERLAY, 0, STATIC
        LOCFRAME DOVERLAY, 0, STATIC
        ARGFRAME ISTACK, 0, STACK
        ARGFRAME PSTACK, 0, STACK
        ARGFRAME XSTACK, 10, STACK
        ARGFRAME IOVERLAY, 0, STATIC
        ARGFRAME DOVERLAY, 0, STATIC
        MOV     A,#-0xa
        LCALL   ?BANKED_ENTER_XDATA
        CFI DPH0 load(1, XDATA, add(CFA_XSP16, literal(-1)))
        CFI DPL0 load(1, XDATA, add(CFA_XSP16, literal(-2)))
        CFI ?BRET_EXT load(1, XDATA, add(CFA_XSP16, literal(-3)))
        CFI ?RET_HIGH load(1, XDATA, add(CFA_XSP16, literal(-4)))
        CFI ?RET_LOW load(1, XDATA, add(CFA_XSP16, literal(-5)))
        CFI R7 load(1, XDATA, add(CFA_XSP16, literal(-6)))
        CFI V1 load(1, XDATA, add(CFA_XSP16, literal(-7)))
        CFI V0 load(1, XDATA, add(CFA_XSP16, literal(-8)))
        CFI VB load(1, XDATA, add(CFA_XSP16, literal(-9)))
        CFI R6 load(1, XDATA, add(CFA_XSP16, literal(-10)))
        CFI CFA_SP SP+0
        CFI CFA_XSP16 add(XSP16, 10)
        ; Saved register size: 10
        ; Auto size: 0
        MOV     A,R1
        MOV     R6,A
//  138   if(status==ZSUCCESS)
        JNZ     ??zb_StartConfirm_0
//  139   {
//  140     //å¯æŠŠèŠ‚ç‚¹æ‰€åŒ…å«çš„ledç¯çš„IDå·å‘é€è¿‡åŽ?    
//  141     zb_SendDataRequest(0X0,LEDJOINNET_CMD_ID,
//  142                        LEDNUM,ledIdList,0,FALSE,AF_DEFAULT_RADIUS);
        ; Setup parameters for call to function zb_SendDataRequest
        MOV     ?V0 + 0,#0x1e
        MOV     R0,#?V0 + 0
        LCALL   ?PUSH_XSTACK_I_ONE
        CFI CFA_XSP16 add(XSP16, 11)
        MOV     ?V0 + 0,#0x0
        MOV     R0,#?V0 + 0
        LCALL   ?PUSH_XSTACK_I_ONE
        CFI CFA_XSP16 add(XSP16, 12)
        MOV     ?V0 + 0,#0x0
        MOV     R0,#?V0 + 0
        LCALL   ?PUSH_XSTACK_I_ONE
        CFI CFA_XSP16 add(XSP16, 13)
        MOV     ?V0 + 0,#ledIdList & 0xff
        MOV     ?V0 + 1,#(ledIdList >> 8) & 0xff
        MOV     R0,#?V0 + 0
        LCALL   ?PUSH_XSTACK_I_TWO
        CFI CFA_XSP16 add(XSP16, 15)
        MOV     R1,#0x2
        MOV     R4,#0x1
        MOV     R5,#0x0
        MOV     R2,#0x0
        MOV     R3,#0x0
        LCALL   ??zb_SendDataRequest?relay
        MOV     A,#0x5
        LCALL   ?DEALLOC_XSTACK8
        CFI CFA_XSP16 add(XSP16, 10)
//  143     osal_start_timerEx(sapi_TaskID,TIMER_TIMEOUT_EVT,4000);
        ; Setup parameters for call to function osal_start_timerEx
        MOV     R4,#-0x60
        MOV     R5,#0xf
        MOV     R2,#0x1
        MOV     R3,#0x0
        MOV     DPTR,#sapi_TaskID
        MOVX    A,@DPTR
        MOV     R1,A
        LCALL   ??osal_start_timerEx?relay
        MOV     A,R1
//  144     osal_start_timerEx(sapi_TaskID,DHT11_PERIOD_EVT,5000);
        ; Setup parameters for call to function osal_start_timerEx
        MOV     R4,#-0x78
        MOV     R5,#0x13
        MOV     R2,#0x2
        MOV     R3,#0x0
        MOV     DPTR,#sapi_TaskID
        MOVX    A,@DPTR
        MOV     R1,A
        LCALL   ??osal_start_timerEx?relay
        MOV     A,R1
//  145     HalLedBlink(HAL_LED_ALL,5,50,2000);
        ; Setup parameters for call to function HalLedBlink
        MOV     R4,#-0x30
        MOV     R5,#0x7
        MOV     R3,#0x32
        MOV     R2,#0x5
        MOV     R1,#0xf
        LCALL   ??HalLedBlink?relay
//  146      
//  147     Initout();
        ; Setup parameters for call to function Initout
        LCALL   ??Initout?relay
//  148   }
//  149 }
??zb_StartConfirm_0:
        MOV     R7,#0x2
        LJMP    ?BANKED_LEAVE_XDATA
        CFI EndBlock cfiBlock5
//  150 

        RSEG BANKED_CODE:CODE:NOROOT(0)
//  151 void zb_HandleOsalEvent( uint16 event )
zb_HandleOsalEvent:
        CFI Block cfiBlock6 Using cfiCommon0
        CFI Function zb_HandleOsalEvent
        CODE
//  152 {
        FUNCALL zb_HandleOsalEvent, osal_start_timerEx
        LOCFRAME ISTACK, 0, STACK
        LOCFRAME PSTACK, 0, STACK
        LOCFRAME XSTACK, 19, STACK
        LOCFRAME IOVERLAY, 0, STATIC
        LOCFRAME DOVERLAY, 0, STATIC
        ARGFRAME ISTACK, 0, STACK
        ARGFRAME PSTACK, 0, STACK
        ARGFRAME XSTACK, 19, STACK
        ARGFRAME IOVERLAY, 0, STATIC
        ARGFRAME DOVERLAY, 0, STATIC
        FUNCALL zb_HandleOsalEvent, zb_SendDataRequest
        LOCFRAME ISTACK, 0, STACK
        LOCFRAME PSTACK, 0, STACK
        LOCFRAME XSTACK, 24, STACK
        LOCFRAME IOVERLAY, 0, STATIC
        LOCFRAME DOVERLAY, 0, STATIC
        ARGFRAME ISTACK, 0, STACK
        ARGFRAME PSTACK, 0, STACK
        ARGFRAME XSTACK, 24, STACK
        ARGFRAME IOVERLAY, 0, STATIC
        ARGFRAME DOVERLAY, 0, STATIC
        FUNCALL zb_HandleOsalEvent, osal_start_timerEx
        LOCFRAME ISTACK, 0, STACK
        LOCFRAME PSTACK, 0, STACK
        LOCFRAME XSTACK, 19, STACK
        LOCFRAME IOVERLAY, 0, STATIC
        LOCFRAME DOVERLAY, 0, STATIC
        ARGFRAME ISTACK, 0, STACK
        ARGFRAME PSTACK, 0, STACK
        ARGFRAME XSTACK, 19, STACK
        ARGFRAME IOVERLAY, 0, STATIC
        ARGFRAME DOVERLAY, 0, STATIC
        FUNCALL zb_HandleOsalEvent, GetDht11Value
        LOCFRAME ISTACK, 0, STACK
        LOCFRAME PSTACK, 0, STACK
        LOCFRAME XSTACK, 19, STACK
        LOCFRAME IOVERLAY, 0, STATIC
        LOCFRAME DOVERLAY, 0, STATIC
        ARGFRAME ISTACK, 0, STACK
        ARGFRAME PSTACK, 0, STACK
        ARGFRAME XSTACK, 19, STACK
        ARGFRAME IOVERLAY, 0, STATIC
        ARGFRAME DOVERLAY, 0, STATIC
        FUNCALL zb_HandleOsalEvent, Get_ADCValue
        LOCFRAME ISTACK, 0, STACK
        LOCFRAME PSTACK, 0, STACK
        LOCFRAME XSTACK, 19, STACK
        LOCFRAME IOVERLAY, 0, STATIC
        LOCFRAME DOVERLAY, 0, STATIC
        ARGFRAME ISTACK, 0, STACK
        ARGFRAME PSTACK, 0, STACK
        ARGFRAME XSTACK, 19, STACK
        ARGFRAME IOVERLAY, 0, STATIC
        ARGFRAME DOVERLAY, 0, STATIC
        FUNCALL zb_HandleOsalEvent, AirScan
        LOCFRAME ISTACK, 0, STACK
        LOCFRAME PSTACK, 0, STACK
        LOCFRAME XSTACK, 19, STACK
        LOCFRAME IOVERLAY, 0, STATIC
        LOCFRAME DOVERLAY, 0, STATIC
        ARGFRAME ISTACK, 0, STACK
        ARGFRAME PSTACK, 0, STACK
        ARGFRAME XSTACK, 19, STACK
        ARGFRAME IOVERLAY, 0, STATIC
        ARGFRAME DOVERLAY, 0, STATIC
        FUNCALL zb_HandleOsalEvent, HalLedSet
        LOCFRAME ISTACK, 0, STACK
        LOCFRAME PSTACK, 0, STACK
        LOCFRAME XSTACK, 19, STACK
        LOCFRAME IOVERLAY, 0, STATIC
        LOCFRAME DOVERLAY, 0, STATIC
        ARGFRAME ISTACK, 0, STACK
        ARGFRAME PSTACK, 0, STACK
        ARGFRAME XSTACK, 19, STACK
        ARGFRAME IOVERLAY, 0, STATIC
        ARGFRAME DOVERLAY, 0, STATIC
        FUNCALL zb_HandleOsalEvent, HalLedSet
        LOCFRAME ISTACK, 0, STACK
        LOCFRAME PSTACK, 0, STACK
        LOCFRAME XSTACK, 19, STACK
        LOCFRAME IOVERLAY, 0, STATIC
        LOCFRAME DOVERLAY, 0, STATIC
        ARGFRAME ISTACK, 0, STACK
        ARGFRAME PSTACK, 0, STACK
        ARGFRAME XSTACK, 19, STACK
        ARGFRAME IOVERLAY, 0, STATIC
        ARGFRAME DOVERLAY, 0, STATIC
        FUNCALL zb_HandleOsalEvent, HalLedSet
        LOCFRAME ISTACK, 0, STACK
        LOCFRAME PSTACK, 0, STACK
        LOCFRAME XSTACK, 19, STACK
        LOCFRAME IOVERLAY, 0, STATIC
        LOCFRAME DOVERLAY, 0, STATIC
        ARGFRAME ISTACK, 0, STACK
        ARGFRAME PSTACK, 0, STACK
        ARGFRAME XSTACK, 19, STACK
        ARGFRAME IOVERLAY, 0, STATIC
        ARGFRAME DOVERLAY, 0, STATIC
        FUNCALL zb_HandleOsalEvent, HalLedSet
        LOCFRAME ISTACK, 0, STACK
        LOCFRAME PSTACK, 0, STACK
        LOCFRAME XSTACK, 19, STACK
        LOCFRAME IOVERLAY, 0, STATIC
        LOCFRAME DOVERLAY, 0, STATIC
        ARGFRAME ISTACK, 0, STACK
        ARGFRAME PSTACK, 0, STACK
        ARGFRAME XSTACK, 19, STACK
        ARGFRAME IOVERLAY, 0, STATIC
        ARGFRAME DOVERLAY, 0, STATIC
        FUNCALL zb_HandleOsalEvent, zb_SendDataRequest
        LOCFRAME ISTACK, 0, STACK
        LOCFRAME PSTACK, 0, STACK
        LOCFRAME XSTACK, 24, STACK
        LOCFRAME IOVERLAY, 0, STATIC
        LOCFRAME DOVERLAY, 0, STATIC
        ARGFRAME ISTACK, 0, STACK
        ARGFRAME PSTACK, 0, STACK
        ARGFRAME XSTACK, 24, STACK
        ARGFRAME IOVERLAY, 0, STATIC
        ARGFRAME DOVERLAY, 0, STATIC
        MOV     A,#-0xc
        LCALL   ?BANKED_ENTER_XDATA
        CFI DPH0 load(1, XDATA, add(CFA_XSP16, literal(-1)))
        CFI DPL0 load(1, XDATA, add(CFA_XSP16, literal(-2)))
        CFI ?BRET_EXT load(1, XDATA, add(CFA_XSP16, literal(-3)))
        CFI ?RET_HIGH load(1, XDATA, add(CFA_XSP16, literal(-4)))
        CFI ?RET_LOW load(1, XDATA, add(CFA_XSP16, literal(-5)))
        CFI R7 load(1, XDATA, add(CFA_XSP16, literal(-6)))
        CFI V3 load(1, XDATA, add(CFA_XSP16, literal(-7)))
        CFI V2 load(1, XDATA, add(CFA_XSP16, literal(-8)))
        CFI V1 load(1, XDATA, add(CFA_XSP16, literal(-9)))
        CFI V0 load(1, XDATA, add(CFA_XSP16, literal(-10)))
        CFI VB load(1, XDATA, add(CFA_XSP16, literal(-11)))
        CFI R6 load(1, XDATA, add(CFA_XSP16, literal(-12)))
        CFI CFA_SP SP+0
        CFI CFA_XSP16 add(XSP16, 12)
        ; Saved register size: 12
        ; Auto size: 7
        MOV     A,#-0x7
        LCALL   ?ALLOC_XSTACK8
        CFI CFA_XSP16 add(XSP16, 19)
        MOV     A,R2
        MOV     R6,A
        MOV     A,R3
        MOV     R7,A
//  153   if(event&TIMER_TIMEOUT_EVT)
        MOV     A,R6
        MOV     C,0xE0 /* A   */.0
        JNC     ??zb_HandleOsalEvent_0
//  154   {
//  155     osal_start_timerEx(sapi_TaskID,TIMER_TIMEOUT_EVT,4000);
        ; Setup parameters for call to function osal_start_timerEx
        MOV     R4,#-0x60
        MOV     R5,#0xf
        MOV     R2,#0x1
        MOV     R3,#0x0
        MOV     DPTR,#sapi_TaskID
        MOVX    A,@DPTR
        MOV     R1,A
        LCALL   ??osal_start_timerEx?relay
        MOV     A,R1
//  156     zb_SendDataRequest(0X0,HEART_BEAT_CMD_ID,
//  157                        0,NULL,0,FALSE,AF_DEFAULT_RADIUS); 
        ; Setup parameters for call to function zb_SendDataRequest
        MOV     ?V0 + 0,#0x1e
        MOV     R0,#?V0 + 0
        LCALL   ?PUSH_XSTACK_I_ONE
        CFI CFA_XSP16 add(XSP16, 20)
        MOV     ?V0 + 0,#0x0
        MOV     R0,#?V0 + 0
        LCALL   ?PUSH_XSTACK_I_ONE
        CFI CFA_XSP16 add(XSP16, 21)
        MOV     ?V0 + 0,#0x0
        MOV     R0,#?V0 + 0
        LCALL   ?PUSH_XSTACK_I_ONE
        CFI CFA_XSP16 add(XSP16, 22)
        CLR     A
        MOV     ?V0 + 0,A
        MOV     ?V0 + 1,A
        MOV     R0,#?V0 + 0
        LCALL   ?PUSH_XSTACK_I_TWO
        CFI CFA_XSP16 add(XSP16, 24)
        MOV     R1,#0x0
        MOV     R4,#0x3
        MOV     R5,#0x0
        MOV     R2,#0x0
        MOV     R3,#0x0
        LCALL   ??zb_SendDataRequest?relay
        MOV     A,#0x5
        LCALL   ?DEALLOC_XSTACK8
        CFI CFA_XSP16 add(XSP16, 19)
//  158   }
//  159 
//  160   if(event&DHT11_PERIOD_EVT)
??zb_HandleOsalEvent_0:
        MOV     A,R6
        ANL     A,#0x2
        JNZ     $+5
        LJMP    ??zb_HandleOsalEvent_1 & 0xFFFF
//  161   {
//  162     unsigned char value[5];//0å­—èŠ‚ï¼šæ¸©åº¦ï¼Œ1å­—èŠ‚ï¼šæ¹¿åº¦ï¼Œ2ã€?å­—èŠ‚ï¼šå…‰å¼?4å­—èŠ‚ï¼šç«ç¾æ ‡å¿?
//  163     unsigned int lightvalue;
//  164     unsigned int AvgValue;
//  165     osal_start_timerEx(sapi_TaskID,DHT11_PERIOD_EVT,5000);
        ; Setup parameters for call to function osal_start_timerEx
        MOV     R4,#-0x78
        MOV     R5,#0x13
        MOV     R2,#0x2
        MOV     R3,#0x0
        MOV     DPTR,#sapi_TaskID
        MOVX    A,@DPTR
        MOV     R1,A
        LCALL   ??osal_start_timerEx?relay
        MOV     A,R1
//  166     GetDht11Value(value,value+1);
        ; Setup parameters for call to function GetDht11Value
        MOV     A,#0x3
        LCALL   ?XSTACK_DISP0_8
        MOV     R4,DPL
        MOV     R5,DPH
        MOV     A,#0x2
        LCALL   ?XSTACK_DISP0_8
        MOV     R2,DPL
        MOV     R3,DPH
        LCALL   ??GetDht11Value?relay
//  167     Get_ADCValue(&lightvalue);
        ; Setup parameters for call to function Get_ADCValue
        MOV     DPL,?XSP + 0
        MOV     DPH,?XSP + 1
        MOV     R2,DPL
        MOV     R3,DPH
        LCALL   ??Get_ADCValue?relay
//  168     value[2]=lightvalue&0xff;
        MOV     DPL,?XSP + 0
        MOV     DPH,?XSP + 1
        MOVX    A,@DPTR
        MOV     R0,A
        INC     DPTR
        MOVX    A,@DPTR
        MOV     R1,A
        MOV     A,R0
        PUSH    A
        CFI CFA_SP SP+-1
        MOV     A,#0x4
        LCALL   ?XSTACK_DISP0_8
        POP     A
        CFI CFA_SP SP+0
        MOVX    @DPTR,A
//  169     value[3]=(lightvalue>>8)&0xff;
        MOV     DPL,?XSP + 0
        MOV     DPH,?XSP + 1
        MOVX    A,@DPTR
        MOV     R0,A
        INC     DPTR
        MOVX    A,@DPTR
        MOV     R1,A
        CLR     A
        MOV     A,R1
        MOV     R0,A
        PUSH    A
        CFI CFA_SP SP+-1
        MOV     A,#0x5
        LCALL   ?XSTACK_DISP0_8
        POP     A
        CFI CFA_SP SP+0
        MOVX    @DPTR,A
//  170     value[4]=AirScan();
        ; Setup parameters for call to function AirScan
        LCALL   ??AirScan?relay
        MOV     A,R1
        PUSH    A
        CFI CFA_SP SP+-1
        MOV     A,#0x6
        LCALL   ?XSTACK_DISP0_8
        POP     A
        CFI CFA_SP SP+0
        MOVX    @DPTR,A
//  171     AvgValue = value[2] | ((unsigned int)value[3] << 8);
        MOV     A,#0x4
        LCALL   ?XSTACK_DISP0_8
        MOVX    A,@DPTR
        MOV     R2,A
        MOV     R3,#0x0
        MOV     A,#0x5
        LCALL   ?XSTACK_DISP0_8
        MOVX    A,@DPTR
        MOV     R0,A
        MOV     R1,#0x0
        CLR     A
        XCH     A,R0
        MOV     R1,A
        MOV     A,R2
        ORL     A,R0
        MOV     R0,A
        MOV     A,R3
        ORL     A,R1
        MOV     R1,A
        MOV     ?V0 + 0,R0
        MOV     ?V0 + 1,R1
//  172     if(LZ==0)
        MOV     DPTR,#LZ
        MOVX    A,@DPTR
        MOV     R0,A
        INC     DPTR
        MOVX    A,@DPTR
        MOV     R1,A
        MOV     A,R0
        ORL     A,R1
        JNZ     ??zb_HandleOsalEvent_2
//  173     {
//  174       if(AvgValue==32763)
        MOV     A,#-0x5
        XRL     A,?V0 + 0
        JNZ     ??zb_HandleOsalEvent_3
        MOV     A,#0x7f
        XRL     A,?V0 + 1
??zb_HandleOsalEvent_3:
        JNZ     ??zb_HandleOsalEvent_4
//  175       {
//  176         HalLedSet(HAL_LED_1,HAL_LED_MODE_ON);
        ; Setup parameters for call to function HalLedSet
        MOV     R2,#0x1
        MOV     R1,#0x1
        LCALL   ??HalLedSet?relay
        MOV     A,R1
//  177         HalLedSet(HAL_LED_2,HAL_LED_MODE_ON);
        ; Setup parameters for call to function HalLedSet
        MOV     R2,#0x1
        MOV     R1,#0x2
        LCALL   ??HalLedSet?relay
        MOV     A,R1
        SJMP    ??zb_HandleOsalEvent_2
//  178       }
//  179       else
//  180       {
//  181         HalLedSet(HAL_LED_1,HAL_LED_MODE_OFF);
??zb_HandleOsalEvent_4:
        ; Setup parameters for call to function HalLedSet
        MOV     R2,#0x0
        MOV     R1,#0x1
        LCALL   ??HalLedSet?relay
        MOV     A,R1
//  182         HalLedSet(HAL_LED_2,HAL_LED_MODE_OFF);
        ; Setup parameters for call to function HalLedSet
        MOV     R2,#0x0
        MOV     R1,#0x2
        LCALL   ??HalLedSet?relay
        MOV     A,R1
//  183       }
//  184     }
//  185     zb_SendDataRequest(0X0,DHT11VALUE_CMD_ID,
//  186                        5,value,0,FALSE,AF_DEFAULT_RADIUS); 
??zb_HandleOsalEvent_2:
        ; Setup parameters for call to function zb_SendDataRequest
        MOV     ?V0 + 2,#0x1e
        MOV     R0,#?V0 + 2
        LCALL   ?PUSH_XSTACK_I_ONE
        CFI CFA_XSP16 add(XSP16, 20)
        MOV     ?V0 + 2,#0x0
        MOV     R0,#?V0 + 2
        LCALL   ?PUSH_XSTACK_I_ONE
        CFI CFA_XSP16 add(XSP16, 21)
        MOV     ?V0 + 2,#0x0
        MOV     R0,#?V0 + 2
        LCALL   ?PUSH_XSTACK_I_ONE
        CFI CFA_XSP16 add(XSP16, 22)
        MOV     A,#0x5
        LCALL   ?XSTACK_DISP0_8
        MOV     ?V0 + 2,DPL
        MOV     ?V0 + 3,DPH
        MOV     R0,#?V0 + 2
        LCALL   ?PUSH_XSTACK_I_TWO
        CFI CFA_XSP16 add(XSP16, 24)
        MOV     R1,#0x5
        MOV     R4,#0x4
        MOV     R5,#0x0
        MOV     R2,#0x0
        MOV     R3,#0x0
        LCALL   ??zb_SendDataRequest?relay
        MOV     A,#0x5
        LCALL   ?DEALLOC_XSTACK8
        CFI CFA_XSP16 add(XSP16, 19)
//  187     
//  188   }
//  189 }
??zb_HandleOsalEvent_1:
        MOV     A,#0x7
        LCALL   ?DEALLOC_XSTACK8
        CFI CFA_XSP16 add(XSP16, 12)
        MOV     R7,#0x4
        LJMP    ?BANKED_LEAVE_XDATA
        CFI EndBlock cfiBlock6
//  190 

        RSEG BANKED_CODE:CODE:NOROOT(0)
//  191 void zb_FindDeviceConfirm( uint8 searchType, 
zb_FindDeviceConfirm:
        CFI Block cfiBlock7 Using cfiCommon0
        CFI Function zb_FindDeviceConfirm
        CODE
//  192                           uint8 *searchKey, uint8 *result )
//  193 {
        ; Saved register size: 0
        ; Auto size: 0
//  194   
//  195 }
        LJMP    ?BRET
        CFI EndBlock cfiBlock7

        RSEG XDATA_ID:CODE:NOROOT(0)
`?<Initializer for ledIdList>`:
        DATA8
        DB 3
        DB 4

        RSEG BANK_RELAYS:CODE:REORDER:NOROOT(0)
??zb_SendDataConfirm?relay:
        LCALL   ?BDISPATCH
        DATA
        DC24    zb_SendDataConfirm

        RSEG BANK_RELAYS:CODE:REORDER:NOROOT(0)
??zb_ReceiveDataIndication?relay:
        LCALL   ?BDISPATCH
        DATA
        DC24    zb_ReceiveDataIndication

        RSEG BANK_RELAYS:CODE:REORDER:NOROOT(0)
??zb_AllowBindConfirm?relay:
        LCALL   ?BDISPATCH
        DATA
        DC24    zb_AllowBindConfirm

        RSEG BANK_RELAYS:CODE:REORDER:NOROOT(0)
??zb_HandleKeys?relay:
        LCALL   ?BDISPATCH
        DATA
        DC24    zb_HandleKeys

        RSEG BANK_RELAYS:CODE:REORDER:NOROOT(0)
??zb_BindConfirm?relay:
        LCALL   ?BDISPATCH
        DATA
        DC24    zb_BindConfirm

        RSEG BANK_RELAYS:CODE:REORDER:NOROOT(0)
??zb_StartConfirm?relay:
        LCALL   ?BDISPATCH
        DATA
        DC24    zb_StartConfirm

        RSEG BANK_RELAYS:CODE:REORDER:NOROOT(0)
??zb_HandleOsalEvent?relay:
        LCALL   ?BDISPATCH
        DATA
        DC24    zb_HandleOsalEvent

        RSEG BANK_RELAYS:CODE:REORDER:NOROOT(0)
??zb_FindDeviceConfirm?relay:
        LCALL   ?BDISPATCH
        DATA
        DC24    zb_FindDeviceConfirm

        END
// 
// 809 bytes in segment BANKED_CODE
//  48 bytes in segment BANK_RELAYS
//   2 bytes in segment XDATA_I
//   2 bytes in segment XDATA_ID
//  18 bytes in segment XDATA_ROM_C
// 
// 859 bytes of CODE  memory
//  18 bytes of CONST memory
//   2 bytes of XDATA memory
//
//Errors: none
//Warnings: none
