///////////////////////////////////////////////////////////////////////////////
//                                                                            /
// IAR C/C++ Compiler V8.10.1.40194/W32 for 8051        03/Mar/2020  13:32:26 /
// Copyright 2004-2011 IAR Systems AB.                                        /
//                                                                            /
//    Core               =  plain                                             /
//    Code model         =  banked                                            /
//    Data model         =  large                                             /
//    Calling convention =  xdata reentrant                                   /
//    Constant location  =  data_rom                                          /
//    Dptr setup         =  1,16                                              /
//    Source file        =  C:\Texas Instruments\ZStack-CC2530-2.5.1a\Compone /
//                          nts\stack\sapi\sapi.c                             /
//    Command line       =  -f "C:\Texas Instruments\ZStack-CC2530-2.5.1a\Pro /
//                          jects\zstack\Samples\Diplomaproject\CC2530DB\..\. /
//                          .\..\Tools\CC2530DB\f8wCoord.cfg" (-DCPU32MHZ     /
//                          -DROOT=__near_func -DMAC_CFG_APP_PENDING_QUEUE=TR /
//                          UE -DMAC_CFG_TX_DATA_MAX=5 -DMAC_CFG_TX_MAX=8     /
//                          -DMAC_CFG_RX_MAX=5 -DZDO_COORDINATOR -DRTR_NWK)   /
//                          -f "C:\Texas Instruments\ZStack-CC2530-2.5.1a\Pro /
//                          jects\zstack\Samples\Diplomaproject\CC2530DB\..\. /
//                          .\..\Tools\CC2530DB\f8wConfig.cfg" (-DZIGBEEPRO   /
//                          -DSECURE=0 -DZG_SECURE_DYNAMIC=0 -DREFLECTOR      /
//                          -DDEFAULT_CHANLIST=0x00000800                     /
//                          -DZDAPP_CONFIG_PAN_ID=0xFFFF                      /
//                          -DNWK_START_DELAY=100 -DEXTENDED_JOINING_RANDOM_M /
//                          ASK=0x007F -DBEACON_REQUEST_DELAY=100             /
//                          -DBEACON_REQ_DELAY_MASK=0x00FF                    /
//                          -DLINK_STATUS_JITTER_MASK=0x007F                  /
//                          -DROUTE_EXPIRY_TIME=30 -DAPSC_ACK_WAIT_DURATION_P /
//                          OLLED=3000 -DNWK_INDIRECT_MSG_TIMEOUT=7           /
//                          -DMAX_RREQ_ENTRIES=8 -DAPSC_MAX_FRAME_RETRIES=3   /
//                          -DNWK_MAX_DATA_RETRIES=2                          /
//                          -DMAX_POLL_FAILURE_RETRIES=2 -DMAX_BCAST=9        /
//                          -DAPS_MAX_GROUPS=16 -DMAX_RTG_ENTRIES=40          /
//                          -DNWK_MAX_BINDING_ENTRIES=4                       /
//                          -DMAX_BINDING_CLUSTER_IDS=4                       /
//                          "-DDEFAULT_KEY={0x01, 0x03, 0x05, 0x07, 0x09,     /
//                          0x0B, 0x0D, 0x0F, 0x00, 0x02, 0x04, 0x06, 0x08,   /
//                          0x0A, 0x0C, 0x0D}" -DMAC_MAX_FRAME_SIZE=116       /
//                          -DZDNWKMGR_MIN_TRANSMISSIONS=20 "-DCONST=const    /
//                          __code" -DGENERIC=__generic                       /
//                          -DRFD_RCVC_ALWAYS_ON=FALSE -DPOLL_RATE=1000       /
//                          -DQUEUED_POLL_RATE=100 -DRESPONSE_POLL_RATE=100)  /
//                          -DREJOIN_POLL_RATE=440 "C:\Texas                  /
//                          Instruments\ZStack-CC2530-2.5.1a\Components\stack /
//                          \sapi\sapi.c" -D ZTOOL_P1 -D xMT_TASK -D          /
//                          xMT_SYS_FUNC -D xMT_ZDO_FUNC -D                   /
//                          xLCD_SUPPORTED=DEBUG -lC "C:\Texas                /
//                          Instruments\ZStack-CC2530-2.5.1a\Projects\zstack\ /
//                          Samples\Diplomaproject\CC2530DB\CoordinatorEB\Lis /
//                          t\" -lA "C:\Texas Instruments\ZStack-CC2530-2.5.1 /
//                          a\Projects\zstack\Samples\Diplomaproject\CC2530DB /
//                          \CoordinatorEB\List\" --diag_suppress             /
//                          Pe001,Pa010 -o "C:\Texas                          /
//                          Instruments\ZStack-CC2530-2.5.1a\Projects\zstack\ /
//                          Samples\Diplomaproject\CC2530DB\CoordinatorEB\Obj /
//                          \" -e --no_cse --no_unroll --no_inline            /
//                          --no_code_motion --no_tbaa --debug --core=plain   /
//                          --dptr=16,1 --data_model=large                    /
//                          --code_model=banked --calling_convention=xdata_re /
//                          entrant --place_constants=data_rom                /
//                          --nr_virtual_regs 16 -I "C:\Texas                 /
//                          Instruments\ZStack-CC2530-2.5.1a\Projects\zstack\ /
//                          Samples\Diplomaproject\CC2530DB\" -I "C:\Texas    /
//                          Instruments\ZStack-CC2530-2.5.1a\Projects\zstack\ /
//                          Samples\Diplomaproject\CC2530DB\..\Source\" -I    /
//                          "C:\Texas Instruments\ZStack-CC2530-2.5.1a\Projec /
//                          ts\zstack\Samples\Diplomaproject\CC2530DB\..\..\. /
//                          .\ZMain\TI2530DB\" -I "C:\Texas                   /
//                          Instruments\ZStack-CC2530-2.5.1a\Projects\zstack\ /
//                          Samples\Diplomaproject\CC2530DB\..\..\..\..\..\Co /
//                          mponents\hal\include\" -I "C:\Texas               /
//                          Instruments\ZStack-CC2530-2.5.1a\Projects\zstack\ /
//                          Samples\Diplomaproject\CC2530DB\..\..\..\..\..\Co /
//                          mponents\hal\target\CC2530EB\" -I "C:\Texas       /
//                          Instruments\ZStack-CC2530-2.5.1a\Projects\zstack\ /
//                          Samples\Diplomaproject\CC2530DB\..\..\..\..\..\Co /
//                          mponents\mac\include\" -I "C:\Texas               /
//                          Instruments\ZStack-CC2530-2.5.1a\Projects\zstack\ /
//                          Samples\Diplomaproject\CC2530DB\..\..\..\..\..\Co /
//                          mponents\mac\high_level\" -I "C:\Texas            /
//                          Instruments\ZStack-CC2530-2.5.1a\Projects\zstack\ /
//                          Samples\Diplomaproject\CC2530DB\..\..\..\..\..\Co /
//                          mponents\mac\low_level\srf04\" -I "C:\Texas       /
//                          Instruments\ZStack-CC2530-2.5.1a\Projects\zstack\ /
//                          Samples\Diplomaproject\CC2530DB\..\..\..\..\..\Co /
//                          mponents\mac\low_level\srf04\single_chip\" -I     /
//                          "C:\Texas Instruments\ZStack-CC2530-2.5.1a\Projec /
//                          ts\zstack\Samples\Diplomaproject\CC2530DB\..\..\. /
//                          .\..\..\Components\mt\" -I "C:\Texas              /
//                          Instruments\ZStack-CC2530-2.5.1a\Projects\zstack\ /
//                          Samples\Diplomaproject\CC2530DB\..\..\..\..\..\Co /
//                          mponents\osal\include\" -I "C:\Texas              /
//                          Instruments\ZStack-CC2530-2.5.1a\Projects\zstack\ /
//                          Samples\Diplomaproject\CC2530DB\..\..\..\..\..\Co /
//                          mponents\services\saddr\" -I "C:\Texas            /
//                          Instruments\ZStack-CC2530-2.5.1a\Projects\zstack\ /
//                          Samples\Diplomaproject\CC2530DB\..\..\..\..\..\Co /
//                          mponents\services\sdata\" -I "C:\Texas            /
//                          Instruments\ZStack-CC2530-2.5.1a\Projects\zstack\ /
//                          Samples\Diplomaproject\CC2530DB\..\..\..\..\..\Co /
//                          mponents\stack\af\" -I "C:\Texas                  /
//                          Instruments\ZStack-CC2530-2.5.1a\Projects\zstack\ /
//                          Samples\Diplomaproject\CC2530DB\..\..\..\..\..\Co /
//                          mponents\stack\nwk\" -I "C:\Texas                 /
//                          Instruments\ZStack-CC2530-2.5.1a\Projects\zstack\ /
//                          Samples\Diplomaproject\CC2530DB\..\..\..\..\..\Co /
//                          mponents\stack\sapi\" -I "C:\Texas                /
//                          Instruments\ZStack-CC2530-2.5.1a\Projects\zstack\ /
//                          Samples\Diplomaproject\CC2530DB\..\..\..\..\..\Co /
//                          mponents\stack\sec\" -I "C:\Texas                 /
//                          Instruments\ZStack-CC2530-2.5.1a\Projects\zstack\ /
//                          Samples\Diplomaproject\CC2530DB\..\..\..\..\..\Co /
//                          mponents\stack\sys\" -I "C:\Texas                 /
//                          Instruments\ZStack-CC2530-2.5.1a\Projects\zstack\ /
//                          Samples\Diplomaproject\CC2530DB\..\..\..\..\..\Co /
//                          mponents\stack\zdo\" -I "C:\Texas                 /
//                          Instruments\ZStack-CC2530-2.5.1a\Projects\zstack\ /
//                          Samples\Diplomaproject\CC2530DB\..\..\..\..\..\Co /
//                          mponents\zmac\" -I "C:\Texas                      /
//                          Instruments\ZStack-CC2530-2.5.1a\Projects\zstack\ /
//                          Samples\Diplomaproject\CC2530DB\..\..\..\..\..\Co /
//                          mponents\zmac\f8w\" -On                           /
//    List file          =  C:\Texas Instruments\ZStack-CC2530-2.5.1a\Project /
//                          s\zstack\Samples\Diplomaproject\CC2530DB\Coordina /
//                          torEB\List\sapi.s51                               /
//                                                                            /
//                                                                            /
///////////////////////////////////////////////////////////////////////////////

        NAME sapi

        RTMODEL "__SystemLibrary", "CLib"
        RTMODEL "__calling_convention", "xdata_reentrant"
        RTMODEL "__code_model", "banked"
        RTMODEL "__core", "plain"
        RTMODEL "__data_model", "large"
        RTMODEL "__dptr_size", "16"
        RTMODEL "__extended_stack", "disabled"
        RTMODEL "__location_for_constants", "data"
        RTMODEL "__number_of_dptrs", "1"
        RTMODEL "__rt_version", "1"

        RSEG DOVERLAY:DATA:NOROOT(0)
        RSEG IOVERLAY:IDATA:NOROOT(0)
        RSEG ISTACK:IDATA:NOROOT(0)
        RSEG PSTACK:XDATA:NOROOT(0)
        RSEG XSTACK:XDATA:NOROOT(0)

        EXTERN ?ALLOC_XSTACK8
        EXTERN ?BANKED_ENTER_XDATA
        EXTERN ?BANKED_LEAVE_XDATA
        EXTERN ?BDISPATCH
        EXTERN ?BRET
        EXTERN ?DEALLOC_XSTACK8
        EXTERN ?PUSH_XSTACK8_X_TWO
        EXTERN ?PUSH_XSTACK_I_ONE
        EXTERN ?PUSH_XSTACK_I_THREE
        EXTERN ?PUSH_XSTACK_I_TWO
        EXTERN ?US_SWITCH_SPARSE
        EXTERN ?V0
        EXTERN ?XSP
        EXTERN ?XSTACK_DISP0_8
        EXTERN __INIT_XDATA_Z

        FUNCTION ??SAPI_AllowBindConfirm?relay,0203H
        FUNCTION ??SAPI_BindConfirm?relay,0203H
        FUNCTION ??SAPI_FindDeviceConfirm?relay,0203H
        PUBLIC ??SAPI_Init?relay
        FUNCTION ??SAPI_Init?relay,0203H
        PUBLIC ??SAPI_ProcessEvent?relay
        FUNCTION ??SAPI_ProcessEvent?relay,0203H
        PUBLIC ??SAPI_ProcessZDOMsgs?relay
        FUNCTION ??SAPI_ProcessZDOMsgs?relay,0203H
        FUNCTION ??SAPI_ReceiveDataIndication?relay,0203H
        FUNCTION ??SAPI_SendCback?relay,0203H
        FUNCTION ??SAPI_SendDataConfirm?relay,0203H
        FUNCTION ??SAPI_StartConfirm?relay,0203H
        PUBLIC ??osalInitTasks?relay
        FUNCTION ??osalInitTasks?relay,0203H
        PUBLIC ??zb_AllowBind?relay
        FUNCTION ??zb_AllowBind?relay,0203H
        PUBLIC ??zb_BindDevice?relay
        FUNCTION ??zb_BindDevice?relay,0203H
        PUBLIC ??zb_FindDeviceRequest?relay
        FUNCTION ??zb_FindDeviceRequest?relay,0203H
        PUBLIC ??zb_GetDeviceInfo?relay
        FUNCTION ??zb_GetDeviceInfo?relay,0203H
        PUBLIC ??zb_PermitJoiningRequest?relay
        FUNCTION ??zb_PermitJoiningRequest?relay,0203H
        PUBLIC ??zb_ReadConfiguration?relay
        FUNCTION ??zb_ReadConfiguration?relay,0203H
        PUBLIC ??zb_SendDataRequest?relay
        FUNCTION ??zb_SendDataRequest?relay,0203H
        PUBLIC ??zb_StartRequest?relay
        FUNCTION ??zb_StartRequest?relay,0203H
        PUBLIC ??zb_SystemReset?relay
        FUNCTION ??zb_SystemReset?relay,0203H
        PUBLIC ??zb_WriteConfiguration?relay
        FUNCTION ??zb_WriteConfiguration?relay,0203H
        FUNCTION SAPI_AllowBindConfirm,021203H
        ARGFRAME XSTACK, 19, STACK
        ARGFRAME IOVERLAY, 0, STATIC
        ARGFRAME DOVERLAY, 0, STATIC
        LOCFRAME XSTACK, 9, STACK
        FUNCTION SAPI_BindConfirm,021203H
        ARGFRAME XSTACK, 19, STACK
        ARGFRAME IOVERLAY, 0, STATIC
        ARGFRAME DOVERLAY, 0, STATIC
        LOCFRAME XSTACK, 9, STACK
        FUNCTION SAPI_FindDeviceConfirm,021203H
        ARGFRAME XSTACK, 21, STACK
        ARGFRAME IOVERLAY, 0, STATIC
        ARGFRAME DOVERLAY, 0, STATIC
        LOCFRAME XSTACK, 11, STACK
        PUBLIC SAPI_Init
        FUNCTION SAPI_Init,021203H
        ARGFRAME XSTACK, 9, STACK
        ARGFRAME IOVERLAY, 0, STATIC
        ARGFRAME DOVERLAY, 0, STATIC
        LOCFRAME XSTACK, 10, STACK
        PUBLIC SAPI_ProcessEvent
        FUNCTION SAPI_ProcessEvent,021603H
        ARGFRAME XSTACK, 0, STACK
        LOCFRAME XSTACK, 23, STACK
        PUBLIC SAPI_ProcessZDOMsgs
        FUNCTION SAPI_ProcessZDOMsgs,0a1203H
        ARGFRAME XSTACK, 19, STACK
        ARGFRAME IOVERLAY, 0, STATIC
        ARGFRAME DOVERLAY, 0, STATIC
        LOCFRAME XSTACK, 22, STACK
        FUNCTION SAPI_ReceiveDataIndication,021203H
        ARGFRAME XSTACK, 23, STACK
        ARGFRAME IOVERLAY, 0, STATIC
        ARGFRAME DOVERLAY, 0, STATIC
        LOCFRAME XSTACK, 18, STACK
        FUNCTION SAPI_SendCback,021203H
        ARGFRAME XSTACK, 30, STACK
        ARGFRAME IOVERLAY, 0, STATIC
        ARGFRAME DOVERLAY, 0, STATIC
        LOCFRAME ISTACK, 1, STACK
        LOCFRAME XSTACK, 14, STACK
        FUNCTION SAPI_SendDataConfirm,021203H
        ARGFRAME XSTACK, 19, STACK
        ARGFRAME IOVERLAY, 0, STATIC
        ARGFRAME DOVERLAY, 0, STATIC
        LOCFRAME XSTACK, 9, STACK
        FUNCTION SAPI_StartConfirm,021203H
        ARGFRAME XSTACK, 19, STACK
        ARGFRAME IOVERLAY, 0, STATIC
        ARGFRAME DOVERLAY, 0, STATIC
        LOCFRAME XSTACK, 9, STACK
        PUBLIC osalInitTasks
        FUNCTION osalInitTasks,021203H
        ARGFRAME XSTACK, 0, STACK
        LOCFRAME XSTACK, 9, STACK
        PUBLIC sapi_TaskID
        PUBLIC sapi_epDesc
        PUBLIC tasksArr
        PUBLIC tasksCnt
        PUBLIC tasksEvents
        PUBLIC zb_AllowBind
        FUNCTION zb_AllowBind,021203H
        ARGFRAME XSTACK, 0, STACK
        LOCFRAME XSTACK, 9, STACK
        PUBLIC zb_BindDevice
        FUNCTION zb_BindDevice,021203H
        ARGFRAME XSTACK, 0, STACK
        LOCFRAME XSTACK, 33, STACK
        PUBLIC zb_FindDeviceRequest
        FUNCTION zb_FindDeviceRequest,021203H
        ARGFRAME XSTACK, 0, STACK
        LOCFRAME XSTACK, 9, STACK
        PUBLIC zb_GetDeviceInfo
        FUNCTION zb_GetDeviceInfo,021203H
        ARGFRAME XSTACK, 0, STACK
        LOCFRAME XSTACK, 18, STACK
        PUBLIC zb_PermitJoiningRequest
        FUNCTION zb_PermitJoiningRequest,0203H
        ARGFRAME XSTACK, 0, STACK
        PUBLIC zb_ReadConfiguration
        FUNCTION zb_ReadConfiguration,021203H
        ARGFRAME XSTACK, 19, STACK
        ARGFRAME IOVERLAY, 0, STATIC
        ARGFRAME DOVERLAY, 0, STATIC
        LOCFRAME XSTACK, 17, STACK
        PUBLIC zb_SendDataRequest
        FUNCTION zb_SendDataRequest,021203H
        ARGFRAME XSTACK, 5, STACK
        LOCFRAME ISTACK, 1, STACK
        LOCFRAME XSTACK, 39, STACK
        PUBLIC zb_StartRequest
        FUNCTION zb_StartRequest,021203H
        ARGFRAME XSTACK, 19, STACK
        ARGFRAME IOVERLAY, 0, STATIC
        ARGFRAME DOVERLAY, 0, STATIC
        LOCFRAME ISTACK, 2, STACK
        LOCFRAME XSTACK, 1, STACK
        PUBLIC zb_SystemReset
        FUNCTION zb_SystemReset,021203H
        ARGFRAME XSTACK, 10, STACK
        ARGFRAME IOVERLAY, 0, STATIC
        ARGFRAME DOVERLAY, 0, STATIC
        PUBLIC zb_WriteConfiguration
        FUNCTION zb_WriteConfiguration,021203H
        ARGFRAME XSTACK, 10, STACK
        ARGFRAME IOVERLAY, 0, STATIC
        ARGFRAME DOVERLAY, 0, STATIC
        LOCFRAME XSTACK, 16, STACK
        
        CFI Names cfiNames0
        CFI StackFrame CFA_SP SP IDATA
        CFI StackFrame CFA_PSP16 PSP16 XDATA
        CFI StackFrame CFA_XSP16 XSP16 XDATA
        CFI StaticOverlayFrame CFA_IOVERLAY IOVERLAY
        CFI StaticOverlayFrame CFA_DOVERLAY DOVERLAY
        CFI Resource `PSW.CY`:1, `B.BR0`:1, `B.BR1`:1, `B.BR2`:1, `B.BR3`:1
        CFI Resource `B.BR4`:1, `B.BR5`:1, `B.BR6`:1, `B.BR7`:1, `VB.BR8`:1
        CFI Resource `VB.BR9`:1, `VB.BR10`:1, `VB.BR11`:1, `VB.BR12`:1
        CFI Resource `VB.BR13`:1, `VB.BR14`:1, `VB.BR15`:1, VB:8, B:8, A:8
        CFI Resource PSW:8, DPL0:8, DPH0:8, R0:8, R1:8, R2:8, R3:8, R4:8, R5:8
        CFI Resource R6:8, R7:8, V0:8, V1:8, V2:8, V3:8, V4:8, V5:8, V6:8, V7:8
        CFI Resource V8:8, V9:8, V10:8, V11:8, V12:8, V13:8, V14:8, V15:8, SP:8
        CFI Resource PSPH:8, PSPL:8, PSP16:16, XSPH:8, XSPL:8, XSP16:16
        CFI VirtualResource ?RET:24
        CFI Resource ?BRET_EXT:8
        CFI VirtualResource ?RET_HIGH:8, ?RET_LOW:8
        CFI ResourceParts PSP16 PSPH, PSPL
        CFI ResourceParts XSP16 XSPH, XSPL
        CFI ResourceParts ?RET ?BRET_EXT, ?RET_HIGH, ?RET_LOW
        CFI EndNames cfiNames0
        
        CFI Common cfiCommon0 Using cfiNames0
        CFI CodeAlign 1
        CFI DataAlign -1
        CFI ReturnAddress ?RET CODE
        CFI CFA_DOVERLAY Used
        CFI CFA_IOVERLAY Used
        CFI CFA_SP SP+-3
        CFI CFA_PSP16 PSP16+0
        CFI CFA_XSP16 XSP16+0
        CFI `PSW.CY` SameValue
        CFI `B.BR0` SameValue
        CFI `B.BR1` SameValue
        CFI `B.BR2` SameValue
        CFI `B.BR3` SameValue
        CFI `B.BR4` SameValue
        CFI `B.BR5` SameValue
        CFI `B.BR6` SameValue
        CFI `B.BR7` SameValue
        CFI `VB.BR8` SameValue
        CFI `VB.BR9` SameValue
        CFI `VB.BR10` SameValue
        CFI `VB.BR11` SameValue
        CFI `VB.BR12` SameValue
        CFI `VB.BR13` SameValue
        CFI `VB.BR14` SameValue
        CFI `VB.BR15` SameValue
        CFI VB SameValue
        CFI B Undefined
        CFI A Undefined
        CFI PSW SameValue
        CFI DPL0 SameValue
        CFI DPH0 SameValue
        CFI R0 Undefined
        CFI R1 Undefined
        CFI R2 Undefined
        CFI R3 Undefined
        CFI R4 Undefined
        CFI R5 Undefined
        CFI R6 SameValue
        CFI R7 SameValue
        CFI V0 SameValue
        CFI V1 SameValue
        CFI V2 SameValue
        CFI V3 SameValue
        CFI V4 SameValue
        CFI V5 SameValue
        CFI V6 SameValue
        CFI V7 SameValue
        CFI V8 SameValue
        CFI V9 SameValue
        CFI V10 SameValue
        CFI V11 SameValue
        CFI V12 SameValue
        CFI V13 SameValue
        CFI V14 SameValue
        CFI V15 SameValue
        CFI PSPH Undefined
        CFI PSPL Undefined
        CFI XSPH Undefined
        CFI XSPL Undefined
        CFI ?RET Concat
        CFI ?BRET_EXT Frame(CFA_SP, 3)
        CFI ?RET_HIGH Frame(CFA_SP, 2)
        CFI ?RET_LOW Frame(CFA_SP, 1)
        CFI EndCommon cfiCommon0
        
ZDOInitDevice       SYMBOL "ZDOInitDevice"
sAddrExtCpy         SYMBOL "sAddrExtCpy"
APSME_BindRequest   SYMBOL "APSME_BindRequest"
ZDP_NwkAddrReq      SYMBOL "ZDP_NwkAddrReq"
osal_start_timerEx  SYMBOL "osal_start_timerEx"
ZDO_AnyClusterMatches SYMBOL "ZDO_AnyClusterMatches"
ZDP_MatchDescReq    SYMBOL "ZDP_MatchDescReq"
bindFind            SYMBOL "bindFind"
bindRemoveEntry     SYMBOL "bindRemoveEntry"
osal_stop_timerEx   SYMBOL "osal_stop_timerEx"
afSetMatch          SYMBOL "afSetMatch"
NLME_IsAddressBroadcast SYMBOL "NLME_IsAddressBroadcast"
AF_DataRequest      SYMBOL "AF_DataRequest"
osal_nv_item_len    SYMBOL "osal_nv_item_len"
osal_nv_read        SYMBOL "osal_nv_read"
osal_nv_write       SYMBOL "osal_nv_write"
osal_memcpy         SYMBOL "osal_memcpy"
zb_StartConfirm     SYMBOL "zb_StartConfirm"
zb_SendDataConfirm  SYMBOL "zb_SendDataConfirm"
zb_BindConfirm      SYMBOL "zb_BindConfirm"
zb_AllowBindConfirm SYMBOL "zb_AllowBindConfirm"
zb_FindDeviceConfirm SYMBOL "zb_FindDeviceConfirm"
zb_ReceiveDataIndication SYMBOL "zb_ReceiveDataIndication"
osal_msg_receive    SYMBOL "osal_msg_receive"
zb_HandleKeys       SYMBOL "zb_HandleKeys"
osal_msg_deallocate SYMBOL "osal_msg_deallocate"
zb_HandleOsalEvent  SYMBOL "zb_HandleOsalEvent"
HalLedSet           SYMBOL "HalLedSet"
HalLedBlink         SYMBOL "HalLedBlink"
ZDO_ParseAddrRsp    SYMBOL "ZDO_ParseAddrRsp"
ZDO_ParseEPListRsp  SYMBOL "ZDO_ParseEPListRsp"
ZDP_IEEEAddrReq     SYMBOL "ZDP_IEEEAddrReq"
afRegister          SYMBOL "afRegister"
ZDO_RegisterForZDOMsg SYMBOL "ZDO_RegisterForZDOMsg"
RegisterForKeys     SYMBOL "RegisterForKeys"
HalKeyRead          SYMBOL "HalKeyRead"
osal_set_event      SYMBOL "osal_set_event"
osal_msg_allocate   SYMBOL "osal_msg_allocate"
osal_msg_send       SYMBOL "osal_msg_send"
osal_mem_alloc      SYMBOL "osal_mem_alloc"
osal_memset         SYMBOL "osal_memset"
macTaskInit         SYMBOL "macTaskInit"
nwk_init            SYMBOL "nwk_init"
Hal_Init            SYMBOL "Hal_Init"
APS_Init            SYMBOL "APS_Init"
ZDApp_Init          SYMBOL "ZDApp_Init"
??AF_DataRequest?relay SYMBOL "?relay", AF_DataRequest
??APSME_BindRequest?relay SYMBOL "?relay", APSME_BindRequest
??APS_Init?relay    SYMBOL "?relay", APS_Init
`?<Name APS_event_loop 50>` SYMBOL "APS_event_loop"
??APS_event_loop?relay SYMBOL "?relay", `?<Name APS_event_loop 50>`
??HalKeyRead?relay  SYMBOL "?relay", HalKeyRead
??HalLedBlink?relay SYMBOL "?relay", HalLedBlink
??HalLedSet?relay   SYMBOL "?relay", HalLedSet
??Hal_Init?relay    SYMBOL "?relay", Hal_Init
`?<Name Hal_ProcessEvent 56>` SYMBOL "Hal_ProcessEvent"
??Hal_ProcessEvent?relay SYMBOL "?relay", `?<Name Hal_ProcessEvent 56>`
??NLME_IsAddressBroadcast?relay SYMBOL "?relay", NLME_IsAddressBroadcast
??RegisterForKeys?relay SYMBOL "?relay", RegisterForKeys
??ZDApp_Init?relay  SYMBOL "?relay", ZDApp_Init
`?<Name ZDApp_event_loop 61>` SYMBOL "ZDApp_event_loop"
??ZDApp_event_loop?relay SYMBOL "?relay", `?<Name ZDApp_event_loop 61>`
??ZDOInitDevice?relay SYMBOL "?relay", ZDOInitDevice
??ZDO_AnyClusterMatches?relay SYMBOL "?relay", ZDO_AnyClusterMatches
??ZDO_ParseAddrRsp?relay SYMBOL "?relay", ZDO_ParseAddrRsp
??ZDO_ParseEPListRsp?relay SYMBOL "?relay", ZDO_ParseEPListRsp
??ZDO_RegisterForZDOMsg?relay SYMBOL "?relay", ZDO_RegisterForZDOMsg
??ZDP_IEEEAddrReq?relay SYMBOL "?relay", ZDP_IEEEAddrReq
??ZDP_MatchDescReq?relay SYMBOL "?relay", ZDP_MatchDescReq
??ZDP_NwkAddrReq?relay SYMBOL "?relay", ZDP_NwkAddrReq
??afRegister?relay  SYMBOL "?relay", afRegister
??afSetMatch?relay  SYMBOL "?relay", afSetMatch
??bindFind?relay    SYMBOL "?relay", bindFind
??bindRemoveEntry?relay SYMBOL "?relay", bindRemoveEntry
`?<Name macEventLoop 75>` SYMBOL "macEventLoop"
??macEventLoop?relay SYMBOL "?relay", `?<Name macEventLoop 75>`
??macTaskInit?relay SYMBOL "?relay", macTaskInit
`?<Name nwk_event_loop 78>` SYMBOL "nwk_event_loop"
??nwk_event_loop?relay SYMBOL "?relay", `?<Name nwk_event_loop 78>`
??nwk_init?relay    SYMBOL "?relay", nwk_init
??osal_mem_alloc?relay SYMBOL "?relay", osal_mem_alloc
??osal_memcpy?relay SYMBOL "?relay", osal_memcpy
??osal_memset?relay SYMBOL "?relay", osal_memset
??osal_msg_allocate?relay SYMBOL "?relay", osal_msg_allocate
??osal_msg_deallocate?relay SYMBOL "?relay", osal_msg_deallocate
??osal_msg_receive?relay SYMBOL "?relay", osal_msg_receive
??osal_msg_send?relay SYMBOL "?relay", osal_msg_send
??osal_nv_item_len?relay SYMBOL "?relay", osal_nv_item_len
??osal_nv_read?relay SYMBOL "?relay", osal_nv_read
??osal_nv_write?relay SYMBOL "?relay", osal_nv_write
??osal_set_event?relay SYMBOL "?relay", osal_set_event
??osal_start_timerEx?relay SYMBOL "?relay", osal_start_timerEx
??osal_stop_timerEx?relay SYMBOL "?relay", osal_stop_timerEx
??sAddrExtCpy?relay SYMBOL "?relay", sAddrExtCpy
??zb_AllowBindConfirm?relay SYMBOL "?relay", zb_AllowBindConfirm
??zb_BindConfirm?relay SYMBOL "?relay", zb_BindConfirm
??zb_FindDeviceConfirm?relay SYMBOL "?relay", zb_FindDeviceConfirm
??zb_HandleKeys?relay SYMBOL "?relay", zb_HandleKeys
??zb_HandleOsalEvent?relay SYMBOL "?relay", zb_HandleOsalEvent
??zb_ReceiveDataIndication?relay SYMBOL "?relay", zb_ReceiveDataIndication
??zb_SendDataConfirm?relay SYMBOL "?relay", zb_SendDataConfirm
??zb_StartConfirm?relay SYMBOL "?relay", zb_StartConfirm
SAPI_Init           SYMBOL "SAPI_Init"
??SAPI_Init?relay   SYMBOL "?relay", SAPI_Init
SAPI_ProcessEvent   SYMBOL "SAPI_ProcessEvent"
??SAPI_ProcessEvent?relay SYMBOL "?relay", SAPI_ProcessEvent
SAPI_ProcessZDOMsgs SYMBOL "SAPI_ProcessZDOMsgs"
??SAPI_ProcessZDOMsgs?relay SYMBOL "?relay", SAPI_ProcessZDOMsgs
osalInitTasks       SYMBOL "osalInitTasks"
??osalInitTasks?relay SYMBOL "?relay", osalInitTasks
zb_AllowBind        SYMBOL "zb_AllowBind"
??zb_AllowBind?relay SYMBOL "?relay", zb_AllowBind
zb_BindDevice       SYMBOL "zb_BindDevice"
??zb_BindDevice?relay SYMBOL "?relay", zb_BindDevice
zb_FindDeviceRequest SYMBOL "zb_FindDeviceRequest"
??zb_FindDeviceRequest?relay SYMBOL "?relay", zb_FindDeviceRequest
zb_GetDeviceInfo    SYMBOL "zb_GetDeviceInfo"
??zb_GetDeviceInfo?relay SYMBOL "?relay", zb_GetDeviceInfo
zb_PermitJoiningRequest SYMBOL "zb_PermitJoiningRequest"
??zb_PermitJoiningRequest?relay SYMBOL "?relay", zb_PermitJoiningRequest
zb_ReadConfiguration SYMBOL "zb_ReadConfiguration"
??zb_ReadConfiguration?relay SYMBOL "?relay", zb_ReadConfiguration
zb_SendDataRequest  SYMBOL "zb_SendDataRequest"
??zb_SendDataRequest?relay SYMBOL "?relay", zb_SendDataRequest
zb_StartRequest     SYMBOL "zb_StartRequest"
??zb_StartRequest?relay SYMBOL "?relay", zb_StartRequest
zb_SystemReset      SYMBOL "zb_SystemReset"
??zb_SystemReset?relay SYMBOL "?relay", zb_SystemReset
zb_WriteConfiguration SYMBOL "zb_WriteConfiguration"
??zb_WriteConfiguration?relay SYMBOL "?relay", zb_WriteConfiguration

        EXTERN Onboard_soft_reset
        FUNCTION Onboard_soft_reset,0202H
        ARGFRAME ISTACK, 0, STACK
        ARGFRAME PSTACK, 0, STACK
        ARGFRAME XSTACK, 0, STACK
        ARGFRAME IOVERLAY, 0, STATIC
        ARGFRAME DOVERLAY, 0, STATIC
        EXTERN ZDOInitDevice
        FUNCTION ZDOInitDevice,0202H
        ARGFRAME ISTACK, 2, STACK
        ARGFRAME PSTACK, 0, STACK
        ARGFRAME XSTACK, 1, STACK
        ARGFRAME IOVERLAY, 0, STATIC
        ARGFRAME DOVERLAY, 0, STATIC
        EXTERN sAddrExtCpy
        FUNCTION sAddrExtCpy,0202H
        ARGFRAME ISTACK, 0, STACK
        ARGFRAME PSTACK, 0, STACK
        ARGFRAME XSTACK, 25, STACK
        ARGFRAME IOVERLAY, 0, STATIC
        ARGFRAME DOVERLAY, 0, STATIC
        EXTERN APSME_BindRequest
        FUNCTION APSME_BindRequest,0202H
        ARGFRAME ISTACK, 0, STACK
        ARGFRAME PSTACK, 0, STACK
        ARGFRAME XSTACK, 26, STACK
        ARGFRAME IOVERLAY, 0, STATIC
        ARGFRAME DOVERLAY, 0, STATIC
        EXTERN ZDP_NwkAddrReq
        FUNCTION ZDP_NwkAddrReq,0202H
        ARGFRAME ISTACK, 0, STACK
        ARGFRAME PSTACK, 0, STACK
        ARGFRAME XSTACK, 25, STACK
        ARGFRAME IOVERLAY, 0, STATIC
        ARGFRAME DOVERLAY, 0, STATIC
        EXTERN osal_start_timerEx
        FUNCTION osal_start_timerEx,0202H
        ARGFRAME ISTACK, 0, STACK
        ARGFRAME PSTACK, 0, STACK
        ARGFRAME XSTACK, 25, STACK
        ARGFRAME IOVERLAY, 0, STATIC
        ARGFRAME DOVERLAY, 0, STATIC
        EXTERN ZDO_AnyClusterMatches
        FUNCTION ZDO_AnyClusterMatches,0202H
        ARGFRAME ISTACK, 0, STACK
        ARGFRAME PSTACK, 0, STACK
        ARGFRAME XSTACK, 27, STACK
        ARGFRAME IOVERLAY, 0, STATIC
        ARGFRAME DOVERLAY, 0, STATIC
        EXTERN ZDP_MatchDescReq
        FUNCTION ZDP_MatchDescReq,0202H
        ARGFRAME ISTACK, 0, STACK
        ARGFRAME PSTACK, 0, STACK
        ARGFRAME XSTACK, 33, STACK
        ARGFRAME IOVERLAY, 0, STATIC
        ARGFRAME DOVERLAY, 0, STATIC
        EXTERN bindFind
        FUNCTION bindFind,0202H
        ARGFRAME ISTACK, 0, STACK
        ARGFRAME PSTACK, 0, STACK
        ARGFRAME XSTACK, 25, STACK
        ARGFRAME IOVERLAY, 0, STATIC
        ARGFRAME DOVERLAY, 0, STATIC
        EXTERN bindRemoveEntry
        FUNCTION bindRemoveEntry,0202H
        ARGFRAME ISTACK, 0, STACK
        ARGFRAME PSTACK, 0, STACK
        ARGFRAME XSTACK, 25, STACK
        ARGFRAME IOVERLAY, 0, STATIC
        ARGFRAME DOVERLAY, 0, STATIC
        EXTERN osal_stop_timerEx
        FUNCTION osal_stop_timerEx,0202H
        ARGFRAME ISTACK, 0, STACK
        ARGFRAME PSTACK, 0, STACK
        ARGFRAME XSTACK, 21, STACK
        ARGFRAME IOVERLAY, 0, STATIC
        ARGFRAME DOVERLAY, 0, STATIC
        EXTERN afSetMatch
        FUNCTION afSetMatch,0202H
        ARGFRAME ISTACK, 0, STACK
        ARGFRAME PSTACK, 0, STACK
        ARGFRAME XSTACK, 19, STACK
        ARGFRAME IOVERLAY, 0, STATIC
        ARGFRAME DOVERLAY, 0, STATIC
        EXTERN NLME_IsAddressBroadcast
        FUNCTION NLME_IsAddressBroadcast,0202H
        ARGFRAME ISTACK, 0, STACK
        ARGFRAME PSTACK, 0, STACK
        ARGFRAME XSTACK, 30, STACK
        ARGFRAME IOVERLAY, 0, STATIC
        ARGFRAME DOVERLAY, 0, STATIC
        EXTERN AF_DataRequest
        FUNCTION AF_DataRequest,0202H
        ARGFRAME ISTACK, 0, STACK
        ARGFRAME PSTACK, 0, STACK
        ARGFRAME XSTACK, 39, STACK
        ARGFRAME IOVERLAY, 0, STATIC
        ARGFRAME DOVERLAY, 0, STATIC
        EXTERN osal_nv_item_len
        FUNCTION osal_nv_item_len,0202H
        ARGFRAME ISTACK, 0, STACK
        ARGFRAME PSTACK, 0, STACK
        ARGFRAME XSTACK, 13, STACK
        ARGFRAME IOVERLAY, 0, STATIC
        ARGFRAME DOVERLAY, 0, STATIC
        EXTERN osal_nv_read
        FUNCTION osal_nv_read,0202H
        ARGFRAME ISTACK, 0, STACK
        ARGFRAME PSTACK, 0, STACK
        ARGFRAME XSTACK, 17, STACK
        ARGFRAME IOVERLAY, 0, STATIC
        ARGFRAME DOVERLAY, 0, STATIC
        EXTERN osal_nv_write
        FUNCTION osal_nv_write,0202H
        ARGFRAME ISTACK, 0, STACK
        ARGFRAME PSTACK, 0, STACK
        ARGFRAME XSTACK, 16, STACK
        ARGFRAME IOVERLAY, 0, STATIC
        ARGFRAME DOVERLAY, 0, STATIC
        EXTERN osal_memcpy
        FUNCTION osal_memcpy,0202H
        ARGFRAME ISTACK, 0, STACK
        ARGFRAME PSTACK, 0, STACK
        ARGFRAME XSTACK, 18, STACK
        ARGFRAME IOVERLAY, 0, STATIC
        ARGFRAME DOVERLAY, 0, STATIC
        EXTERN zb_StartConfirm
        FUNCTION zb_StartConfirm,0202H
        ARGFRAME ISTACK, 0, STACK
        ARGFRAME PSTACK, 0, STACK
        ARGFRAME XSTACK, 9, STACK
        ARGFRAME IOVERLAY, 0, STATIC
        ARGFRAME DOVERLAY, 0, STATIC
        EXTERN zb_SendDataConfirm
        FUNCTION zb_SendDataConfirm,0202H
        ARGFRAME ISTACK, 0, STACK
        ARGFRAME PSTACK, 0, STACK
        ARGFRAME XSTACK, 9, STACK
        ARGFRAME IOVERLAY, 0, STATIC
        ARGFRAME DOVERLAY, 0, STATIC
        EXTERN zb_BindConfirm
        FUNCTION zb_BindConfirm,0202H
        ARGFRAME ISTACK, 0, STACK
        ARGFRAME PSTACK, 0, STACK
        ARGFRAME XSTACK, 21, STACK
        ARGFRAME IOVERLAY, 0, STATIC
        ARGFRAME DOVERLAY, 0, STATIC
        EXTERN zb_AllowBindConfirm
        FUNCTION zb_AllowBindConfirm,0202H
        ARGFRAME ISTACK, 0, STACK
        ARGFRAME PSTACK, 0, STACK
        ARGFRAME XSTACK, 9, STACK
        ARGFRAME IOVERLAY, 0, STATIC
        ARGFRAME DOVERLAY, 0, STATIC
        EXTERN zb_FindDeviceConfirm
        FUNCTION zb_FindDeviceConfirm,0202H
        ARGFRAME ISTACK, 0, STACK
        ARGFRAME PSTACK, 0, STACK
        ARGFRAME XSTACK, 11, STACK
        ARGFRAME IOVERLAY, 0, STATIC
        ARGFRAME DOVERLAY, 0, STATIC
        EXTERN zb_ReceiveDataIndication
        FUNCTION zb_ReceiveDataIndication,0202H
        ARGFRAME ISTACK, 0, STACK
        ARGFRAME PSTACK, 0, STACK
        ARGFRAME XSTACK, 18, STACK
        ARGFRAME IOVERLAY, 0, STATIC
        ARGFRAME DOVERLAY, 0, STATIC
        EXTERN osal_msg_receive
        FUNCTION osal_msg_receive,0202H
        ARGFRAME ISTACK, 0, STACK
        ARGFRAME PSTACK, 0, STACK
        ARGFRAME XSTACK, 19, STACK
        ARGFRAME IOVERLAY, 0, STATIC
        ARGFRAME DOVERLAY, 0, STATIC
        EXTERN zb_HandleKeys
        FUNCTION zb_HandleKeys,0202H
        ARGFRAME ISTACK, 0, STACK
        ARGFRAME PSTACK, 0, STACK
        ARGFRAME XSTACK, 19, STACK
        ARGFRAME IOVERLAY, 0, STATIC
        ARGFRAME DOVERLAY, 0, STATIC
        EXTERN osal_msg_deallocate
        FUNCTION osal_msg_deallocate,0202H
        ARGFRAME ISTACK, 0, STACK
        ARGFRAME PSTACK, 0, STACK
        ARGFRAME XSTACK, 19, STACK
        ARGFRAME IOVERLAY, 0, STATIC
        ARGFRAME DOVERLAY, 0, STATIC
        EXTERN zb_HandleOsalEvent
        FUNCTION zb_HandleOsalEvent,0202H
        ARGFRAME ISTACK, 0, STACK
        ARGFRAME PSTACK, 0, STACK
        ARGFRAME XSTACK, 19, STACK
        ARGFRAME IOVERLAY, 0, STATIC
        ARGFRAME DOVERLAY, 0, STATIC
        EXTERN HalLedSet
        FUNCTION HalLedSet,0202H
        ARGFRAME ISTACK, 0, STACK
        ARGFRAME PSTACK, 0, STACK
        ARGFRAME XSTACK, 19, STACK
        ARGFRAME IOVERLAY, 0, STATIC
        ARGFRAME DOVERLAY, 0, STATIC
        EXTERN HalLedBlink
        FUNCTION HalLedBlink,0202H
        ARGFRAME ISTACK, 0, STACK
        ARGFRAME PSTACK, 0, STACK
        ARGFRAME XSTACK, 19, STACK
        ARGFRAME IOVERLAY, 0, STATIC
        ARGFRAME DOVERLAY, 0, STATIC
        EXTERN ZDO_ParseAddrRsp
        FUNCTION ZDO_ParseAddrRsp,0202H
        ARGFRAME ISTACK, 0, STACK
        ARGFRAME PSTACK, 0, STACK
        ARGFRAME XSTACK, 21, STACK
        ARGFRAME IOVERLAY, 0, STATIC
        ARGFRAME DOVERLAY, 0, STATIC
        EXTERN ZDO_ParseEPListRsp
        FUNCTION ZDO_ParseEPListRsp,0202H
        ARGFRAME ISTACK, 0, STACK
        ARGFRAME PSTACK, 0, STACK
        ARGFRAME XSTACK, 21, STACK
        ARGFRAME IOVERLAY, 0, STATIC
        ARGFRAME DOVERLAY, 0, STATIC
        EXTERN ZDP_IEEEAddrReq
        FUNCTION ZDP_IEEEAddrReq,0202H
        ARGFRAME ISTACK, 0, STACK
        ARGFRAME PSTACK, 0, STACK
        ARGFRAME XSTACK, 21, STACK
        ARGFRAME IOVERLAY, 0, STATIC
        ARGFRAME DOVERLAY, 0, STATIC
        EXTERN afRegister
        FUNCTION afRegister,0202H
        ARGFRAME ISTACK, 0, STACK
        ARGFRAME PSTACK, 0, STACK
        ARGFRAME XSTACK, 10, STACK
        ARGFRAME IOVERLAY, 0, STATIC
        ARGFRAME DOVERLAY, 0, STATIC
        EXTERN ZDO_RegisterForZDOMsg
        FUNCTION ZDO_RegisterForZDOMsg,0202H
        ARGFRAME ISTACK, 0, STACK
        ARGFRAME PSTACK, 0, STACK
        ARGFRAME XSTACK, 10, STACK
        ARGFRAME IOVERLAY, 0, STATIC
        ARGFRAME DOVERLAY, 0, STATIC
        EXTERN RegisterForKeys
        FUNCTION RegisterForKeys,0202H
        ARGFRAME ISTACK, 0, STACK
        ARGFRAME PSTACK, 0, STACK
        ARGFRAME XSTACK, 10, STACK
        ARGFRAME IOVERLAY, 0, STATIC
        ARGFRAME DOVERLAY, 0, STATIC
        EXTERN HalKeyRead
        FUNCTION HalKeyRead,0202H
        ARGFRAME ISTACK, 0, STACK
        ARGFRAME PSTACK, 0, STACK
        ARGFRAME XSTACK, 10, STACK
        ARGFRAME IOVERLAY, 0, STATIC
        ARGFRAME DOVERLAY, 0, STATIC
        EXTERN osal_set_event
        FUNCTION osal_set_event,0202H
        ARGFRAME ISTACK, 0, STACK
        ARGFRAME PSTACK, 0, STACK
        ARGFRAME XSTACK, 10, STACK
        ARGFRAME IOVERLAY, 0, STATIC
        ARGFRAME DOVERLAY, 0, STATIC
        EXTERN osal_msg_allocate
        FUNCTION osal_msg_allocate,0202H
        ARGFRAME ISTACK, 0, STACK
        ARGFRAME PSTACK, 0, STACK
        ARGFRAME XSTACK, 14, STACK
        ARGFRAME IOVERLAY, 0, STATIC
        ARGFRAME DOVERLAY, 0, STATIC
        EXTERN osal_msg_send
        FUNCTION osal_msg_send,0202H
        ARGFRAME ISTACK, 0, STACK
        ARGFRAME PSTACK, 0, STACK
        ARGFRAME XSTACK, 14, STACK
        ARGFRAME IOVERLAY, 0, STATIC
        ARGFRAME DOVERLAY, 0, STATIC
        EXTERN osal_mem_alloc
        FUNCTION osal_mem_alloc,0202H
        ARGFRAME ISTACK, 0, STACK
        ARGFRAME PSTACK, 0, STACK
        ARGFRAME XSTACK, 9, STACK
        ARGFRAME IOVERLAY, 0, STATIC
        ARGFRAME DOVERLAY, 0, STATIC
        EXTERN osal_memset
        FUNCTION osal_memset,0202H
        ARGFRAME ISTACK, 0, STACK
        ARGFRAME PSTACK, 0, STACK
        ARGFRAME XSTACK, 9, STACK
        ARGFRAME IOVERLAY, 0, STATIC
        ARGFRAME DOVERLAY, 0, STATIC
        EXTERN macTaskInit
        FUNCTION macTaskInit,0202H
        ARGFRAME ISTACK, 0, STACK
        ARGFRAME PSTACK, 0, STACK
        ARGFRAME XSTACK, 9, STACK
        ARGFRAME IOVERLAY, 0, STATIC
        ARGFRAME DOVERLAY, 0, STATIC
        EXTERN nwk_init
        FUNCTION nwk_init,0202H
        ARGFRAME ISTACK, 0, STACK
        ARGFRAME PSTACK, 0, STACK
        ARGFRAME XSTACK, 9, STACK
        ARGFRAME IOVERLAY, 0, STATIC
        ARGFRAME DOVERLAY, 0, STATIC
        EXTERN Hal_Init
        FUNCTION Hal_Init,0202H
        ARGFRAME ISTACK, 0, STACK
        ARGFRAME PSTACK, 0, STACK
        ARGFRAME XSTACK, 9, STACK
        ARGFRAME IOVERLAY, 0, STATIC
        ARGFRAME DOVERLAY, 0, STATIC
        EXTERN APS_Init
        FUNCTION APS_Init,0202H
        ARGFRAME ISTACK, 0, STACK
        ARGFRAME PSTACK, 0, STACK
        ARGFRAME XSTACK, 9, STACK
        ARGFRAME IOVERLAY, 0, STATIC
        ARGFRAME DOVERLAY, 0, STATIC
        EXTERN ZDApp_Init
        FUNCTION ZDApp_Init,0202H
        ARGFRAME ISTACK, 0, STACK
        ARGFRAME PSTACK, 0, STACK
        ARGFRAME XSTACK, 9, STACK
        ARGFRAME IOVERLAY, 0, STATIC
        ARGFRAME DOVERLAY, 0, STATIC
        EXTERN ??AF_DataRequest?relay
        FUNCTION ??AF_DataRequest?relay,00H
        EXTERN ??APSME_BindRequest?relay
        FUNCTION ??APSME_BindRequest?relay,00H
        EXTERN ??APS_Init?relay
        FUNCTION ??APS_Init?relay,00H
        EXTERN ??APS_event_loop?relay
        FUNCTION ??APS_event_loop?relay,00H
        EXTERN ??HalKeyRead?relay
        FUNCTION ??HalKeyRead?relay,00H
        EXTERN ??HalLedBlink?relay
        FUNCTION ??HalLedBlink?relay,00H
        EXTERN ??HalLedSet?relay
        FUNCTION ??HalLedSet?relay,00H
        EXTERN ??Hal_Init?relay
        FUNCTION ??Hal_Init?relay,00H
        EXTERN ??Hal_ProcessEvent?relay
        FUNCTION ??Hal_ProcessEvent?relay,00H
        EXTERN ??NLME_IsAddressBroadcast?relay
        FUNCTION ??NLME_IsAddressBroadcast?relay,00H
        EXTERN ??RegisterForKeys?relay
        FUNCTION ??RegisterForKeys?relay,00H
        EXTERN ??ZDApp_Init?relay
        FUNCTION ??ZDApp_Init?relay,00H
        EXTERN ??ZDApp_event_loop?relay
        FUNCTION ??ZDApp_event_loop?relay,00H
        EXTERN ??ZDOInitDevice?relay
        FUNCTION ??ZDOInitDevice?relay,00H
        EXTERN ??ZDO_AnyClusterMatches?relay
        FUNCTION ??ZDO_AnyClusterMatches?relay,00H
        EXTERN ??ZDO_ParseAddrRsp?relay
        FUNCTION ??ZDO_ParseAddrRsp?relay,00H
        EXTERN ??ZDO_ParseEPListRsp?relay
        FUNCTION ??ZDO_ParseEPListRsp?relay,00H
        EXTERN ??ZDO_RegisterForZDOMsg?relay
        FUNCTION ??ZDO_RegisterForZDOMsg?relay,00H
        EXTERN ??ZDP_IEEEAddrReq?relay
        FUNCTION ??ZDP_IEEEAddrReq?relay,00H
        EXTERN ??ZDP_MatchDescReq?relay
        FUNCTION ??ZDP_MatchDescReq?relay,00H
        EXTERN ??ZDP_NwkAddrReq?relay
        FUNCTION ??ZDP_NwkAddrReq?relay,00H
        EXTERN ??afRegister?relay
        FUNCTION ??afRegister?relay,00H
        EXTERN ??afSetMatch?relay
        FUNCTION ??afSetMatch?relay,00H
        EXTERN ??bindFind?relay
        FUNCTION ??bindFind?relay,00H
        EXTERN ??bindRemoveEntry?relay
        FUNCTION ??bindRemoveEntry?relay,00H
        EXTERN ??macEventLoop?relay
        FUNCTION ??macEventLoop?relay,00H
        EXTERN ??macTaskInit?relay
        FUNCTION ??macTaskInit?relay,00H
        EXTERN ??nwk_event_loop?relay
        FUNCTION ??nwk_event_loop?relay,00H
        EXTERN ??nwk_init?relay
        FUNCTION ??nwk_init?relay,00H
        EXTERN ??osal_mem_alloc?relay
        FUNCTION ??osal_mem_alloc?relay,00H
        EXTERN ??osal_memcpy?relay
        FUNCTION ??osal_memcpy?relay,00H
        EXTERN ??osal_memset?relay
        FUNCTION ??osal_memset?relay,00H
        EXTERN ??osal_msg_allocate?relay
        FUNCTION ??osal_msg_allocate?relay,00H
        EXTERN ??osal_msg_deallocate?relay
        FUNCTION ??osal_msg_deallocate?relay,00H
        EXTERN ??osal_msg_receive?relay
        FUNCTION ??osal_msg_receive?relay,00H
        EXTERN ??osal_msg_send?relay
        FUNCTION ??osal_msg_send?relay,00H
        EXTERN ??osal_nv_item_len?relay
        FUNCTION ??osal_nv_item_len?relay,00H
        EXTERN ??osal_nv_read?relay
        FUNCTION ??osal_nv_read?relay,00H
        EXTERN ??osal_nv_write?relay
        FUNCTION ??osal_nv_write?relay,00H
        EXTERN ??osal_set_event?relay
        FUNCTION ??osal_set_event?relay,00H
        EXTERN ??osal_start_timerEx?relay
        FUNCTION ??osal_start_timerEx?relay,00H
        EXTERN ??osal_stop_timerEx?relay
        FUNCTION ??osal_stop_timerEx?relay,00H
        EXTERN ??sAddrExtCpy?relay
        FUNCTION ??sAddrExtCpy?relay,00H
        EXTERN ??zb_AllowBindConfirm?relay
        FUNCTION ??zb_AllowBindConfirm?relay,00H
        EXTERN ??zb_BindConfirm?relay
        FUNCTION ??zb_BindConfirm?relay,00H
        EXTERN ??zb_FindDeviceConfirm?relay
        FUNCTION ??zb_FindDeviceConfirm?relay,00H
        EXTERN ??zb_HandleKeys?relay
        FUNCTION ??zb_HandleKeys?relay,00H
        EXTERN ??zb_HandleOsalEvent?relay
        FUNCTION ??zb_HandleOsalEvent?relay,00H
        EXTERN ??zb_ReceiveDataIndication?relay
        FUNCTION ??zb_ReceiveDataIndication?relay,00H
        EXTERN ??zb_SendDataConfirm?relay
        FUNCTION ??zb_SendDataConfirm?relay,00H
        EXTERN ??zb_StartConfirm?relay
        FUNCTION ??zb_StartConfirm?relay,00H
        EXTERN AIB_MaxBindingTime
        EXTERN ZDAppTaskID
        EXTERN _NIB
        EXTERN aExtendedAddress
        EXTERN devState
        EXTERN zb_SimpleDesc
        EXTERN zgStartDelay

// C:\Texas Instruments\ZStack-CC2530-2.5.1a\Components\stack\sapi\sapi.c
//    1 /**************************************************************************************************
//    2 Filename:       sapi.c
//    3 Revised:        $Date: 2010-05-03 17:46:57 -0700 (Mon, 03 May 2010) $
//    4 Revision:       $Revision: 22364 $
//    5 
//    6 Description:    Z-Stack Simple Application Interface.
//    7 
//    8 
//    9 Copyright 2007-2010 Texas Instruments Incorporated. All rights reserved.
//   10 
//   11 IMPORTANT: Your use of this Software is limited to those specific rights
//   12 granted under the terms of a software license agreement between the user
//   13 who downloaded the software, his/her employer (which must be your employer)
//   14 and Texas Instruments Incorporated (the "License").  You may not use this
//   15 Software unless you agree to abide by the terms of the License. The License
//   16 limits your use, and you acknowledge, that the Software may not be modified,
//   17 copied or distributed unless embedded on a Texas Instruments microcontroller
//   18 or used solely and exclusively in conjunction with a Texas Instruments radio
//   19 frequency transceiver, which is integrated into your product.  Other than for
//   20 the foregoing purpose, you may not use, reproduce, copy, prepare derivative
//   21 works of, modify, distribute, perform, display or sell this Software and/or
//   22 its documentation for any purpose.
//   23 
//   24 YOU FURTHER ACKNOWLEDGE AND AGREE THAT THE SOFTWARE AND DOCUMENTATION ARE
//   25 PROVIDED “AS IS?WITHOUT WARRANTY OF ANY KIND, EITHER EXPRESS OR IMPLIED,
//   26 INCLUDING WITHOUT LIMITATION, ANY WARRANTY OF MERCHANTABILITY, TITLE,
//   27 NON-INFRINGEMENT AND FITNESS FOR A PARTICULAR PURPOSE. IN NO EVENT SHALL
//   28 TEXAS INSTRUMENTS OR ITS LICENSORS BE LIABLE OR OBLIGATED UNDER CONTRACT,
//   29 NEGLIGENCE, STRICT LIABILITY, CONTRIBUTION, BREACH OF WARRANTY, OR OTHER
//   30 LEGAL EQUITABLE THEORY ANY DIRECT OR INDIRECT DAMAGES OR EXPENSES
//   31 INCLUDING BUT NOT LIMITED TO ANY INCIDENTAL, SPECIAL, INDIRECT, PUNITIVE
//   32 OR CONSEQUENTIAL DAMAGES, LOST PROFITS OR LOST DATA, COST OF PROCUREMENT
//   33 OF SUBSTITUTE GOODS, TECHNOLOGY, SERVICES, OR ANY CLAIMS BY THIRD PARTIES
//   34 (INCLUDING BUT NOT LIMITED TO ANY DEFENSE THEREOF), OR OTHER SIMILAR COSTS.
//   35 
//   36 Should you have any questions regarding your right to use this Software,
//   37 contact Texas Instruments Incorporated at www.TI.com.
//   38 **************************************************************************************************/
//   39 
//   40 /******************************************************************************
//   41 * INCLUDES
//   42 */
//   43 
//   44 #include "ZComDef.h"
//   45 #include "hal_drivers.h"
//   46 #include "OSAL.h"
//   47 #include "OSAL_Tasks.h"
//   48 //#include "OSAL_Custom.h"
//   49 
//   50 #if defined ( MT_TASK )
//   51 #include "MT.h"
//   52 #include "MT_TASK.h"
//   53 #endif
//   54 
//   55 #include "nwk.h"
//   56 #include "APS.h"
//   57 #include "ZDApp.h"
//   58 
//   59 #include "osal_nv.h"
//   60 #include "NLMEDE.h"
//   61 #include "AF.h"
//   62 #include "OnBoard.h"
//   63 #include "nwk_util.h"
//   64 #include "ZDProfile.h"
//   65 #include "ZDObject.h"
//   66 #include "hal_led.h"
//   67 #include "hal_key.h"
//   68 #include "sapi.h"
//   69 #include "MT_SAPI.h"
//   70 
//   71 extern uint8 zgStartDelay;
//   72 extern uint8 zgSapiEndpoint;
//   73 /*********************************************************************
//   74 * CONSTANTS
//   75 */
//   76 
//   77 #if !defined OSAL_SAPI
//   78 #define OSAL_SAPI  TRUE
//   79 #endif
//   80 
//   81 #if !defined SAPI_CB_FUNC
//   82 #define SAPI_CB_FUNC  TRUE
//   83 #endif
//   84 
//   85 // Message ID's for application user messages must be in 0xE0-0xEF range
//   86 #define ZB_USER_MSG                       0xE0
//   87 #define SAPICB_DATA_CNF   0xE0
//   88 #define SAPICB_BIND_CNF   0xE1
//   89 #define SAPICB_START_CNF  0xE2
//   90 
//   91 /*********************************************************************
//   92 * TYPEDEFS
//   93 */
//   94 
//   95 /*********************************************************************
//   96 * GLOBAL VARIABLES
//   97 */
//   98 
//   99 #if OSAL_SAPI
//  100 // The order in this table must be identical to the task initialization calls below in osalInitTask.

        RSEG XDATA_ROM_C:CONST:REORDER:NOROOT(0)
        DATA8
//  101 const pTaskEventHandlerFn tasksArr[] = {
tasksArr:
        DATA16
        DW ??macEventLoop?relay
        DW ??nwk_event_loop?relay
        DW ??Hal_ProcessEvent?relay
        DW ??APS_event_loop?relay
        DW ??ZDApp_event_loop?relay
        DW ??SAPI_ProcessEvent?relay
//  102   macEventLoop,
//  103   nwk_event_loop,
//  104   Hal_ProcessEvent,
//  105 #if defined( MT_TASK )
//  106 MT_ProcessEvent,
//  107 #endif
//  108 APS_event_loop,
//  109 ZDApp_event_loop,
//  110 
//  111 SAPI_ProcessEvent
//  112 };
//  113 

        RSEG XDATA_ROM_C:CONST:REORDER:NOROOT(0)
        DATA8
//  114 const uint8 tasksCnt = sizeof( tasksArr ) / sizeof( tasksArr[0] );
tasksCnt:
        DB 6

        RSEG XDATA_Z:XDATA:NOROOT(0)
        DATA16
//  115 uint16 *tasksEvents;
tasksEvents:
        DS 2
        REQUIRE __INIT_XDATA_Z
//  116 #endif
//  117 

        RSEG XDATA_Z:XDATA:NOROOT(0)
        DATA8
//  118 endPointDesc_t sapi_epDesc;
sapi_epDesc:
        DS 6
        REQUIRE __INIT_XDATA_Z

        RSEG XDATA_Z:XDATA:NOROOT(0)
        DATA8
//  119 uint8 sapi_TaskID;
sapi_TaskID:
        DS 1
        REQUIRE __INIT_XDATA_Z

        RSEG XDATA_Z:XDATA:NOROOT(0)
        DATA16
//  120 static uint16 sapi_bindInProgress;
sapi_bindInProgress:
        DS 2
        REQUIRE __INIT_XDATA_Z
//  121 
//  122 /*********************************************************************
//  123 * LOCAL FUNCTIONS
//  124 */
//  125 
//  126 void SAPI_ProcessZDOMsgs( zdoIncomingMsg_t *inMsg );
//  127 static void SAPI_SendCback( uint8 event, uint8 status, uint16 data );
//  128 
//  129 static void SAPI_StartConfirm( uint8 status );
//  130 static void SAPI_SendDataConfirm( uint8 handle, uint8 status );
//  131 static void SAPI_BindConfirm( uint16 commandId, uint8 status );
//  132 static void SAPI_FindDeviceConfirm( uint8 searchType,
//  133                                    uint8 *searchKey, uint8 *result );
//  134 static void SAPI_ReceiveDataIndication( uint16 source,
//  135                                        uint16 command, uint16 len, uint8 *pData  );
//  136 static void SAPI_AllowBindConfirm( uint16 source );
//  137 
//  138 /******************************************************************************
//  139 * @fn          zb_SystemReset
//  140 *
//  141 * @brief       The zb_SystemReset function reboots the ZigBee device.  The
//  142 *              zb_SystemReset function can be called after a call to
//  143 *              zb_WriteConfiguration to restart Z-Stack with the updated
//  144 *              configuration.
//  145 *
//  146 * @param       none
//  147 *
//  148 * @return      none
//  149 */

        RSEG BANKED_CODE:CODE:NOROOT(0)
//  150 void zb_SystemReset ( void )
zb_SystemReset:
        CFI Block cfiBlock0 Using cfiCommon0
        CFI Function zb_SystemReset
        CODE
//  151 {
        FUNCALL zb_SystemReset, Onboard_soft_reset
        LOCFRAME ISTACK, 0, STACK
        LOCFRAME PSTACK, 0, STACK
        LOCFRAME XSTACK, 0, STACK
        LOCFRAME IOVERLAY, 0, STATIC
        LOCFRAME DOVERLAY, 0, STATIC
        ARGFRAME ISTACK, 0, STACK
        ARGFRAME PSTACK, 0, STACK
        ARGFRAME XSTACK, 0, STACK
        ARGFRAME IOVERLAY, 0, STATIC
        ARGFRAME DOVERLAY, 0, STATIC
        ; Saved register size: 0
        ; Auto size: 0
//  152   SystemResetSoft();  // Especially useful for CC2531 to not break comm with USB Host.
        ; Setup parameters for call to function Onboard_soft_reset
        LCALL   Onboard_soft_reset & 0xFFFF
//  153 }
        LJMP    ?BRET
        CFI EndBlock cfiBlock0
//  154 
//  155 /******************************************************************************
//  156 * @fn          zb_StartRequest
//  157 *
//  158 * @brief       The zb_StartRequest function starts the ZigBee stack.  When the
//  159 *              ZigBee stack starts, the device reads configuration parameters
//  160 *              from Nonvolatile memory and the device joins its network.  The
//  161 *              ZigBee stack calls the zb_StartConrifm callback function when
//  162 *              the startup process completes.
//  163 *
//  164 * @param       none
//  165 *
//  166 * @return      none
//  167 */

        RSEG BANKED_CODE:CODE:NOROOT(0)
//  168 void zb_StartRequest()
zb_StartRequest:
        CFI Block cfiBlock1 Using cfiCommon0
        CFI Function zb_StartRequest
        CODE
//  169 {
        FUNCALL zb_StartRequest, zb_ReadConfiguration
        LOCFRAME ISTACK, 2, STACK
        LOCFRAME PSTACK, 0, STACK
        LOCFRAME XSTACK, 1, STACK
        LOCFRAME IOVERLAY, 0, STATIC
        LOCFRAME DOVERLAY, 0, STATIC
        ARGFRAME ISTACK, 2, STACK
        ARGFRAME PSTACK, 0, STACK
        ARGFRAME XSTACK, 1, STACK
        ARGFRAME IOVERLAY, 0, STATIC
        ARGFRAME DOVERLAY, 0, STATIC
        FUNCALL zb_StartRequest, SAPI_SendCback
        LOCFRAME ISTACK, 2, STACK
        LOCFRAME PSTACK, 0, STACK
        LOCFRAME XSTACK, 1, STACK
        LOCFRAME IOVERLAY, 0, STATIC
        LOCFRAME DOVERLAY, 0, STATIC
        ARGFRAME ISTACK, 2, STACK
        ARGFRAME PSTACK, 0, STACK
        ARGFRAME XSTACK, 1, STACK
        ARGFRAME IOVERLAY, 0, STATIC
        ARGFRAME DOVERLAY, 0, STATIC
        FUNCALL zb_StartRequest, ZDOInitDevice
        LOCFRAME ISTACK, 2, STACK
        LOCFRAME PSTACK, 0, STACK
        LOCFRAME XSTACK, 1, STACK
        LOCFRAME IOVERLAY, 0, STATIC
        LOCFRAME DOVERLAY, 0, STATIC
        ARGFRAME ISTACK, 2, STACK
        ARGFRAME PSTACK, 0, STACK
        ARGFRAME XSTACK, 1, STACK
        ARGFRAME IOVERLAY, 0, STATIC
        ARGFRAME DOVERLAY, 0, STATIC
        PUSH    DPL
        CFI DPL0 Frame(CFA_SP, 4)
        CFI CFA_SP SP+-4
        PUSH    DPH
        CFI DPH0 Frame(CFA_SP, 5)
        CFI CFA_SP SP+-5
        ; Saved register size: 2
        ; Auto size: 1
        MOV     A,#-0x1
        LCALL   ?ALLOC_XSTACK8
        CFI CFA_XSP16 add(XSP16, 1)
//  170   uint8 logicalType;
//  171   
//  172   zb_ReadConfiguration( ZCD_NV_LOGICAL_TYPE, sizeof(uint8), &logicalType );
        ; Setup parameters for call to function zb_ReadConfiguration
        MOV     DPL,?XSP + 0
        MOV     DPH,?XSP + 1
        MOV     R4,DPL
        MOV     R5,DPH
        MOV     R2,#0x1
        MOV     R1,#-0x79
        LCALL   ??zb_ReadConfiguration?relay
        MOV     A,R1
//  173   
//  174   // Check for bad combinations of compile flag definitions and device type setting.
//  175   if ((logicalType > ZG_DEVICETYPE_ENDDEVICE)      ||
//  176 #if !ZG_BUILD_ENDDEVICE_TYPE   // Only RTR or Coord possible.
//  177       (logicalType == ZG_DEVICETYPE_ENDDEVICE)     ||
//  178 #endif
//  179 #if !ZG_BUILD_RTR_TYPE         // Only End Device possible.
//  180         (logicalType == ZG_DEVICETYPE_ROUTER)        ||
//  181           (logicalType == ZG_DEVICETYPE_COORDINATOR)   ||
//  182 #elif ZG_BUILD_RTRONLY_TYPE    // Only RTR possible.
//  183             (logicalType == ZG_DEVICETYPE_COORDINATOR)   ||
//  184 #elif !ZG_BUILD_JOINING_TYPE   // Only Coord possible.
//  185               (logicalType == ZG_DEVICETYPE_ROUTER)        ||
//  186 #endif
//  187                 (0))
        MOV     DPL,?XSP + 0
        MOV     DPH,?XSP + 1
        MOVX    A,@DPTR
        CLR     C
        SUBB    A,#0x3
        JNC     ??zb_StartRequest_0
        MOV     DPL,?XSP + 0
        MOV     DPH,?XSP + 1
        MOVX    A,@DPTR
        XRL     A,#0x2
        JZ      ??zb_StartRequest_0
        MOV     DPL,?XSP + 0
        MOV     DPH,?XSP + 1
        MOVX    A,@DPTR
        XRL     A,#0x1
        JNZ     ??zb_StartRequest_1
//  188   {
//  189     logicalType = ZB_INVALID_PARAMETER;
??zb_StartRequest_0:
        MOV     DPL,?XSP + 0
        MOV     DPH,?XSP + 1
        MOV     A,#0x2
        MOVX    @DPTR,A
//  190     SAPI_SendCback(SAPICB_START_CNF, logicalType, 0);
        ; Setup parameters for call to function SAPI_SendCback
        MOV     R4,#0x0
        MOV     R5,#0x0
        MOV     DPL,?XSP + 0
        MOV     DPH,?XSP + 1
        MOVX    A,@DPTR
        MOV     R2,A
        MOV     R1,#-0x1e
        LCALL   ??SAPI_SendCback?relay
        SJMP    ??zb_StartRequest_2
//  191   }
//  192   else
//  193   {
//  194     logicalType = ZB_SUCCESS;
??zb_StartRequest_1:
        MOV     DPL,?XSP + 0
        MOV     DPH,?XSP + 1
        MOV     A,#0x0
        MOVX    @DPTR,A
//  195     ZDOInitDevice(zgStartDelay);
        ; Setup parameters for call to function ZDOInitDevice
        MOV     DPTR,#zgStartDelay
        MOVX    A,@DPTR
        MOV     R2,A
        MOV     R3,#0x0
        LCALL   ??ZDOInitDevice?relay
        MOV     A,R1
//  196   }
//  197   
//  198   
//  199   return;
??zb_StartRequest_2:
        MOV     A,#0x1
        LCALL   ?DEALLOC_XSTACK8
        CFI CFA_XSP16 XSP16+0
        POP     DPH
        CFI DPH0 SameValue
        CFI CFA_SP SP+-4
        POP     DPL
        CFI DPL0 SameValue
        CFI CFA_SP SP+-3
        LJMP    ?BRET
        CFI EndBlock cfiBlock1
//  200 }
//  201 
//  202 /******************************************************************************
//  203 * @fn          zb_BindDevice
//  204 *
//  205 * @brief       The zb_BindDevice function establishes or removes a ‘binding? *              between two devices.  Once bound, an application can send
//  206 *              messages to a device by referencing the commandId for the
//  207 *              binding.
//  208 *
//  209 * @param       create - TRUE to create a binding, FALSE to remove a binding
//  210 *              commandId - The identifier of the binding
//  211 *              pDestination - The 64-bit IEEE address of the device to bind to
//  212 *
//  213 * @return      The status of the bind operation is returned in the
//  214 *              zb_BindConfirm callback.
//  215 */

        RSEG BANKED_CODE:CODE:NOROOT(0)
//  216 void zb_BindDevice ( uint8 create, uint16 commandId, uint8 *pDestination )
zb_BindDevice:
        CFI Block cfiBlock2 Using cfiCommon0
        CFI Function zb_BindDevice
        CODE
//  217 {
        FUNCALL zb_BindDevice, sAddrExtCpy
        LOCFRAME ISTACK, 0, STACK
        LOCFRAME PSTACK, 0, STACK
        LOCFRAME XSTACK, 25, STACK
        LOCFRAME IOVERLAY, 0, STATIC
        LOCFRAME DOVERLAY, 0, STATIC
        ARGFRAME ISTACK, 0, STACK
        ARGFRAME PSTACK, 0, STACK
        ARGFRAME XSTACK, 25, STACK
        ARGFRAME IOVERLAY, 0, STATIC
        ARGFRAME DOVERLAY, 0, STATIC
        FUNCALL zb_BindDevice, APSME_BindRequest
        LOCFRAME ISTACK, 0, STACK
        LOCFRAME PSTACK, 0, STACK
        LOCFRAME XSTACK, 26, STACK
        LOCFRAME IOVERLAY, 0, STATIC
        LOCFRAME DOVERLAY, 0, STATIC
        ARGFRAME ISTACK, 0, STACK
        ARGFRAME PSTACK, 0, STACK
        ARGFRAME XSTACK, 26, STACK
        ARGFRAME IOVERLAY, 0, STATIC
        ARGFRAME DOVERLAY, 0, STATIC
        FUNCALL zb_BindDevice, ZDP_NwkAddrReq
        LOCFRAME ISTACK, 0, STACK
        LOCFRAME PSTACK, 0, STACK
        LOCFRAME XSTACK, 25, STACK
        LOCFRAME IOVERLAY, 0, STATIC
        LOCFRAME DOVERLAY, 0, STATIC
        ARGFRAME ISTACK, 0, STACK
        ARGFRAME PSTACK, 0, STACK
        ARGFRAME XSTACK, 25, STACK
        ARGFRAME IOVERLAY, 0, STATIC
        ARGFRAME DOVERLAY, 0, STATIC
        FUNCALL zb_BindDevice, osal_start_timerEx
        LOCFRAME ISTACK, 0, STACK
        LOCFRAME PSTACK, 0, STACK
        LOCFRAME XSTACK, 25, STACK
        LOCFRAME IOVERLAY, 0, STATIC
        LOCFRAME DOVERLAY, 0, STATIC
        ARGFRAME ISTACK, 0, STACK
        ARGFRAME PSTACK, 0, STACK
        ARGFRAME XSTACK, 25, STACK
        ARGFRAME IOVERLAY, 0, STATIC
        ARGFRAME DOVERLAY, 0, STATIC
        FUNCALL zb_BindDevice, ZDO_AnyClusterMatches
        LOCFRAME ISTACK, 0, STACK
        LOCFRAME PSTACK, 0, STACK
        LOCFRAME XSTACK, 27, STACK
        LOCFRAME IOVERLAY, 0, STATIC
        LOCFRAME DOVERLAY, 0, STATIC
        ARGFRAME ISTACK, 0, STACK
        ARGFRAME PSTACK, 0, STACK
        ARGFRAME XSTACK, 27, STACK
        ARGFRAME IOVERLAY, 0, STATIC
        ARGFRAME DOVERLAY, 0, STATIC
        FUNCALL zb_BindDevice, ZDP_MatchDescReq
        LOCFRAME ISTACK, 0, STACK
        LOCFRAME PSTACK, 0, STACK
        LOCFRAME XSTACK, 33, STACK
        LOCFRAME IOVERLAY, 0, STATIC
        LOCFRAME DOVERLAY, 0, STATIC
        ARGFRAME ISTACK, 0, STACK
        ARGFRAME PSTACK, 0, STACK
        ARGFRAME XSTACK, 33, STACK
        ARGFRAME IOVERLAY, 0, STATIC
        ARGFRAME DOVERLAY, 0, STATIC
        FUNCALL zb_BindDevice, ZDO_AnyClusterMatches
        LOCFRAME ISTACK, 0, STACK
        LOCFRAME PSTACK, 0, STACK
        LOCFRAME XSTACK, 27, STACK
        LOCFRAME IOVERLAY, 0, STATIC
        LOCFRAME DOVERLAY, 0, STATIC
        ARGFRAME ISTACK, 0, STACK
        ARGFRAME PSTACK, 0, STACK
        ARGFRAME XSTACK, 27, STACK
        ARGFRAME IOVERLAY, 0, STATIC
        ARGFRAME DOVERLAY, 0, STATIC
        FUNCALL zb_BindDevice, ZDP_MatchDescReq
        LOCFRAME ISTACK, 0, STACK
        LOCFRAME PSTACK, 0, STACK
        LOCFRAME XSTACK, 33, STACK
        LOCFRAME IOVERLAY, 0, STATIC
        LOCFRAME DOVERLAY, 0, STATIC
        ARGFRAME ISTACK, 0, STACK
        ARGFRAME PSTACK, 0, STACK
        ARGFRAME XSTACK, 33, STACK
        ARGFRAME IOVERLAY, 0, STATIC
        ARGFRAME DOVERLAY, 0, STATIC
        FUNCALL zb_BindDevice, osal_start_timerEx
        LOCFRAME ISTACK, 0, STACK
        LOCFRAME PSTACK, 0, STACK
        LOCFRAME XSTACK, 25, STACK
        LOCFRAME IOVERLAY, 0, STATIC
        LOCFRAME DOVERLAY, 0, STATIC
        ARGFRAME ISTACK, 0, STACK
        ARGFRAME PSTACK, 0, STACK
        ARGFRAME XSTACK, 25, STACK
        ARGFRAME IOVERLAY, 0, STATIC
        ARGFRAME DOVERLAY, 0, STATIC
        FUNCALL zb_BindDevice, SAPI_SendCback
        LOCFRAME ISTACK, 0, STACK
        LOCFRAME PSTACK, 0, STACK
        LOCFRAME XSTACK, 25, STACK
        LOCFRAME IOVERLAY, 0, STATIC
        LOCFRAME DOVERLAY, 0, STATIC
        ARGFRAME ISTACK, 0, STACK
        ARGFRAME PSTACK, 0, STACK
        ARGFRAME XSTACK, 25, STACK
        ARGFRAME IOVERLAY, 0, STATIC
        ARGFRAME DOVERLAY, 0, STATIC
        FUNCALL zb_BindDevice, bindFind
        LOCFRAME ISTACK, 0, STACK
        LOCFRAME PSTACK, 0, STACK
        LOCFRAME XSTACK, 25, STACK
        LOCFRAME IOVERLAY, 0, STATIC
        LOCFRAME DOVERLAY, 0, STATIC
        ARGFRAME ISTACK, 0, STACK
        ARGFRAME PSTACK, 0, STACK
        ARGFRAME XSTACK, 25, STACK
        ARGFRAME IOVERLAY, 0, STATIC
        ARGFRAME DOVERLAY, 0, STATIC
        FUNCALL zb_BindDevice, bindRemoveEntry
        LOCFRAME ISTACK, 0, STACK
        LOCFRAME PSTACK, 0, STACK
        LOCFRAME XSTACK, 25, STACK
        LOCFRAME IOVERLAY, 0, STATIC
        LOCFRAME DOVERLAY, 0, STATIC
        ARGFRAME ISTACK, 0, STACK
        ARGFRAME PSTACK, 0, STACK
        ARGFRAME XSTACK, 25, STACK
        ARGFRAME IOVERLAY, 0, STATIC
        ARGFRAME DOVERLAY, 0, STATIC
        FUNCALL zb_BindDevice, osal_start_timerEx
        LOCFRAME ISTACK, 0, STACK
        LOCFRAME PSTACK, 0, STACK
        LOCFRAME XSTACK, 25, STACK
        LOCFRAME IOVERLAY, 0, STATIC
        LOCFRAME DOVERLAY, 0, STATIC
        ARGFRAME ISTACK, 0, STACK
        ARGFRAME PSTACK, 0, STACK
        ARGFRAME XSTACK, 25, STACK
        ARGFRAME IOVERLAY, 0, STATIC
        ARGFRAME DOVERLAY, 0, STATIC
        MOV     A,#-0xe
        LCALL   ?BANKED_ENTER_XDATA
        CFI DPH0 load(1, XDATA, add(CFA_XSP16, literal(-1)))
        CFI DPL0 load(1, XDATA, add(CFA_XSP16, literal(-2)))
        CFI ?BRET_EXT load(1, XDATA, add(CFA_XSP16, literal(-3)))
        CFI ?RET_HIGH load(1, XDATA, add(CFA_XSP16, literal(-4)))
        CFI ?RET_LOW load(1, XDATA, add(CFA_XSP16, literal(-5)))
        CFI R7 load(1, XDATA, add(CFA_XSP16, literal(-6)))
        CFI V5 load(1, XDATA, add(CFA_XSP16, literal(-7)))
        CFI V4 load(1, XDATA, add(CFA_XSP16, literal(-8)))
        CFI V3 load(1, XDATA, add(CFA_XSP16, literal(-9)))
        CFI V2 load(1, XDATA, add(CFA_XSP16, literal(-10)))
        CFI V1 load(1, XDATA, add(CFA_XSP16, literal(-11)))
        CFI V0 load(1, XDATA, add(CFA_XSP16, literal(-12)))
        CFI VB load(1, XDATA, add(CFA_XSP16, literal(-13)))
        CFI R6 load(1, XDATA, add(CFA_XSP16, literal(-14)))
        CFI CFA_SP SP+0
        CFI CFA_XSP16 add(XSP16, 14)
        ; Saved register size: 14
        ; Auto size: 11
        MOV     A,#-0xb
        LCALL   ?ALLOC_XSTACK8
        CFI CFA_XSP16 add(XSP16, 25)
        MOV     DPL,?XSP + 0
        MOV     DPH,?XSP + 1
        MOV     A,R2
        MOVX    @DPTR,A
        INC     DPTR
        MOV     A,R3
        MOVX    @DPTR,A
        MOV     A,R1
        MOV     R7,A
        MOV     ?V0 + 2,R4
        MOV     ?V0 + 3,R5
//  218   zAddrType_t destination;
//  219   uint8 ret = ZB_ALREADY_IN_PROGRESS;
        MOV     R6,#0x20
//  220   
//  221   if ( create )
        JNZ     $+5
        LJMP    ??zb_BindDevice_0 & 0xFFFF
//  222   {
//  223     if (sapi_bindInProgress == 0xffff)
        MOV     DPTR,#sapi_bindInProgress
        MOVX    A,@DPTR
        XRL     A,#0xff
        JNZ     ??zb_BindDevice_1
        INC     DPTR
        MOVX    A,@DPTR
        XRL     A,#0xff
??zb_BindDevice_1:
        JZ      $+5
        LJMP    ??zb_BindDevice_2 & 0xFFFF
//  224     {
//  225       if ( pDestination )
        MOV     A,?V0 + 2
        ORL     A,?V0 + 3
        JZ      ??zb_BindDevice_3
//  226       {
//  227         destination.addrMode = Addr64Bit;
        MOV     A,#0xa
        LCALL   ?XSTACK_DISP0_8
        MOV     A,#0x3
        MOVX    @DPTR,A
//  228         osal_cpyExtAddr( destination.addr.extAddr, pDestination );
        ; Setup parameters for call to function sAddrExtCpy
        MOV     R4,?V0 + 2
        MOV     R5,?V0 + 3
        MOV     A,#0x2
        LCALL   ?XSTACK_DISP0_8
        MOV     R2,DPL
        MOV     R3,DPH
        LCALL   ??sAddrExtCpy?relay
//  229         
//  230         ret = APSME_BindRequest( sapi_epDesc.endPoint, commandId,
//  231                                 &destination, sapi_epDesc.endPoint );
        ; Setup parameters for call to function APSME_BindRequest
        MOV     DPTR,#sapi_epDesc
        MOVX    A,@DPTR
        MOV     ?V0 + 0,A
        MOV     R0,#?V0 + 0
        LCALL   ?PUSH_XSTACK_I_ONE
        CFI CFA_XSP16 add(XSP16, 26)
        MOV     A,#0x3
        LCALL   ?XSTACK_DISP0_8
        MOV     R4,DPL
        MOV     R5,DPH
        MOV     A,#0x1
        LCALL   ?XSTACK_DISP0_8
        MOVX    A,@DPTR
        MOV     R2,A
        INC     DPTR
        MOVX    A,@DPTR
        MOV     R3,A
        MOV     DPTR,#sapi_epDesc
        MOVX    A,@DPTR
        MOV     R1,A
        LCALL   ??APSME_BindRequest?relay
        MOV     A,#0x1
        LCALL   ?DEALLOC_XSTACK8
        CFI CFA_XSP16 add(XSP16, 25)
        MOV     A,R1
        MOV     R6,A
//  232         
//  233         if ( ret == ZSuccess )
        MOV     A,R6
        JZ      $+5
        LJMP    ??zb_BindDevice_2 & 0xFFFF
//  234         {
//  235           // Find nwk addr
//  236           ZDP_NwkAddrReq(pDestination, ZDP_ADDR_REQTYPE_SINGLE, 0, 0 );
        ; Setup parameters for call to function ZDP_NwkAddrReq
        MOV     R5,#0x0
        MOV     R4,#0x0
        MOV     R1,#0x0
        MOV     R2,?V0 + 2
        MOV     R3,?V0 + 3
        LCALL   ??ZDP_NwkAddrReq?relay
        MOV     A,R1
//  237           osal_start_timerEx( ZDAppTaskID, ZDO_NWK_UPDATE_NV, 250 );
        ; Setup parameters for call to function osal_start_timerEx
        MOV     R4,#-0x6
        MOV     R5,#0x0
        MOV     R2,#0x0
        MOV     R3,#0x2
        MOV     DPTR,#ZDAppTaskID
        MOVX    A,@DPTR
        MOV     R1,A
        LCALL   ??osal_start_timerEx?relay
        MOV     A,R1
        LJMP    ??zb_BindDevice_2 & 0xFFFF
//  238         }
//  239       }
//  240       else
//  241       {
//  242         ret = ZB_INVALID_PARAMETER;
??zb_BindDevice_3:
        MOV     R6,#0x2
//  243         destination.addrMode = Addr16Bit;
        MOV     A,#0xa
        LCALL   ?XSTACK_DISP0_8
        MOV     A,#0x2
        MOVX    @DPTR,A
//  244         destination.addr.shortAddr = NWK_BROADCAST_SHORTADDR;
        MOV     A,#0x2
        LCALL   ?XSTACK_DISP0_8
        MOV     A,#-0x1
        MOVX    @DPTR,A
        INC     DPTR
        MOV     A,#-0x1
        MOVX    @DPTR,A
//  245         if ( ZDO_AnyClusterMatches( 1, &commandId, sapi_epDesc.simpleDesc->AppNumOutClusters,
//  246                                    sapi_epDesc.simpleDesc->pAppOutClusterList ) )
        ; Setup parameters for call to function ZDO_AnyClusterMatches
        MOV     DPTR,#sapi_epDesc + 3
        MOVX    A,@DPTR
        MOV     R0,A
        INC     DPTR
        MOVX    A,@DPTR
        MOV     DPH,A
        MOV     DPL,R0
        INC     DPTR
        INC     DPTR
        INC     DPTR
        INC     DPTR
        INC     DPTR
        INC     DPTR
        INC     DPTR
        INC     DPTR
        INC     DPTR
        INC     DPTR
        LCALL   ?PUSH_XSTACK8_X_TWO
        CFI CFA_XSP16 add(XSP16, 27)
        MOV     DPTR,#sapi_epDesc + 3
        MOVX    A,@DPTR
        MOV     R0,A
        INC     DPTR
        MOVX    A,@DPTR
        MOV     DPH,A
        MOV     DPL,R0
        INC     DPTR
        INC     DPTR
        INC     DPTR
        INC     DPTR
        INC     DPTR
        INC     DPTR
        INC     DPTR
        INC     DPTR
        INC     DPTR
        MOVX    A,@DPTR
        MOV     R4,A
        MOV     A,#0x2
        LCALL   ?XSTACK_DISP0_8
        MOV     R2,DPL
        MOV     R3,DPH
        MOV     R1,#0x1
        LCALL   ??ZDO_AnyClusterMatches?relay
        MOV     A,#0x2
        LCALL   ?DEALLOC_XSTACK8
        CFI CFA_XSP16 add(XSP16, 25)
        MOV     A,R1
        JZ      ??zb_BindDevice_4
//  247         {
//  248           // Try to match with a device in the allow bind mode
//  249           ret = ZDP_MatchDescReq( &destination, NWK_BROADCAST_SHORTADDR,
//  250                                  sapi_epDesc.simpleDesc->AppProfId, 1, &commandId, 0, (cId_t *)NULL, 0 );
        ; Setup parameters for call to function ZDP_MatchDescReq
        MOV     ?V0 + 0,#0x0
        MOV     R0,#?V0 + 0
        LCALL   ?PUSH_XSTACK_I_ONE
        CFI CFA_XSP16 add(XSP16, 26)
        CLR     A
        MOV     ?V0 + 0,A
        MOV     ?V0 + 1,A
        MOV     R0,#?V0 + 0
        LCALL   ?PUSH_XSTACK_I_TWO
        CFI CFA_XSP16 add(XSP16, 28)
        MOV     ?V0 + 0,#0x0
        MOV     R0,#?V0 + 0
        LCALL   ?PUSH_XSTACK_I_ONE
        CFI CFA_XSP16 add(XSP16, 29)
        MOV     A,#0x4
        LCALL   ?XSTACK_DISP0_8
        MOV     ?V0 + 0,DPL
        MOV     ?V0 + 1,DPH
        MOV     R0,#?V0 + 0
        LCALL   ?PUSH_XSTACK_I_TWO
        CFI CFA_XSP16 add(XSP16, 31)
        MOV     DPTR,#sapi_epDesc + 3
        MOVX    A,@DPTR
        MOV     R0,A
        INC     DPTR
        MOVX    A,@DPTR
        MOV     DPH,A
        MOV     DPL,R0
        INC     DPTR
        LCALL   ?PUSH_XSTACK8_X_TWO
        CFI CFA_XSP16 add(XSP16, 33)
        MOV     R1,#0x1
        MOV     R4,#-0x1
        MOV     R5,#-0x1
        MOV     A,#0xa
        LCALL   ?XSTACK_DISP0_8
        MOV     R2,DPL
        MOV     R3,DPH
        LCALL   ??ZDP_MatchDescReq?relay
        MOV     A,#0x8
        LCALL   ?DEALLOC_XSTACK8
        CFI CFA_XSP16 add(XSP16, 25)
        MOV     A,R1
        MOV     R6,A
        LJMP    ??zb_BindDevice_5 & 0xFFFF
//  251         }
//  252         else if ( ZDO_AnyClusterMatches( 1, &commandId, sapi_epDesc.simpleDesc->AppNumInClusters,
//  253                                         sapi_epDesc.simpleDesc->pAppInClusterList ) )
??zb_BindDevice_4:
        ; Setup parameters for call to function ZDO_AnyClusterMatches
        MOV     DPTR,#sapi_epDesc + 3
        MOVX    A,@DPTR
        MOV     R0,A
        INC     DPTR
        MOVX    A,@DPTR
        MOV     DPH,A
        MOV     DPL,R0
        INC     DPTR
        INC     DPTR
        INC     DPTR
        INC     DPTR
        INC     DPTR
        INC     DPTR
        INC     DPTR
        LCALL   ?PUSH_XSTACK8_X_TWO
        CFI CFA_XSP16 add(XSP16, 27)
        MOV     DPTR,#sapi_epDesc + 3
        MOVX    A,@DPTR
        MOV     R0,A
        INC     DPTR
        MOVX    A,@DPTR
        MOV     DPH,A
        MOV     DPL,R0
        INC     DPTR
        INC     DPTR
        INC     DPTR
        INC     DPTR
        INC     DPTR
        INC     DPTR
        MOVX    A,@DPTR
        MOV     R4,A
        MOV     A,#0x2
        LCALL   ?XSTACK_DISP0_8
        MOV     R2,DPL
        MOV     R3,DPH
        MOV     R1,#0x1
        LCALL   ??ZDO_AnyClusterMatches?relay
        MOV     A,#0x2
        LCALL   ?DEALLOC_XSTACK8
        CFI CFA_XSP16 add(XSP16, 25)
        MOV     A,R1
        JZ      ??zb_BindDevice_5
//  254         {
//  255           ret = ZDP_MatchDescReq( &destination, NWK_BROADCAST_SHORTADDR,
//  256                                  sapi_epDesc.simpleDesc->AppProfId, 0, (cId_t *)NULL, 1, &commandId, 0 );
        ; Setup parameters for call to function ZDP_MatchDescReq
        MOV     ?V0 + 0,#0x0
        MOV     R0,#?V0 + 0
        LCALL   ?PUSH_XSTACK_I_ONE
        CFI CFA_XSP16 add(XSP16, 26)
        MOV     A,#0x1
        LCALL   ?XSTACK_DISP0_8
        MOV     ?V0 + 0,DPL
        MOV     ?V0 + 1,DPH
        MOV     R0,#?V0 + 0
        LCALL   ?PUSH_XSTACK_I_TWO
        CFI CFA_XSP16 add(XSP16, 28)
        MOV     ?V0 + 0,#0x1
        MOV     R0,#?V0 + 0
        LCALL   ?PUSH_XSTACK_I_ONE
        CFI CFA_XSP16 add(XSP16, 29)
        CLR     A
        MOV     ?V0 + 0,A
        MOV     ?V0 + 1,A
        MOV     R0,#?V0 + 0
        LCALL   ?PUSH_XSTACK_I_TWO
        CFI CFA_XSP16 add(XSP16, 31)
        MOV     DPTR,#sapi_epDesc + 3
        MOVX    A,@DPTR
        MOV     R0,A
        INC     DPTR
        MOVX    A,@DPTR
        MOV     DPH,A
        MOV     DPL,R0
        INC     DPTR
        LCALL   ?PUSH_XSTACK8_X_TWO
        CFI CFA_XSP16 add(XSP16, 33)
        MOV     R1,#0x0
        MOV     R4,#-0x1
        MOV     R5,#-0x1
        MOV     A,#0xa
        LCALL   ?XSTACK_DISP0_8
        MOV     R2,DPL
        MOV     R3,DPH
        LCALL   ??ZDP_MatchDescReq?relay
        MOV     A,#0x8
        LCALL   ?DEALLOC_XSTACK8
        CFI CFA_XSP16 add(XSP16, 25)
        MOV     A,R1
        MOV     R6,A
//  257         }
//  258         
//  259         if ( ret == ZB_SUCCESS )
??zb_BindDevice_5:
        MOV     A,R6
        JNZ     ??zb_BindDevice_2
//  260         {
//  261           // Set a timer to make sure bind completes
//  262 #if ( ZG_BUILD_RTR_TYPE )
//  263           osal_start_timerEx(sapi_TaskID, ZB_BIND_TIMER, AIB_MaxBindingTime);
        ; Setup parameters for call to function osal_start_timerEx
        MOV     DPTR,#AIB_MaxBindingTime
        MOVX    A,@DPTR
        MOV     R4,A
        INC     DPTR
        MOVX    A,@DPTR
        MOV     R5,A
        MOV     R2,#0x0
        MOV     R3,#0x20
        MOV     DPTR,#sapi_TaskID
        MOVX    A,@DPTR
        MOV     R1,A
        LCALL   ??osal_start_timerEx?relay
        MOV     A,R1
//  264 #else
//  265           // AIB_MaxBindingTime is not defined for an End Device
//  266           osal_start_timerEx(sapi_TaskID, ZB_BIND_TIMER, zgApsDefaultMaxBindingTime);
//  267 #endif
//  268           sapi_bindInProgress = commandId;
        MOV     DPL,?XSP + 0
        MOV     DPH,?XSP + 1
        MOVX    A,@DPTR
        MOV     R0,A
        INC     DPTR
        MOVX    A,@DPTR
        MOV     R1,A
        MOV     DPTR,#sapi_bindInProgress
        MOV     A,R0
        MOVX    @DPTR,A
        INC     DPTR
        MOV     A,R1
        MOVX    @DPTR,A
//  269           return; // dont send cback event
        SJMP    ??zb_BindDevice_6
//  270         }
//  271       }
//  272     }
//  273     
//  274     SAPI_SendCback( SAPICB_BIND_CNF, ret, commandId );
??zb_BindDevice_2:
        ; Setup parameters for call to function SAPI_SendCback
        MOV     DPL,?XSP + 0
        MOV     DPH,?XSP + 1
        MOVX    A,@DPTR
        MOV     R4,A
        INC     DPTR
        MOVX    A,@DPTR
        MOV     R5,A
        MOV     A,R6
        MOV     R2,A
        MOV     R1,#-0x1f
        LCALL   ??SAPI_SendCback?relay
        SJMP    ??zb_BindDevice_6
//  275   }
//  276   else
//  277   {
//  278     // Remove local bindings for the commandId
//  279     BindingEntry_t *pBind;
//  280     
//  281     // Loop through bindings an remove any that match the cluster
//  282     while ( pBind = bindFind( sapi_epDesc.simpleDesc->EndPoint, commandId, 0 ) )
??zb_BindDevice_0:
        ; Setup parameters for call to function bindFind
        MOV     R4,#0x0
        MOV     DPL,?XSP + 0
        MOV     DPH,?XSP + 1
        MOVX    A,@DPTR
        MOV     R2,A
        INC     DPTR
        MOVX    A,@DPTR
        MOV     R3,A
        MOV     DPTR,#sapi_epDesc + 3
        MOVX    A,@DPTR
        MOV     R0,A
        INC     DPTR
        MOVX    A,@DPTR
        MOV     DPH,A
        MOV     DPL,R0
        MOVX    A,@DPTR
        MOV     R1,A
        LCALL   ??bindFind?relay
        MOV     ?V0 + 4,R2
        MOV     ?V0 + 5,R3
        MOV     R0,?V0 + 4
        MOV     R1,?V0 + 5
        MOV     ?V0 + 0,R0
        MOV     ?V0 + 1,R1
        MOV     A,R0
        ORL     A,R1
        JZ      ??zb_BindDevice_7
//  283     {
//  284       bindRemoveEntry(pBind);
        ; Setup parameters for call to function bindRemoveEntry
        MOV     R2,?V0 + 0
        MOV     R3,?V0 + 1
        LCALL   ??bindRemoveEntry?relay
        MOV     A,R1
        SJMP    ??zb_BindDevice_0
//  285     }
//  286     osal_start_timerEx( ZDAppTaskID, ZDO_NWK_UPDATE_NV, 250 );
??zb_BindDevice_7:
        ; Setup parameters for call to function osal_start_timerEx
        MOV     R4,#-0x6
        MOV     R5,#0x0
        MOV     R2,#0x0
        MOV     R3,#0x2
        MOV     DPTR,#ZDAppTaskID
        MOVX    A,@DPTR
        MOV     R1,A
        LCALL   ??osal_start_timerEx?relay
        MOV     A,R1
//  287   }
//  288   return;
??zb_BindDevice_6:
        MOV     A,#0xb
        LCALL   ?DEALLOC_XSTACK8
        CFI CFA_XSP16 add(XSP16, 14)
        MOV     R7,#0x6
        LJMP    ?BANKED_LEAVE_XDATA
        CFI EndBlock cfiBlock2
//  289 }
//  290 /******************************************************************************
//  291 * @fn          zb_PermitJoiningRequest
//  292 *
//  293 * @brief       The zb_PermitJoiningRequest function is used to control the
//  294 *              joining permissions and thus allow or disallow new devices from
//  295 *              joining the network.
//  296 *
//  297 * @param       destination - The destination parameter indicates the address
//  298 *                            of the device for which the joining permissions
//  299 *                            should be set. This is usually the local device
//  300 *                            address or the special broadcast address that denotes
//  301 *                            all routers and coordinator ( 0xFFFC ). This way
//  302 *                            the joining permissions of a single device or the
//  303 *                            whole network can be controlled.
//  304 *              timeout -  Indicates the amount of time in seconds for which
//  305 *                         the joining permissions should be turned on.
//  306 *                         If timeout is set to 0x00, the device will turn off the
//  307 *                         joining permissions indefinitely. If it is set to 0xFF,
//  308 *                         the joining permissions will be turned on indefinitely.
//  309 *
//  310 *
//  311 * @return      ZB_SUCCESS or a failure code
//  312 *
//  313 */
//  314 

        RSEG BANKED_CODE:CODE:NOROOT(0)
//  315 uint8 zb_PermitJoiningRequest ( uint16 destination, uint8 timeout )
zb_PermitJoiningRequest:
        CFI Block cfiBlock3 Using cfiCommon0
        CFI Function zb_PermitJoiningRequest
        CODE
//  316 {
        ; Saved register size: 0
        ; Auto size: 0
        MOV     A,R1
        MOV     R0,A
//  317 #if defined( ZDO_MGMT_PERMIT_JOIN_REQUEST )
//  318   zAddrType_t dstAddr;
//  319   
//  320   dstAddr.addrMode = Addr16Bit;
//  321   dstAddr.addr.shortAddr = destination;
//  322   
//  323   return( (uint8) ZDP_MgmtPermitJoinReq( &dstAddr, timeout, 0, 0 ) );
//  324 #else
//  325   (void)destination;
//  326   (void)timeout;
//  327   return ZUnsupportedMode;
        MOV     R1,#0x12
        LJMP    ?BRET
        CFI EndBlock cfiBlock3
//  328 #endif
//  329 }
//  330 /******************************************************************************
//  331 * @fn          zb_AllowBind
//  332 *
//  333 * @brief       The zb_AllowBind function puts the device into the
//  334 *              Allow Binding Mode for a given period of time.  A peer device
//  335 *              can establish a binding to a device in the Allow Binding Mode
//  336 *              by calling zb_BindDevice with a destination address of NULL
//  337 *
//  338 * @param       timeout - The number of seconds to remain in the allow binding
//  339 *                        mode.  Valid values range from 1 through 65.
//  340 *                        If 0, the Allow Bind mode will be set false without TO
//  341 *                        If greater than 64, the Allow Bind mode will be true
//  342 *
//  343 * @return      ZB_SUCCESS if the device entered the allow bind mode, else
//  344 *              an error code.
//  345 */

        RSEG BANKED_CODE:CODE:NOROOT(0)
//  346 void zb_AllowBind ( uint8 timeout )
zb_AllowBind:
        CFI Block cfiBlock4 Using cfiCommon0
        CFI Function zb_AllowBind
        CODE
//  347 {
        FUNCALL zb_AllowBind, osal_stop_timerEx
        LOCFRAME ISTACK, 0, STACK
        LOCFRAME PSTACK, 0, STACK
        LOCFRAME XSTACK, 9, STACK
        LOCFRAME IOVERLAY, 0, STATIC
        LOCFRAME DOVERLAY, 0, STATIC
        ARGFRAME ISTACK, 0, STACK
        ARGFRAME PSTACK, 0, STACK
        ARGFRAME XSTACK, 9, STACK
        ARGFRAME IOVERLAY, 0, STATIC
        ARGFRAME DOVERLAY, 0, STATIC
        FUNCALL zb_AllowBind, afSetMatch
        LOCFRAME ISTACK, 0, STACK
        LOCFRAME PSTACK, 0, STACK
        LOCFRAME XSTACK, 9, STACK
        LOCFRAME IOVERLAY, 0, STATIC
        LOCFRAME DOVERLAY, 0, STATIC
        ARGFRAME ISTACK, 0, STACK
        ARGFRAME PSTACK, 0, STACK
        ARGFRAME XSTACK, 9, STACK
        ARGFRAME IOVERLAY, 0, STATIC
        ARGFRAME DOVERLAY, 0, STATIC
        FUNCALL zb_AllowBind, afSetMatch
        LOCFRAME ISTACK, 0, STACK
        LOCFRAME PSTACK, 0, STACK
        LOCFRAME XSTACK, 9, STACK
        LOCFRAME IOVERLAY, 0, STATIC
        LOCFRAME DOVERLAY, 0, STATIC
        ARGFRAME ISTACK, 0, STACK
        ARGFRAME PSTACK, 0, STACK
        ARGFRAME XSTACK, 9, STACK
        ARGFRAME IOVERLAY, 0, STATIC
        ARGFRAME DOVERLAY, 0, STATIC
        FUNCALL zb_AllowBind, osal_start_timerEx
        LOCFRAME ISTACK, 0, STACK
        LOCFRAME PSTACK, 0, STACK
        LOCFRAME XSTACK, 9, STACK
        LOCFRAME IOVERLAY, 0, STATIC
        LOCFRAME DOVERLAY, 0, STATIC
        ARGFRAME ISTACK, 0, STACK
        ARGFRAME PSTACK, 0, STACK
        ARGFRAME XSTACK, 9, STACK
        ARGFRAME IOVERLAY, 0, STATIC
        ARGFRAME DOVERLAY, 0, STATIC
        MOV     A,#-0x9
        LCALL   ?BANKED_ENTER_XDATA
        CFI DPH0 load(1, XDATA, add(CFA_XSP16, literal(-1)))
        CFI DPL0 load(1, XDATA, add(CFA_XSP16, literal(-2)))
        CFI ?BRET_EXT load(1, XDATA, add(CFA_XSP16, literal(-3)))
        CFI ?RET_HIGH load(1, XDATA, add(CFA_XSP16, literal(-4)))
        CFI ?RET_LOW load(1, XDATA, add(CFA_XSP16, literal(-5)))
        CFI R7 load(1, XDATA, add(CFA_XSP16, literal(-6)))
        CFI V0 load(1, XDATA, add(CFA_XSP16, literal(-7)))
        CFI VB load(1, XDATA, add(CFA_XSP16, literal(-8)))
        CFI R6 load(1, XDATA, add(CFA_XSP16, literal(-9)))
        CFI CFA_SP SP+0
        CFI CFA_XSP16 add(XSP16, 9)
        ; Saved register size: 9
        ; Auto size: 0
        MOV     A,R1
        MOV     R6,A
//  348   
//  349   osal_stop_timerEx(sapi_TaskID, ZB_ALLOW_BIND_TIMER);
        ; Setup parameters for call to function osal_stop_timerEx
        MOV     R2,#0x0
        MOV     R3,#0x40
        MOV     DPTR,#sapi_TaskID
        MOVX    A,@DPTR
        MOV     R1,A
        LCALL   ??osal_stop_timerEx?relay
        MOV     A,R1
//  350   
//  351   if ( timeout == 0 )
        MOV     A,R6
        JNZ     ??zb_AllowBind_0
//  352   {
//  353     afSetMatch(sapi_epDesc.simpleDesc->EndPoint, FALSE);
        ; Setup parameters for call to function afSetMatch
        MOV     R2,#0x0
        MOV     DPTR,#sapi_epDesc + 3
        MOVX    A,@DPTR
        MOV     R0,A
        INC     DPTR
        MOVX    A,@DPTR
        MOV     DPH,A
        MOV     DPL,R0
        MOVX    A,@DPTR
        MOV     R1,A
        LCALL   ??afSetMatch?relay
        MOV     A,R1
        SJMP    ??zb_AllowBind_1
//  354   }
//  355   else
//  356   {
//  357     afSetMatch(sapi_epDesc.simpleDesc->EndPoint, TRUE);
??zb_AllowBind_0:
        ; Setup parameters for call to function afSetMatch
        MOV     R2,#0x1
        MOV     DPTR,#sapi_epDesc + 3
        MOVX    A,@DPTR
        MOV     R0,A
        INC     DPTR
        MOVX    A,@DPTR
        MOV     DPH,A
        MOV     DPL,R0
        MOVX    A,@DPTR
        MOV     R1,A
        LCALL   ??afSetMatch?relay
        MOV     A,R1
//  358     if ( timeout != 0xFF )
        MOV     A,#-0x1
        XRL     A,R6
        JZ      ??zb_AllowBind_1
//  359     {
//  360       if ( timeout > 64 )
        MOV     A,R6
        CLR     C
        SUBB    A,#0x41
        JC      ??zb_AllowBind_2
//  361       {
//  362         timeout = 64;
        MOV     R6,#0x40
//  363       }
//  364       osal_start_timerEx(sapi_TaskID, ZB_ALLOW_BIND_TIMER, timeout*1000);
??zb_AllowBind_2:
        ; Setup parameters for call to function osal_start_timerEx
        MOV     A,R6
        MOV     R4,A
        MOV     R5,#0x0
        MOV     A,R4
        MOV     B,#-0x18
        MUL     AB
        XCH     A,R4
        MOV     R0,B
        MOV     B,#0x3
        MUL     AB
        ADD     A,R0
        MOV     R0,A
        MOV     B,#-0x18
        MOV     A,R5
        MUL     AB
        ADD     A,R0
        MOV     R5,A
        MOV     R2,#0x0
        MOV     R3,#0x40
        MOV     DPTR,#sapi_TaskID
        MOVX    A,@DPTR
        MOV     R1,A
        LCALL   ??osal_start_timerEx?relay
        MOV     A,R1
//  365     }
//  366   }
//  367   return;
??zb_AllowBind_1:
        MOV     R7,#0x1
        LJMP    ?BANKED_LEAVE_XDATA
        CFI EndBlock cfiBlock4
//  368 }
//  369 /******************************************************************************
//  370 * @fn          zb_SendDataRequest
//  371 *
//  372 * @brief       The zb_SendDataRequest function initiates transmission of data
//  373 *              to a peer device
//  374 *
//  375 * @param       destination - The destination of the data.  The destination can
//  376 *                            be one of the following:
//  377 *                            - 16-Bit short address of device [0-0xfffD]
//  378 *                            - ZB_BROADCAST_ADDR sends the data to all devices
//  379 *                              in the network.
//  380 *                            - ZB_BINDING_ADDR sends the data to a previously
//  381 *                              bound device.
//  382 *
//  383 *              commandId - The command ID to send with the message.  If the
//  384 *                          ZB_BINDING_ADDR destination is used, this parameter
//  385 *                          also indicates the binding to use.
//  386 *
//  387 *              len - The size of the pData buffer in bytes
//  388 *              handle - A handle used to identify the send data request.
//  389 *              txOptions - TRUE if requesting acknowledgement from the destination.
//  390 *              radius - The max number of hops the packet can travel through
//  391 *                       before it is dropped.
//  392 *
//  393 * @return      none
//  394 */

        RSEG BANKED_CODE:CODE:NOROOT(0)
//  395 void zb_SendDataRequest ( uint16 destination, uint16 commandId, uint8 len,
zb_SendDataRequest:
        CFI Block cfiBlock5 Using cfiCommon0
        CFI Function zb_SendDataRequest
        CODE
//  396                          uint8 *pData, uint8 handle, uint8 txOptions, uint8 radius )
//  397 {
        FUNCALL zb_SendDataRequest, NLME_IsAddressBroadcast
        LOCFRAME ISTACK, 0, STACK
        LOCFRAME PSTACK, 0, STACK
        LOCFRAME XSTACK, 30, STACK
        LOCFRAME IOVERLAY, 0, STATIC
        LOCFRAME DOVERLAY, 0, STATIC
        ARGFRAME ISTACK, 0, STACK
        ARGFRAME PSTACK, 0, STACK
        ARGFRAME XSTACK, 30, STACK
        ARGFRAME IOVERLAY, 0, STATIC
        ARGFRAME DOVERLAY, 0, STATIC
        FUNCALL zb_SendDataRequest, AF_DataRequest
        LOCFRAME ISTACK, 0, STACK
        LOCFRAME PSTACK, 0, STACK
        LOCFRAME XSTACK, 39, STACK
        LOCFRAME IOVERLAY, 0, STATIC
        LOCFRAME DOVERLAY, 0, STATIC
        ARGFRAME ISTACK, 0, STACK
        ARGFRAME PSTACK, 0, STACK
        ARGFRAME XSTACK, 39, STACK
        ARGFRAME IOVERLAY, 0, STATIC
        ARGFRAME DOVERLAY, 0, STATIC
        FUNCALL zb_SendDataRequest, SAPI_SendCback
        LOCFRAME ISTACK, 0, STACK
        LOCFRAME PSTACK, 0, STACK
        LOCFRAME XSTACK, 30, STACK
        LOCFRAME IOVERLAY, 0, STATIC
        LOCFRAME DOVERLAY, 0, STATIC
        ARGFRAME ISTACK, 0, STACK
        ARGFRAME PSTACK, 0, STACK
        ARGFRAME XSTACK, 30, STACK
        ARGFRAME IOVERLAY, 0, STATIC
        ARGFRAME DOVERLAY, 0, STATIC
        MOV     A,#-0x12
        LCALL   ?BANKED_ENTER_XDATA
        CFI DPH0 load(1, XDATA, add(CFA_XSP16, literal(-1)))
        CFI DPL0 load(1, XDATA, add(CFA_XSP16, literal(-2)))
        CFI ?BRET_EXT load(1, XDATA, add(CFA_XSP16, literal(-3)))
        CFI ?RET_HIGH load(1, XDATA, add(CFA_XSP16, literal(-4)))
        CFI ?RET_LOW load(1, XDATA, add(CFA_XSP16, literal(-5)))
        CFI R7 load(1, XDATA, add(CFA_XSP16, literal(-6)))
        CFI V9 load(1, XDATA, add(CFA_XSP16, literal(-7)))
        CFI V8 load(1, XDATA, add(CFA_XSP16, literal(-8)))
        CFI V7 load(1, XDATA, add(CFA_XSP16, literal(-9)))
        CFI V6 load(1, XDATA, add(CFA_XSP16, literal(-10)))
        CFI V5 load(1, XDATA, add(CFA_XSP16, literal(-11)))
        CFI V4 load(1, XDATA, add(CFA_XSP16, literal(-12)))
        CFI V3 load(1, XDATA, add(CFA_XSP16, literal(-13)))
        CFI V2 load(1, XDATA, add(CFA_XSP16, literal(-14)))
        CFI V1 load(1, XDATA, add(CFA_XSP16, literal(-15)))
        CFI V0 load(1, XDATA, add(CFA_XSP16, literal(-16)))
        CFI VB load(1, XDATA, add(CFA_XSP16, literal(-17)))
        CFI R6 load(1, XDATA, add(CFA_XSP16, literal(-18)))
        CFI CFA_SP SP+0
        CFI CFA_XSP16 add(XSP16, 18)
        ; Saved register size: 18
        ; Auto size: 12
        MOV     A,#-0xc
        LCALL   ?ALLOC_XSTACK8
        CFI CFA_XSP16 add(XSP16, 30)
        MOV     A,R2
        MOV     R6,A
        MOV     A,R3
        MOV     R7,A
        MOV     ?V0 + 8,R4
        MOV     ?V0 + 9,R5
        MOV     ?V0 + 2,R1
        MOV     A,#0x1e
        LCALL   ?XSTACK_DISP0_8
        MOVX    A,@DPTR
        MOV     ?V0 + 6,A
        INC     DPTR
        MOVX    A,@DPTR
        MOV     ?V0 + 7,A
        MOV     A,#0x21
        LCALL   ?XSTACK_DISP0_8
        MOVX    A,@DPTR
        MOV     ?V0 + 0,A
        MOV     A,#0x22
        LCALL   ?XSTACK_DISP0_8
        MOVX    A,@DPTR
        MOV     ?V0 + 3,A
//  398   afStatus_t status;
//  399   afAddrType_t dstAddr;
//  400   
//  401   txOptions |= AF_DISCV_ROUTE;
        SETB    C
        MOV     A,?V0 + 0
        MOV     0xE0 /* A   */.5,C
        MOV     ?V0 + 0,A
//  402   
//  403   // Set the destination address
//  404   if (destination == ZB_BINDING_ADDR)
        MOV     A,#-0x2
        XRL     A,R6
        JNZ     ??zb_SendDataRequest_0
        MOV     A,#-0x1
        XRL     A,R7
??zb_SendDataRequest_0:
        JNZ     ??zb_SendDataRequest_1
//  405   {
//  406     // Binding
//  407     dstAddr.addrMode = afAddrNotPresent;
        MOV     A,#0x8
        LCALL   ?XSTACK_DISP0_8
        MOV     A,#0x0
        MOVX    @DPTR,A
        SJMP    ??zb_SendDataRequest_2
//  408   }
//  409   else
//  410   {
//  411     // Use short address
//  412     dstAddr.addr.shortAddr = destination;
??zb_SendDataRequest_1:
        MOV     DPL,?XSP + 0
        MOV     DPH,?XSP + 1
        MOV     A,R6
        MOVX    @DPTR,A
        INC     DPTR
        MOV     A,R7
        MOVX    @DPTR,A
//  413     dstAddr.addrMode = afAddr16Bit;
        MOV     A,#0x8
        LCALL   ?XSTACK_DISP0_8
        MOV     A,#0x2
        MOVX    @DPTR,A
//  414     
//  415     if ( ADDR_NOT_BCAST != NLME_IsAddressBroadcast( destination ) )
        ; Setup parameters for call to function NLME_IsAddressBroadcast
        MOV     A,R6
        MOV     R2,A
        MOV     A,R7
        MOV     R3,A
        LCALL   ??NLME_IsAddressBroadcast?relay
        MOV     A,R1
        JZ      ??zb_SendDataRequest_2
//  416     {
//  417       txOptions &= ~AF_ACK_REQUEST;
        CLR     C
        MOV     A,?V0 + 0
        MOV     0xE0 /* A   */.4,C
        MOV     ?V0 + 0,A
//  418     }
//  419   }
//  420   
//  421   dstAddr.panId = 0;                                    // Not an inter-pan message.
??zb_SendDataRequest_2:
        MOV     A,#0xa
        LCALL   ?XSTACK_DISP0_8
        MOV     A,#0x0
        MOVX    @DPTR,A
        INC     DPTR
        MOV     A,#0x0
        MOVX    @DPTR,A
//  422   dstAddr.endPoint = sapi_epDesc.simpleDesc->EndPoint;  // Set the endpoint.
        MOV     DPTR,#sapi_epDesc + 3
        MOVX    A,@DPTR
        MOV     R0,A
        INC     DPTR
        MOVX    A,@DPTR
        MOV     DPH,A
        MOV     DPL,R0
        MOVX    A,@DPTR
        PUSH    A
        CFI CFA_SP SP+-1
        MOV     A,#0x9
        LCALL   ?XSTACK_DISP0_8
        POP     A
        CFI CFA_SP SP+0
        MOVX    @DPTR,A
//  423   
//  424   // Send the message
//  425   status = AF_DataRequest(&dstAddr, &sapi_epDesc, commandId, len,
//  426                           pData, &handle, txOptions, radius);
        ; Setup parameters for call to function AF_DataRequest
        MOV     A,?V0 + 3
        MOV     ?V0 + 4,A
        MOV     R0,#?V0 + 4
        LCALL   ?PUSH_XSTACK_I_ONE
        CFI CFA_XSP16 add(XSP16, 31)
        MOV     A,#0x21
        LCALL   ?XSTACK_DISP0_8
        MOV     ?V0 + 4,DPL
        MOV     ?V0 + 5,DPH
        MOV     R0,#?V0 + 4
        LCALL   ?PUSH_XSTACK_I_TWO
        CFI CFA_XSP16 add(XSP16, 33)
        MOV     R0,#?V0 + 6
        LCALL   ?PUSH_XSTACK_I_TWO
        CFI CFA_XSP16 add(XSP16, 35)
        MOV     ?V0 + 4,?V0 + 2
        MOV     ?V0 + 5,#0x0
        MOV     R0,#?V0 + 4
        LCALL   ?PUSH_XSTACK_I_TWO
        CFI CFA_XSP16 add(XSP16, 37)
        MOV     R0,#?V0 + 8
        LCALL   ?PUSH_XSTACK_I_TWO
        CFI CFA_XSP16 add(XSP16, 39)
        MOV     R1,?V0 + 0
        MOV     R4,#sapi_epDesc & 0xff
        MOV     R5,#(sapi_epDesc >> 8) & 0xff
        MOV     A,#0x9
        LCALL   ?XSTACK_DISP0_8
        MOV     R2,DPL
        MOV     R3,DPH
        LCALL   ??AF_DataRequest?relay
        MOV     A,#0x9
        LCALL   ?DEALLOC_XSTACK8
        CFI CFA_XSP16 add(XSP16, 30)
        MOV     A,R1
        MOV     ?V0 + 1,A
//  427   
//  428   if (status != afStatus_SUCCESS)
        MOV     A,?V0 + 1
        JZ      ??zb_SendDataRequest_3
//  429   {
//  430     SAPI_SendCback( SAPICB_DATA_CNF, status, handle );
        ; Setup parameters for call to function SAPI_SendCback
        MOV     A,#0x20
        LCALL   ?XSTACK_DISP0_8
        MOVX    A,@DPTR
        MOV     R4,A
        MOV     R5,#0x0
        MOV     R2,?V0 + 1
        MOV     R1,#-0x20
        LCALL   ??SAPI_SendCback?relay
//  431   }
//  432 }
??zb_SendDataRequest_3:
        MOV     A,#0xc
        LCALL   ?DEALLOC_XSTACK8
        CFI CFA_XSP16 add(XSP16, 18)
        MOV     R7,#0xa
        LJMP    ?BANKED_LEAVE_XDATA
        CFI EndBlock cfiBlock5
//  433 
//  434 /******************************************************************************
//  435 * @fn          zb_ReadConfiguration
//  436 *
//  437 * @brief       The zb_ReadConfiguration function is used to get a
//  438 *              Configuration Protperty from Nonvolatile memory.
//  439 *
//  440 * @param       configId - The identifier for the configuration property
//  441 *              len - The size of the pValue buffer in bytes
//  442 *              pValue - A buffer to hold the configuration property
//  443 *
//  444 * @return      none
//  445 */

        RSEG BANKED_CODE:CODE:NOROOT(0)
//  446 uint8 zb_ReadConfiguration( uint8 configId, uint8 len, void *pValue )
zb_ReadConfiguration:
        CFI Block cfiBlock6 Using cfiCommon0
        CFI Function zb_ReadConfiguration
        CODE
//  447 {
        FUNCALL zb_ReadConfiguration, osal_nv_item_len
        LOCFRAME ISTACK, 0, STACK
        LOCFRAME PSTACK, 0, STACK
        LOCFRAME XSTACK, 13, STACK
        LOCFRAME IOVERLAY, 0, STATIC
        LOCFRAME DOVERLAY, 0, STATIC
        ARGFRAME ISTACK, 0, STACK
        ARGFRAME PSTACK, 0, STACK
        ARGFRAME XSTACK, 13, STACK
        ARGFRAME IOVERLAY, 0, STATIC
        ARGFRAME DOVERLAY, 0, STATIC
        FUNCALL zb_ReadConfiguration, osal_nv_read
        LOCFRAME ISTACK, 0, STACK
        LOCFRAME PSTACK, 0, STACK
        LOCFRAME XSTACK, 17, STACK
        LOCFRAME IOVERLAY, 0, STATIC
        LOCFRAME DOVERLAY, 0, STATIC
        ARGFRAME ISTACK, 0, STACK
        ARGFRAME PSTACK, 0, STACK
        ARGFRAME XSTACK, 17, STACK
        ARGFRAME IOVERLAY, 0, STATIC
        ARGFRAME DOVERLAY, 0, STATIC
        MOV     A,#-0xd
        LCALL   ?BANKED_ENTER_XDATA
        CFI DPH0 load(1, XDATA, add(CFA_XSP16, literal(-1)))
        CFI DPL0 load(1, XDATA, add(CFA_XSP16, literal(-2)))
        CFI ?BRET_EXT load(1, XDATA, add(CFA_XSP16, literal(-3)))
        CFI ?RET_HIGH load(1, XDATA, add(CFA_XSP16, literal(-4)))
        CFI ?RET_LOW load(1, XDATA, add(CFA_XSP16, literal(-5)))
        CFI R7 load(1, XDATA, add(CFA_XSP16, literal(-6)))
        CFI V4 load(1, XDATA, add(CFA_XSP16, literal(-7)))
        CFI V3 load(1, XDATA, add(CFA_XSP16, literal(-8)))
        CFI V2 load(1, XDATA, add(CFA_XSP16, literal(-9)))
        CFI V1 load(1, XDATA, add(CFA_XSP16, literal(-10)))
        CFI V0 load(1, XDATA, add(CFA_XSP16, literal(-11)))
        CFI VB load(1, XDATA, add(CFA_XSP16, literal(-12)))
        CFI R6 load(1, XDATA, add(CFA_XSP16, literal(-13)))
        CFI CFA_SP SP+0
        CFI CFA_XSP16 add(XSP16, 13)
        ; Saved register size: 13
        ; Auto size: 0
        MOV     ?V0 + 4,R1
        MOV     A,R2
        MOV     R6,A
        MOV     ?V0 + 2,R4
        MOV     ?V0 + 3,R5
//  448   uint8 size;
//  449   
//  450   size = (uint8)osal_nv_item_len( configId );
        ; Setup parameters for call to function osal_nv_item_len
        MOV     ?V0 + 0,?V0 + 4
        MOV     ?V0 + 1,#0x0
        MOV     R2,?V0 + 0
        MOV     R3,?V0 + 1
        LCALL   ??osal_nv_item_len?relay
        MOV     A,R2
        MOV     R7,A
//  451   if ( size > len )
        MOV     A,R6
        CLR     C
        SUBB    A,R7
        JNC     ??zb_ReadConfiguration_0
//  452   {
//  453     return ZFailure;
        MOV     R1,#0x1
        SJMP    ??zb_ReadConfiguration_1
//  454   }
//  455   else
//  456   {
//  457     return( osal_nv_read(configId, 0, size, pValue) );
??zb_ReadConfiguration_0:
        ; Setup parameters for call to function osal_nv_read
        MOV     R0,#?V0 + 2
        LCALL   ?PUSH_XSTACK_I_TWO
        CFI CFA_XSP16 add(XSP16, 15)
        MOV     ?V0 + 0,R7
        MOV     ?V0 + 1,#0x0
        MOV     R0,#?V0 + 0
        LCALL   ?PUSH_XSTACK_I_TWO
        CFI CFA_XSP16 add(XSP16, 17)
        MOV     R4,#0x0
        MOV     R5,#0x0
        MOV     ?V0 + 0,?V0 + 4
        MOV     ?V0 + 1,#0x0
        MOV     R2,?V0 + 0
        MOV     R3,?V0 + 1
        LCALL   ??osal_nv_read?relay
        MOV     A,#0x4
        LCALL   ?DEALLOC_XSTACK8
        CFI CFA_XSP16 add(XSP16, 13)
??zb_ReadConfiguration_1:
        MOV     R7,#0x5
        LJMP    ?BANKED_LEAVE_XDATA
        CFI EndBlock cfiBlock6
//  458   }
//  459 }
//  460 /******************************************************************************
//  461 * @fn          zb_WriteConfiguration
//  462 *
//  463 * @brief       The zb_WriteConfiguration function is used to write a
//  464 *              Configuration Property to nonvolatile memory.
//  465 *
//  466 * @param       configId - The identifier for the configuration property
//  467 *              len - The size of the pValue buffer in bytes
//  468 *              pValue - A buffer containing the new value of the
//  469 *                       configuration property
//  470 *
//  471 * @return      none
//  472 */

        RSEG BANKED_CODE:CODE:NOROOT(0)
//  473 uint8 zb_WriteConfiguration( uint8 configId, uint8 len, void *pValue )
zb_WriteConfiguration:
        CFI Block cfiBlock7 Using cfiCommon0
        CFI Function zb_WriteConfiguration
        CODE
//  474 {
        FUNCALL zb_WriteConfiguration, osal_nv_write
        LOCFRAME ISTACK, 0, STACK
        LOCFRAME PSTACK, 0, STACK
        LOCFRAME XSTACK, 16, STACK
        LOCFRAME IOVERLAY, 0, STATIC
        LOCFRAME DOVERLAY, 0, STATIC
        ARGFRAME ISTACK, 0, STACK
        ARGFRAME PSTACK, 0, STACK
        ARGFRAME XSTACK, 16, STACK
        ARGFRAME IOVERLAY, 0, STATIC
        ARGFRAME DOVERLAY, 0, STATIC
        MOV     A,#-0xc
        LCALL   ?BANKED_ENTER_XDATA
        CFI DPH0 load(1, XDATA, add(CFA_XSP16, literal(-1)))
        CFI DPL0 load(1, XDATA, add(CFA_XSP16, literal(-2)))
        CFI ?BRET_EXT load(1, XDATA, add(CFA_XSP16, literal(-3)))
        CFI ?RET_HIGH load(1, XDATA, add(CFA_XSP16, literal(-4)))
        CFI ?RET_LOW load(1, XDATA, add(CFA_XSP16, literal(-5)))
        CFI R7 load(1, XDATA, add(CFA_XSP16, literal(-6)))
        CFI V3 load(1, XDATA, add(CFA_XSP16, literal(-7)))
        CFI V2 load(1, XDATA, add(CFA_XSP16, literal(-8)))
        CFI V1 load(1, XDATA, add(CFA_XSP16, literal(-9)))
        CFI V0 load(1, XDATA, add(CFA_XSP16, literal(-10)))
        CFI VB load(1, XDATA, add(CFA_XSP16, literal(-11)))
        CFI R6 load(1, XDATA, add(CFA_XSP16, literal(-12)))
        CFI CFA_SP SP+0
        CFI CFA_XSP16 add(XSP16, 12)
        ; Saved register size: 12
        ; Auto size: 0
        MOV     A,R1
        MOV     R7,A
        MOV     A,R2
        MOV     R6,A
        MOV     ?V0 + 2,R4
        MOV     ?V0 + 3,R5
//  475   return( osal_nv_write(configId, 0, len, pValue) );
        ; Setup parameters for call to function osal_nv_write
        MOV     R0,#?V0 + 2
        LCALL   ?PUSH_XSTACK_I_TWO
        CFI CFA_XSP16 add(XSP16, 14)
        MOV     ?V0 + 0,R6
        MOV     ?V0 + 1,#0x0
        MOV     R0,#?V0 + 0
        LCALL   ?PUSH_XSTACK_I_TWO
        CFI CFA_XSP16 add(XSP16, 16)
        MOV     R4,#0x0
        MOV     R5,#0x0
        MOV     ?V0 + 0,R7
        MOV     ?V0 + 1,#0x0
        MOV     R2,?V0 + 0
        MOV     R3,?V0 + 1
        LCALL   ??osal_nv_write?relay
        MOV     A,#0x4
        LCALL   ?DEALLOC_XSTACK8
        CFI CFA_XSP16 add(XSP16, 12)
        MOV     R7,#0x4
        LJMP    ?BANKED_LEAVE_XDATA
        CFI EndBlock cfiBlock7
//  476 }
//  477 /******************************************************************************
//  478 * @fn          zb_GetDeviceInfo
//  479 *
//  480 * @brief       The zb_GetDeviceInfo function retrieves a Device Information
//  481 *              Property.
//  482 *
//  483 * @param       param - The identifier for the device information
//  484 *              pValue - A buffer to hold the device information
//  485 *
//  486 * @return      none
//  487 */

        RSEG BANKED_CODE:CODE:NOROOT(0)
//  488 void zb_GetDeviceInfo ( uint8 param, void *pValue )
zb_GetDeviceInfo:
        CFI Block cfiBlock8 Using cfiCommon0
        CFI Function zb_GetDeviceInfo
        CODE
//  489 {
        FUNCALL zb_GetDeviceInfo, osal_memcpy
        LOCFRAME ISTACK, 0, STACK
        LOCFRAME PSTACK, 0, STACK
        LOCFRAME XSTACK, 18, STACK
        LOCFRAME IOVERLAY, 0, STATIC
        LOCFRAME DOVERLAY, 0, STATIC
        ARGFRAME ISTACK, 0, STACK
        ARGFRAME PSTACK, 0, STACK
        ARGFRAME XSTACK, 18, STACK
        ARGFRAME IOVERLAY, 0, STATIC
        ARGFRAME DOVERLAY, 0, STATIC
        FUNCALL zb_GetDeviceInfo, osal_memcpy
        LOCFRAME ISTACK, 0, STACK
        LOCFRAME PSTACK, 0, STACK
        LOCFRAME XSTACK, 18, STACK
        LOCFRAME IOVERLAY, 0, STATIC
        LOCFRAME DOVERLAY, 0, STATIC
        ARGFRAME ISTACK, 0, STACK
        ARGFRAME PSTACK, 0, STACK
        ARGFRAME XSTACK, 18, STACK
        ARGFRAME IOVERLAY, 0, STATIC
        ARGFRAME DOVERLAY, 0, STATIC
        FUNCALL zb_GetDeviceInfo, osal_memcpy
        LOCFRAME ISTACK, 0, STACK
        LOCFRAME PSTACK, 0, STACK
        LOCFRAME XSTACK, 18, STACK
        LOCFRAME IOVERLAY, 0, STATIC
        LOCFRAME DOVERLAY, 0, STATIC
        ARGFRAME ISTACK, 0, STACK
        ARGFRAME PSTACK, 0, STACK
        ARGFRAME XSTACK, 18, STACK
        ARGFRAME IOVERLAY, 0, STATIC
        ARGFRAME DOVERLAY, 0, STATIC
        FUNCALL zb_GetDeviceInfo, osal_memcpy
        LOCFRAME ISTACK, 0, STACK
        LOCFRAME PSTACK, 0, STACK
        LOCFRAME XSTACK, 18, STACK
        LOCFRAME IOVERLAY, 0, STATIC
        LOCFRAME DOVERLAY, 0, STATIC
        ARGFRAME ISTACK, 0, STACK
        ARGFRAME PSTACK, 0, STACK
        ARGFRAME XSTACK, 18, STACK
        ARGFRAME IOVERLAY, 0, STATIC
        ARGFRAME DOVERLAY, 0, STATIC
        FUNCALL zb_GetDeviceInfo, osal_memcpy
        LOCFRAME ISTACK, 0, STACK
        LOCFRAME PSTACK, 0, STACK
        LOCFRAME XSTACK, 18, STACK
        LOCFRAME IOVERLAY, 0, STATIC
        LOCFRAME DOVERLAY, 0, STATIC
        ARGFRAME ISTACK, 0, STACK
        ARGFRAME PSTACK, 0, STACK
        ARGFRAME XSTACK, 18, STACK
        ARGFRAME IOVERLAY, 0, STATIC
        ARGFRAME DOVERLAY, 0, STATIC
        FUNCALL zb_GetDeviceInfo, osal_memcpy
        LOCFRAME ISTACK, 0, STACK
        LOCFRAME PSTACK, 0, STACK
        LOCFRAME XSTACK, 18, STACK
        LOCFRAME IOVERLAY, 0, STATIC
        LOCFRAME DOVERLAY, 0, STATIC
        ARGFRAME ISTACK, 0, STACK
        ARGFRAME PSTACK, 0, STACK
        ARGFRAME XSTACK, 18, STACK
        ARGFRAME IOVERLAY, 0, STATIC
        ARGFRAME DOVERLAY, 0, STATIC
        FUNCALL zb_GetDeviceInfo, osal_memcpy
        LOCFRAME ISTACK, 0, STACK
        LOCFRAME PSTACK, 0, STACK
        LOCFRAME XSTACK, 18, STACK
        LOCFRAME IOVERLAY, 0, STATIC
        LOCFRAME DOVERLAY, 0, STATIC
        ARGFRAME ISTACK, 0, STACK
        ARGFRAME PSTACK, 0, STACK
        ARGFRAME XSTACK, 18, STACK
        ARGFRAME IOVERLAY, 0, STATIC
        ARGFRAME DOVERLAY, 0, STATIC
        FUNCALL zb_GetDeviceInfo, osal_memcpy
        LOCFRAME ISTACK, 0, STACK
        LOCFRAME PSTACK, 0, STACK
        LOCFRAME XSTACK, 18, STACK
        LOCFRAME IOVERLAY, 0, STATIC
        LOCFRAME DOVERLAY, 0, STATIC
        ARGFRAME ISTACK, 0, STACK
        ARGFRAME PSTACK, 0, STACK
        ARGFRAME XSTACK, 18, STACK
        ARGFRAME IOVERLAY, 0, STATIC
        ARGFRAME DOVERLAY, 0, STATIC
        MOV     A,#-0xf
        LCALL   ?BANKED_ENTER_XDATA
        CFI DPH0 load(1, XDATA, add(CFA_XSP16, literal(-1)))
        CFI DPL0 load(1, XDATA, add(CFA_XSP16, literal(-2)))
        CFI ?BRET_EXT load(1, XDATA, add(CFA_XSP16, literal(-3)))
        CFI ?RET_HIGH load(1, XDATA, add(CFA_XSP16, literal(-4)))
        CFI ?RET_LOW load(1, XDATA, add(CFA_XSP16, literal(-5)))
        CFI R7 load(1, XDATA, add(CFA_XSP16, literal(-6)))
        CFI V6 load(1, XDATA, add(CFA_XSP16, literal(-7)))
        CFI V5 load(1, XDATA, add(CFA_XSP16, literal(-8)))
        CFI V4 load(1, XDATA, add(CFA_XSP16, literal(-9)))
        CFI V3 load(1, XDATA, add(CFA_XSP16, literal(-10)))
        CFI V2 load(1, XDATA, add(CFA_XSP16, literal(-11)))
        CFI V1 load(1, XDATA, add(CFA_XSP16, literal(-12)))
        CFI V0 load(1, XDATA, add(CFA_XSP16, literal(-13)))
        CFI VB load(1, XDATA, add(CFA_XSP16, literal(-14)))
        CFI R6 load(1, XDATA, add(CFA_XSP16, literal(-15)))
        CFI CFA_SP SP+0
        CFI CFA_XSP16 add(XSP16, 15)
        ; Saved register size: 15
        ; Auto size: 0
        MOV     ?V0 + 0,R1
        MOV     A,R2
        MOV     R6,A
        MOV     A,R3
        MOV     R7,A
//  490   switch(param)
        MOV     A,?V0 + 0
        JZ      ??zb_GetDeviceInfo_0
        DEC     A
        JZ      ??zb_GetDeviceInfo_1
        DEC     A
        JZ      ??zb_GetDeviceInfo_2
        DEC     A
        JZ      ??zb_GetDeviceInfo_3
        DEC     A
        JNZ     $+5
        LJMP    ??zb_GetDeviceInfo_4 & 0xFFFF
        DEC     A
        JNZ     $+5
        LJMP    ??zb_GetDeviceInfo_5 & 0xFFFF
        DEC     A
        JNZ     $+5
        LJMP    ??zb_GetDeviceInfo_6 & 0xFFFF
        DEC     A
        JNZ     $+5
        LJMP    ??zb_GetDeviceInfo_7 & 0xFFFF
        LJMP    ??zb_GetDeviceInfo_8 & 0xFFFF
//  491   {
//  492   case ZB_INFO_DEV_STATE:
//  493     osal_memcpy(pValue, &devState, sizeof(uint8));
??zb_GetDeviceInfo_0:
        ; Setup parameters for call to function osal_memcpy
        MOV     ?V0 + 4,#devState & 0xff
        MOV     ?V0 + 5,#(devState >> 8) & 0xff
        MOV     ?V0 + 6,#0x0
        MOV     R0,#?V0 + 4
        LCALL   ?PUSH_XSTACK_I_THREE
        CFI CFA_XSP16 add(XSP16, 18)
        MOV     R4,#0x1
        MOV     R5,#0x0
        MOV     A,R6
        MOV     R2,A
        MOV     A,R7
        MOV     R3,A
        LCALL   ??osal_memcpy?relay
        MOV     A,#0x3
        LCALL   ?DEALLOC_XSTACK8
        CFI CFA_XSP16 add(XSP16, 15)
//  494     break;
        LJMP    ??zb_GetDeviceInfo_8 & 0xFFFF
//  495   case ZB_INFO_IEEE_ADDR:
//  496     osal_memcpy(pValue, &aExtendedAddress, Z_EXTADDR_LEN);
??zb_GetDeviceInfo_1:
        ; Setup parameters for call to function osal_memcpy
        MOV     ?V0 + 4,#aExtendedAddress & 0xff
        MOV     ?V0 + 5,#(aExtendedAddress >> 8) & 0xff
        MOV     ?V0 + 6,#0x0
        MOV     R0,#?V0 + 4
        LCALL   ?PUSH_XSTACK_I_THREE
        CFI CFA_XSP16 add(XSP16, 18)
        MOV     R4,#0x8
        MOV     R5,#0x0
        MOV     A,R6
        MOV     R2,A
        MOV     A,R7
        MOV     R3,A
        LCALL   ??osal_memcpy?relay
        MOV     A,#0x3
        LCALL   ?DEALLOC_XSTACK8
        CFI CFA_XSP16 add(XSP16, 15)
//  497     break;
        LJMP    ??zb_GetDeviceInfo_8 & 0xFFFF
//  498   case ZB_INFO_SHORT_ADDR:
//  499     osal_memcpy(pValue, &_NIB.nwkDevAddress, sizeof(uint16));
??zb_GetDeviceInfo_2:
        ; Setup parameters for call to function osal_memcpy
        MOV     ?V0 + 4,#(_NIB + 20) & 0xff
        MOV     ?V0 + 5,#((_NIB + 20) >> 8) & 0xff
        MOV     ?V0 + 6,#0x0
        MOV     R0,#?V0 + 4
        LCALL   ?PUSH_XSTACK_I_THREE
        CFI CFA_XSP16 add(XSP16, 18)
        MOV     R4,#0x2
        MOV     R5,#0x0
        MOV     A,R6
        MOV     R2,A
        MOV     A,R7
        MOV     R3,A
        LCALL   ??osal_memcpy?relay
        MOV     A,#0x3
        LCALL   ?DEALLOC_XSTACK8
        CFI CFA_XSP16 add(XSP16, 15)
//  500     break;
        LJMP    ??zb_GetDeviceInfo_8 & 0xFFFF
//  501   case ZB_INFO_PARENT_SHORT_ADDR:
//  502     osal_memcpy(pValue, &_NIB.nwkCoordAddress, sizeof(uint16));
??zb_GetDeviceInfo_3:
        ; Setup parameters for call to function osal_memcpy
        MOV     ?V0 + 4,#(_NIB + 23) & 0xff
        MOV     ?V0 + 5,#((_NIB + 23) >> 8) & 0xff
        MOV     ?V0 + 6,#0x0
        MOV     R0,#?V0 + 4
        LCALL   ?PUSH_XSTACK_I_THREE
        CFI CFA_XSP16 add(XSP16, 18)
        MOV     R4,#0x2
        MOV     R5,#0x0
        MOV     A,R6
        MOV     R2,A
        MOV     A,R7
        MOV     R3,A
        LCALL   ??osal_memcpy?relay
        MOV     A,#0x3
        LCALL   ?DEALLOC_XSTACK8
        CFI CFA_XSP16 add(XSP16, 15)
//  503     break;
        SJMP    ??zb_GetDeviceInfo_8
//  504   case ZB_INFO_PARENT_IEEE_ADDR:
//  505     osal_memcpy(pValue, &_NIB.nwkCoordExtAddress, Z_EXTADDR_LEN);
??zb_GetDeviceInfo_4:
        ; Setup parameters for call to function osal_memcpy
        MOV     ?V0 + 4,#(_NIB + 25) & 0xff
        MOV     ?V0 + 5,#((_NIB + 25) >> 8) & 0xff
        MOV     ?V0 + 6,#0x0
        MOV     R0,#?V0 + 4
        LCALL   ?PUSH_XSTACK_I_THREE
        CFI CFA_XSP16 add(XSP16, 18)
        MOV     R4,#0x8
        MOV     R5,#0x0
        MOV     A,R6
        MOV     R2,A
        MOV     A,R7
        MOV     R3,A
        LCALL   ??osal_memcpy?relay
        MOV     A,#0x3
        LCALL   ?DEALLOC_XSTACK8
        CFI CFA_XSP16 add(XSP16, 15)
//  506     break;
        SJMP    ??zb_GetDeviceInfo_8
//  507   case ZB_INFO_CHANNEL:
//  508     osal_memcpy(pValue, &_NIB.nwkLogicalChannel, sizeof(uint8));
??zb_GetDeviceInfo_5:
        ; Setup parameters for call to function osal_memcpy
        MOV     ?V0 + 4,#(_NIB + 22) & 0xff
        MOV     ?V0 + 5,#((_NIB + 22) >> 8) & 0xff
        MOV     ?V0 + 6,#0x0
        MOV     R0,#?V0 + 4
        LCALL   ?PUSH_XSTACK_I_THREE
        CFI CFA_XSP16 add(XSP16, 18)
        MOV     R4,#0x1
        MOV     R5,#0x0
        MOV     A,R6
        MOV     R2,A
        MOV     A,R7
        MOV     R3,A
        LCALL   ??osal_memcpy?relay
        MOV     A,#0x3
        LCALL   ?DEALLOC_XSTACK8
        CFI CFA_XSP16 add(XSP16, 15)
//  509     break;
        SJMP    ??zb_GetDeviceInfo_8
//  510   case ZB_INFO_PAN_ID:
//  511     osal_memcpy(pValue, &_NIB.nwkPanId, sizeof(uint16));
??zb_GetDeviceInfo_6:
        ; Setup parameters for call to function osal_memcpy
        MOV     ?V0 + 4,#(_NIB + 33) & 0xff
        MOV     ?V0 + 5,#((_NIB + 33) >> 8) & 0xff
        MOV     ?V0 + 6,#0x0
        MOV     R0,#?V0 + 4
        LCALL   ?PUSH_XSTACK_I_THREE
        CFI CFA_XSP16 add(XSP16, 18)
        MOV     R4,#0x2
        MOV     R5,#0x0
        MOV     A,R6
        MOV     R2,A
        MOV     A,R7
        MOV     R3,A
        LCALL   ??osal_memcpy?relay
        MOV     A,#0x3
        LCALL   ?DEALLOC_XSTACK8
        CFI CFA_XSP16 add(XSP16, 15)
//  512     break;
        SJMP    ??zb_GetDeviceInfo_8
//  513   case ZB_INFO_EXT_PAN_ID:
//  514     osal_memcpy(pValue, &_NIB.extendedPANID, Z_EXTADDR_LEN);
??zb_GetDeviceInfo_7:
        ; Setup parameters for call to function osal_memcpy
        MOV     ?V0 + 4,#(_NIB + 53) & 0xff
        MOV     ?V0 + 5,#((_NIB + 53) >> 8) & 0xff
        MOV     ?V0 + 6,#0x0
        MOV     R0,#?V0 + 4
        LCALL   ?PUSH_XSTACK_I_THREE
        CFI CFA_XSP16 add(XSP16, 18)
        MOV     R4,#0x8
        MOV     R5,#0x0
        MOV     A,R6
        MOV     R2,A
        MOV     A,R7
        MOV     R3,A
        LCALL   ??osal_memcpy?relay
        MOV     A,#0x3
        LCALL   ?DEALLOC_XSTACK8
        CFI CFA_XSP16 add(XSP16, 15)
//  515     break;
//  516   }
//  517 }
??zb_GetDeviceInfo_8:
        MOV     R7,#0x7
        LJMP    ?BANKED_LEAVE_XDATA
        CFI EndBlock cfiBlock8
//  518 
//  519 /******************************************************************************
//  520 * @fn          zb_FindDeviceRequest
//  521 *
//  522 * @brief       The zb_FindDeviceRequest function is used to determine the
//  523 *              short address for a device in the network.  The device initiating
//  524 *              a call to zb_FindDeviceRequest and the device being discovered
//  525 *              must both be a member of the same network.  When the search is
//  526 *              complete, the zv_FindDeviceConfirm callback function is called.
//  527 *
//  528 * @param       searchType - The type of search to perform. Can be one of following:
//  529 *                           ZB_IEEE_SEARCH - Search for 16-bit addr given IEEE addr.
//  530 *              searchKey - Value to search on.
//  531 *
//  532 * @return      none
//  533 */

        RSEG BANKED_CODE:CODE:NOROOT(0)
//  534 void zb_FindDeviceRequest( uint8 searchType, void *searchKey )
zb_FindDeviceRequest:
        CFI Block cfiBlock9 Using cfiCommon0
        CFI Function zb_FindDeviceRequest
        CODE
//  535 {
        FUNCALL zb_FindDeviceRequest, ZDP_NwkAddrReq
        LOCFRAME ISTACK, 0, STACK
        LOCFRAME PSTACK, 0, STACK
        LOCFRAME XSTACK, 9, STACK
        LOCFRAME IOVERLAY, 0, STATIC
        LOCFRAME DOVERLAY, 0, STATIC
        ARGFRAME ISTACK, 0, STACK
        ARGFRAME PSTACK, 0, STACK
        ARGFRAME XSTACK, 9, STACK
        ARGFRAME IOVERLAY, 0, STATIC
        ARGFRAME DOVERLAY, 0, STATIC
        MOV     A,#-0x9
        LCALL   ?BANKED_ENTER_XDATA
        CFI DPH0 load(1, XDATA, add(CFA_XSP16, literal(-1)))
        CFI DPL0 load(1, XDATA, add(CFA_XSP16, literal(-2)))
        CFI ?BRET_EXT load(1, XDATA, add(CFA_XSP16, literal(-3)))
        CFI ?RET_HIGH load(1, XDATA, add(CFA_XSP16, literal(-4)))
        CFI ?RET_LOW load(1, XDATA, add(CFA_XSP16, literal(-5)))
        CFI R7 load(1, XDATA, add(CFA_XSP16, literal(-6)))
        CFI V0 load(1, XDATA, add(CFA_XSP16, literal(-7)))
        CFI VB load(1, XDATA, add(CFA_XSP16, literal(-8)))
        CFI R6 load(1, XDATA, add(CFA_XSP16, literal(-9)))
        CFI CFA_SP SP+0
        CFI CFA_XSP16 add(XSP16, 9)
        ; Saved register size: 9
        ; Auto size: 0
        MOV     ?V0 + 0,R1
        MOV     A,R2
        MOV     R6,A
        MOV     A,R3
        MOV     R7,A
//  536   if (searchType == ZB_IEEE_SEARCH)
        MOV     A,#0x1
        XRL     A,?V0 + 0
        JNZ     ??zb_FindDeviceRequest_0
//  537   {
//  538     ZDP_NwkAddrReq((uint8*) searchKey, ZDP_ADDR_REQTYPE_SINGLE, 0, 0 );
        ; Setup parameters for call to function ZDP_NwkAddrReq
        MOV     R5,#0x0
        MOV     R4,#0x0
        MOV     R1,#0x0
        MOV     A,R6
        MOV     R2,A
        MOV     A,R7
        MOV     R3,A
        LCALL   ??ZDP_NwkAddrReq?relay
        MOV     A,R1
//  539   }
//  540 }
??zb_FindDeviceRequest_0:
        MOV     R7,#0x1
        LJMP    ?BANKED_LEAVE_XDATA
        CFI EndBlock cfiBlock9
//  541 /******************************************************************************
//  542 * @fn          SAPI_StartConfirm
//  543 *
//  544 * @brief       The SAPI_StartConfirm callback is called by the ZigBee stack
//  545 *              after a start request operation completes
//  546 *
//  547 * @param       status - The status of the start operation.  Status of
//  548 *                       ZB_SUCCESS indicates the start operation completed
//  549 *                       successfully.  Else the status is an error code.
//  550 *
//  551 * @return      none
//  552 */

        RSEG BANKED_CODE:CODE:NOROOT(0)
//  553 void SAPI_StartConfirm( uint8 status )
SAPI_StartConfirm:
        CFI Block cfiBlock10 Using cfiCommon0
        CFI Function SAPI_StartConfirm
        CODE
//  554 {
        FUNCALL SAPI_StartConfirm, zb_StartConfirm
        LOCFRAME ISTACK, 0, STACK
        LOCFRAME PSTACK, 0, STACK
        LOCFRAME XSTACK, 9, STACK
        LOCFRAME IOVERLAY, 0, STATIC
        LOCFRAME DOVERLAY, 0, STATIC
        ARGFRAME ISTACK, 0, STACK
        ARGFRAME PSTACK, 0, STACK
        ARGFRAME XSTACK, 9, STACK
        ARGFRAME IOVERLAY, 0, STATIC
        ARGFRAME DOVERLAY, 0, STATIC
        MOV     A,#-0x9
        LCALL   ?BANKED_ENTER_XDATA
        CFI DPH0 load(1, XDATA, add(CFA_XSP16, literal(-1)))
        CFI DPL0 load(1, XDATA, add(CFA_XSP16, literal(-2)))
        CFI ?BRET_EXT load(1, XDATA, add(CFA_XSP16, literal(-3)))
        CFI ?RET_HIGH load(1, XDATA, add(CFA_XSP16, literal(-4)))
        CFI ?RET_LOW load(1, XDATA, add(CFA_XSP16, literal(-5)))
        CFI R7 load(1, XDATA, add(CFA_XSP16, literal(-6)))
        CFI V0 load(1, XDATA, add(CFA_XSP16, literal(-7)))
        CFI VB load(1, XDATA, add(CFA_XSP16, literal(-8)))
        CFI R6 load(1, XDATA, add(CFA_XSP16, literal(-9)))
        CFI CFA_SP SP+0
        CFI CFA_XSP16 add(XSP16, 9)
        ; Saved register size: 9
        ; Auto size: 0
        MOV     A,R1
        MOV     R6,A
//  555 #if defined ( MT_SAPI_CB_FUNC )
//  556   /* First check if MT has subscribed for this callback. If so , pass it as
//  557   a event to MonitorTest and return control to calling function after that */
//  558   if ( SAPICB_CHECK( SPI_CB_SAPI_START_CNF ) )
//  559   {
//  560     zb_MTCallbackStartConfirm( status );
//  561   }
//  562   else
//  563 #endif  //MT_SAPI_CB_FUNC
//  564   {
//  565 #if ( SAPI_CB_FUNC )
//  566     zb_StartConfirm( status );
        ; Setup parameters for call to function zb_StartConfirm
        MOV     R1,A
        LCALL   ??zb_StartConfirm?relay
//  567 #endif
//  568   }
//  569 }
        MOV     R7,#0x1
        LJMP    ?BANKED_LEAVE_XDATA
        CFI EndBlock cfiBlock10
//  570 
//  571 /******************************************************************************
//  572 * @fn          SAPI_SendDataConfirm
//  573 *
//  574 * @brief       The SAPI_SendDataConfirm callback function is called by the
//  575 *              ZigBee after a send data operation completes
//  576 *
//  577 * @param       handle - The handle identifying the data transmission.
//  578 *              status - The status of the operation.
//  579 *
//  580 * @return      none
//  581 */

        RSEG BANKED_CODE:CODE:NOROOT(0)
//  582 void SAPI_SendDataConfirm( uint8 handle, uint8 status )
SAPI_SendDataConfirm:
        CFI Block cfiBlock11 Using cfiCommon0
        CFI Function SAPI_SendDataConfirm
        CODE
//  583 {
        FUNCALL SAPI_SendDataConfirm, zb_SendDataConfirm
        LOCFRAME ISTACK, 0, STACK
        LOCFRAME PSTACK, 0, STACK
        LOCFRAME XSTACK, 9, STACK
        LOCFRAME IOVERLAY, 0, STATIC
        LOCFRAME DOVERLAY, 0, STATIC
        ARGFRAME ISTACK, 0, STACK
        ARGFRAME PSTACK, 0, STACK
        ARGFRAME XSTACK, 9, STACK
        ARGFRAME IOVERLAY, 0, STATIC
        ARGFRAME DOVERLAY, 0, STATIC
        MOV     A,#-0x9
        LCALL   ?BANKED_ENTER_XDATA
        CFI DPH0 load(1, XDATA, add(CFA_XSP16, literal(-1)))
        CFI DPL0 load(1, XDATA, add(CFA_XSP16, literal(-2)))
        CFI ?BRET_EXT load(1, XDATA, add(CFA_XSP16, literal(-3)))
        CFI ?RET_HIGH load(1, XDATA, add(CFA_XSP16, literal(-4)))
        CFI ?RET_LOW load(1, XDATA, add(CFA_XSP16, literal(-5)))
        CFI R7 load(1, XDATA, add(CFA_XSP16, literal(-6)))
        CFI V0 load(1, XDATA, add(CFA_XSP16, literal(-7)))
        CFI VB load(1, XDATA, add(CFA_XSP16, literal(-8)))
        CFI R6 load(1, XDATA, add(CFA_XSP16, literal(-9)))
        CFI CFA_SP SP+0
        CFI CFA_XSP16 add(XSP16, 9)
        ; Saved register size: 9
        ; Auto size: 0
        MOV     A,R1
        MOV     R7,A
        MOV     A,R2
        MOV     R6,A
//  584 #if defined ( MT_SAPI_CB_FUNC )
//  585   /* First check if MT has subscribed for this callback. If so , pass it as
//  586   a event to MonitorTest and return control to calling function after that */
//  587   if ( SAPICB_CHECK( SPI_CB_SAPI_SEND_DATA_CNF ) )
//  588   {
//  589     zb_MTCallbackSendDataConfirm( handle, status );
//  590   }
//  591   else
//  592 #endif  //MT_SAPI_CB_FUNC
//  593   {
//  594 #if ( SAPI_CB_FUNC )
//  595     zb_SendDataConfirm( handle, status );
        ; Setup parameters for call to function zb_SendDataConfirm
        MOV     R2,A
        MOV     A,R7
        MOV     R1,A
        LCALL   ??zb_SendDataConfirm?relay
//  596 #endif
//  597   }
//  598 }
        MOV     R7,#0x1
        LJMP    ?BANKED_LEAVE_XDATA
        CFI EndBlock cfiBlock11
//  599 
//  600 /******************************************************************************
//  601 * @fn          SAPI_BindConfirm
//  602 *
//  603 * @brief       The SAPI_BindConfirm callback is called by the ZigBee stack
//  604 *              after a bind operation completes.
//  605 *
//  606 * @param       commandId - The command ID of the binding being confirmed.
//  607 *              status - The status of the bind operation.
//  608 *              allowBind - TRUE if the bind operation was initiated by a call
//  609 *                          to zb_AllowBindRespones.  FALSE if the operation
//  610 *                          was initiated by a call to ZB_BindDevice
//  611 *
//  612 * @return      none
//  613 */

        RSEG BANKED_CODE:CODE:NOROOT(0)
//  614 void SAPI_BindConfirm( uint16 commandId, uint8 status )
SAPI_BindConfirm:
        CFI Block cfiBlock12 Using cfiCommon0
        CFI Function SAPI_BindConfirm
        CODE
//  615 {
        FUNCALL SAPI_BindConfirm, zb_BindConfirm
        LOCFRAME ISTACK, 0, STACK
        LOCFRAME PSTACK, 0, STACK
        LOCFRAME XSTACK, 9, STACK
        LOCFRAME IOVERLAY, 0, STATIC
        LOCFRAME DOVERLAY, 0, STATIC
        ARGFRAME ISTACK, 0, STACK
        ARGFRAME PSTACK, 0, STACK
        ARGFRAME XSTACK, 9, STACK
        ARGFRAME IOVERLAY, 0, STATIC
        ARGFRAME DOVERLAY, 0, STATIC
        MOV     A,#-0x9
        LCALL   ?BANKED_ENTER_XDATA
        CFI DPH0 load(1, XDATA, add(CFA_XSP16, literal(-1)))
        CFI DPL0 load(1, XDATA, add(CFA_XSP16, literal(-2)))
        CFI ?BRET_EXT load(1, XDATA, add(CFA_XSP16, literal(-3)))
        CFI ?RET_HIGH load(1, XDATA, add(CFA_XSP16, literal(-4)))
        CFI ?RET_LOW load(1, XDATA, add(CFA_XSP16, literal(-5)))
        CFI R7 load(1, XDATA, add(CFA_XSP16, literal(-6)))
        CFI V0 load(1, XDATA, add(CFA_XSP16, literal(-7)))
        CFI VB load(1, XDATA, add(CFA_XSP16, literal(-8)))
        CFI R6 load(1, XDATA, add(CFA_XSP16, literal(-9)))
        CFI CFA_SP SP+0
        CFI CFA_XSP16 add(XSP16, 9)
        ; Saved register size: 9
        ; Auto size: 0
        MOV     A,R2
        MOV     R6,A
        MOV     A,R3
        MOV     R7,A
        MOV     ?V0 + 0,R1
//  616 #if defined ( MT_SAPI_CB_FUNC )
//  617   /* First check if MT has subscribed for this callback. If so , pass it as
//  618   a event to MonitorTest and return control to calling function after that */
//  619   if ( SAPICB_CHECK( SPI_CB_SAPI_BIND_CNF ) )
//  620   {
//  621     zb_MTCallbackBindConfirm( commandId, status );
//  622   }
//  623   else
//  624 #endif  //MT_SAPI_CB_FUNC
//  625   {
//  626 #if ( SAPI_CB_FUNC )
//  627     zb_BindConfirm( commandId, status );
        ; Setup parameters for call to function zb_BindConfirm
        MOV     R1,?V0 + 0
        MOV     A,R6
        MOV     R2,A
        MOV     A,R7
        MOV     R3,A
        LCALL   ??zb_BindConfirm?relay
//  628 #endif
//  629   }
//  630 }
        MOV     R7,#0x1
        LJMP    ?BANKED_LEAVE_XDATA
        CFI EndBlock cfiBlock12
//  631 /******************************************************************************
//  632 * @fn          SAPI_AllowBindConfirm
//  633 *
//  634 * @brief       Indicates when another device attempted to bind to this device
//  635 *
//  636 * @param
//  637 *
//  638 * @return      none
//  639 */

        RSEG BANKED_CODE:CODE:NOROOT(0)
//  640 void SAPI_AllowBindConfirm( uint16 source )
SAPI_AllowBindConfirm:
        CFI Block cfiBlock13 Using cfiCommon0
        CFI Function SAPI_AllowBindConfirm
        CODE
//  641 {
        FUNCALL SAPI_AllowBindConfirm, zb_AllowBindConfirm
        LOCFRAME ISTACK, 0, STACK
        LOCFRAME PSTACK, 0, STACK
        LOCFRAME XSTACK, 9, STACK
        LOCFRAME IOVERLAY, 0, STATIC
        LOCFRAME DOVERLAY, 0, STATIC
        ARGFRAME ISTACK, 0, STACK
        ARGFRAME PSTACK, 0, STACK
        ARGFRAME XSTACK, 9, STACK
        ARGFRAME IOVERLAY, 0, STATIC
        ARGFRAME DOVERLAY, 0, STATIC
        MOV     A,#-0x9
        LCALL   ?BANKED_ENTER_XDATA
        CFI DPH0 load(1, XDATA, add(CFA_XSP16, literal(-1)))
        CFI DPL0 load(1, XDATA, add(CFA_XSP16, literal(-2)))
        CFI ?BRET_EXT load(1, XDATA, add(CFA_XSP16, literal(-3)))
        CFI ?RET_HIGH load(1, XDATA, add(CFA_XSP16, literal(-4)))
        CFI ?RET_LOW load(1, XDATA, add(CFA_XSP16, literal(-5)))
        CFI R7 load(1, XDATA, add(CFA_XSP16, literal(-6)))
        CFI V0 load(1, XDATA, add(CFA_XSP16, literal(-7)))
        CFI VB load(1, XDATA, add(CFA_XSP16, literal(-8)))
        CFI R6 load(1, XDATA, add(CFA_XSP16, literal(-9)))
        CFI CFA_SP SP+0
        CFI CFA_XSP16 add(XSP16, 9)
        ; Saved register size: 9
        ; Auto size: 0
        MOV     A,R2
        MOV     R6,A
        MOV     A,R3
        MOV     R7,A
//  642 #if defined ( MT_SAPI_CB_FUNC )
//  643   /* First check if MT has subscribed for this callback. If so , pass it as
//  644   a event to MonitorTest and return control to calling function after that */
//  645   if ( SAPICB_CHECK( SPI_CB_SAPI_ALLOW_BIND_CNF ) )
//  646   {
//  647     zb_MTCallbackAllowBindConfirm( source );
//  648   }
//  649   else
//  650 #endif  //MT_SAPI_CB_FUNC
//  651   {
//  652 #if ( SAPI_CB_FUNC )
//  653     zb_AllowBindConfirm( source );
        ; Setup parameters for call to function zb_AllowBindConfirm
        MOV     A,R6
        MOV     R2,A
        MOV     A,R7
        MOV     R3,A
        LCALL   ??zb_AllowBindConfirm?relay
//  654 #endif
//  655   }
//  656 }
        MOV     R7,#0x1
        LJMP    ?BANKED_LEAVE_XDATA
        CFI EndBlock cfiBlock13
//  657 /******************************************************************************
//  658 * @fn          SAPI_FindDeviceConfirm
//  659 *
//  660 * @brief       The SAPI_FindDeviceConfirm callback function is called by the
//  661 *              ZigBee stack when a find device operation completes.
//  662 *
//  663 * @param       searchType - The type of search that was performed.
//  664 *              searchKey - Value that the search was executed on.
//  665 *              result - The result of the search.
//  666 *
//  667 * @return      none
//  668 */

        RSEG BANKED_CODE:CODE:NOROOT(0)
//  669 void SAPI_FindDeviceConfirm( uint8 searchType, uint8 *searchKey, uint8 *result )
SAPI_FindDeviceConfirm:
        CFI Block cfiBlock14 Using cfiCommon0
        CFI Function SAPI_FindDeviceConfirm
        CODE
//  670 {
        FUNCALL SAPI_FindDeviceConfirm, zb_FindDeviceConfirm
        LOCFRAME ISTACK, 0, STACK
        LOCFRAME PSTACK, 0, STACK
        LOCFRAME XSTACK, 11, STACK
        LOCFRAME IOVERLAY, 0, STATIC
        LOCFRAME DOVERLAY, 0, STATIC
        ARGFRAME ISTACK, 0, STACK
        ARGFRAME PSTACK, 0, STACK
        ARGFRAME XSTACK, 11, STACK
        ARGFRAME IOVERLAY, 0, STATIC
        ARGFRAME DOVERLAY, 0, STATIC
        MOV     A,#-0xb
        LCALL   ?BANKED_ENTER_XDATA
        CFI DPH0 load(1, XDATA, add(CFA_XSP16, literal(-1)))
        CFI DPL0 load(1, XDATA, add(CFA_XSP16, literal(-2)))
        CFI ?BRET_EXT load(1, XDATA, add(CFA_XSP16, literal(-3)))
        CFI ?RET_HIGH load(1, XDATA, add(CFA_XSP16, literal(-4)))
        CFI ?RET_LOW load(1, XDATA, add(CFA_XSP16, literal(-5)))
        CFI R7 load(1, XDATA, add(CFA_XSP16, literal(-6)))
        CFI V2 load(1, XDATA, add(CFA_XSP16, literal(-7)))
        CFI V1 load(1, XDATA, add(CFA_XSP16, literal(-8)))
        CFI V0 load(1, XDATA, add(CFA_XSP16, literal(-9)))
        CFI VB load(1, XDATA, add(CFA_XSP16, literal(-10)))
        CFI R6 load(1, XDATA, add(CFA_XSP16, literal(-11)))
        CFI CFA_SP SP+0
        CFI CFA_XSP16 add(XSP16, 11)
        ; Saved register size: 11
        ; Auto size: 0
        MOV     ?V0 + 2,R1
        MOV     ?V0 + 0,R2
        MOV     ?V0 + 1,R3
        MOV     A,R4
        MOV     R6,A
        MOV     A,R5
        MOV     R7,A
//  671 #if defined ( MT_SAPI_CB_FUNC )
//  672   /* First check if MT has subscribed for this callback. If so , pass it as
//  673   a event to MonitorTest and return control to calling function after that */
//  674   if ( SAPICB_CHECK( SPI_CB_SAPI_FIND_DEV_CNF ) )
//  675   {
//  676     zb_MTCallbackFindDeviceConfirm( searchType, searchKey, result );
//  677   }
//  678   else
//  679 #endif  //MT_SAPI_CB_FUNC
//  680   {
//  681 #if ( SAPI_CB_FUNC )
//  682     zb_FindDeviceConfirm( searchType, searchKey, result );
        ; Setup parameters for call to function zb_FindDeviceConfirm
        MOV     A,R6
        MOV     R4,A
        MOV     A,R7
        MOV     R5,A
        MOV     R2,?V0 + 0
        MOV     R3,?V0 + 1
        MOV     R1,?V0 + 2
        LCALL   ??zb_FindDeviceConfirm?relay
//  683 #endif
//  684   }
//  685 }
        MOV     R7,#0x3
        LJMP    ?BANKED_LEAVE_XDATA
        CFI EndBlock cfiBlock14
//  686 /******************************************************************************
//  687 * @fn          SAPI_ReceiveDataIndication
//  688 *
//  689 * @brief       The SAPI_ReceiveDataIndication callback function is called
//  690 *              asynchronously by the ZigBee stack to notify the application
//  691 *              when data is received from a peer device.
//  692 *
//  693 * @param       source - The short address of the peer device that sent the data
//  694 *              command - The commandId associated with the data
//  695 *              len - The number of bytes in the pData parameter
//  696 *              pData - The data sent by the peer device
//  697 *
//  698 * @return      none
//  699 */

        RSEG BANKED_CODE:CODE:NOROOT(0)
//  700 void SAPI_ReceiveDataIndication( uint16 source, uint16 command, uint16 len, uint8 *pData  )
SAPI_ReceiveDataIndication:
        CFI Block cfiBlock15 Using cfiCommon0
        CFI Function SAPI_ReceiveDataIndication
        CODE
//  701 {
        FUNCALL SAPI_ReceiveDataIndication, zb_ReceiveDataIndication
        LOCFRAME ISTACK, 0, STACK
        LOCFRAME PSTACK, 0, STACK
        LOCFRAME XSTACK, 18, STACK
        LOCFRAME IOVERLAY, 0, STATIC
        LOCFRAME DOVERLAY, 0, STATIC
        ARGFRAME ISTACK, 0, STACK
        ARGFRAME PSTACK, 0, STACK
        ARGFRAME XSTACK, 18, STACK
        ARGFRAME IOVERLAY, 0, STATIC
        ARGFRAME DOVERLAY, 0, STATIC
        MOV     A,#-0xe
        LCALL   ?BANKED_ENTER_XDATA
        CFI DPH0 load(1, XDATA, add(CFA_XSP16, literal(-1)))
        CFI DPL0 load(1, XDATA, add(CFA_XSP16, literal(-2)))
        CFI ?BRET_EXT load(1, XDATA, add(CFA_XSP16, literal(-3)))
        CFI ?RET_HIGH load(1, XDATA, add(CFA_XSP16, literal(-4)))
        CFI ?RET_LOW load(1, XDATA, add(CFA_XSP16, literal(-5)))
        CFI R7 load(1, XDATA, add(CFA_XSP16, literal(-6)))
        CFI V5 load(1, XDATA, add(CFA_XSP16, literal(-7)))
        CFI V4 load(1, XDATA, add(CFA_XSP16, literal(-8)))
        CFI V3 load(1, XDATA, add(CFA_XSP16, literal(-9)))
        CFI V2 load(1, XDATA, add(CFA_XSP16, literal(-10)))
        CFI V1 load(1, XDATA, add(CFA_XSP16, literal(-11)))
        CFI V0 load(1, XDATA, add(CFA_XSP16, literal(-12)))
        CFI VB load(1, XDATA, add(CFA_XSP16, literal(-13)))
        CFI R6 load(1, XDATA, add(CFA_XSP16, literal(-14)))
        CFI CFA_SP SP+0
        CFI CFA_XSP16 add(XSP16, 14)
        ; Saved register size: 14
        ; Auto size: 0
        MOV     ?V0 + 0,R2
        MOV     ?V0 + 1,R3
        MOV     A,R4
        MOV     R6,A
        MOV     A,R5
        MOV     R7,A
        MOV     A,#0xe
        LCALL   ?XSTACK_DISP0_8
        MOVX    A,@DPTR
        MOV     ?V0 + 2,A
        INC     DPTR
        MOVX    A,@DPTR
        MOV     ?V0 + 3,A
        MOV     A,#0x10
        LCALL   ?XSTACK_DISP0_8
        MOVX    A,@DPTR
        MOV     ?V0 + 4,A
        INC     DPTR
        MOVX    A,@DPTR
        MOV     ?V0 + 5,A
//  702 #if defined ( MT_SAPI_CB_FUNC )
//  703   /* First check if MT has subscribed for this callback. If so , pass it as
//  704   a event to MonitorTest and return control to calling function after that */
//  705   if ( SAPICB_CHECK( SPI_CB_SAPI_RCV_DATA_IND ) )
//  706   {
//  707     zb_MTCallbackReceiveDataIndication( source, command, len, pData  );
//  708   }
//  709   else
//  710 #endif  //MT_SAPI_CB_FUNC
//  711   {
//  712 #if ( SAPI_CB_FUNC )
//  713     zb_ReceiveDataIndication( source, command, len, pData  );
        ; Setup parameters for call to function zb_ReceiveDataIndication
        MOV     R0,#?V0 + 4
        LCALL   ?PUSH_XSTACK_I_TWO
        CFI CFA_XSP16 add(XSP16, 16)
        MOV     R0,#?V0 + 2
        LCALL   ?PUSH_XSTACK_I_TWO
        CFI CFA_XSP16 add(XSP16, 18)
        MOV     A,R6
        MOV     R4,A
        MOV     A,R7
        MOV     R5,A
        MOV     R2,?V0 + 0
        MOV     R3,?V0 + 1
        LCALL   ??zb_ReceiveDataIndication?relay
        MOV     A,#0x4
        LCALL   ?DEALLOC_XSTACK8
        CFI CFA_XSP16 add(XSP16, 14)
//  714 #endif
//  715   }
//  716 }
        MOV     R7,#0x6
        LJMP    ?BANKED_LEAVE_XDATA
        CFI EndBlock cfiBlock15
//  717 /*********************************************************************
//  718 * @fn      SAPI_ProcessEvent
//  719 *
//  720 * @brief   Simple API Task event processor.  This function
//  721 *          is called to process all events for the task.  Events
//  722 *          include timers, messages and any other user defined events.
//  723 *
//  724 * @param   task_id  - The OSAL assigned task ID.
//  725 * @param   events - events to process.  This is a bit map and can
//  726 *                   contain more than one event.
//  727 *
//  728 * @return  none
//  729 */

        RSEG BANKED_CODE:CODE:NOROOT(0)
//  730 UINT16 SAPI_ProcessEvent( byte task_id, UINT16 events )
SAPI_ProcessEvent:
        CFI Block cfiBlock16 Using cfiCommon0
        CFI Function SAPI_ProcessEvent
        CODE
//  731 {
        FUNCALL SAPI_ProcessEvent, osal_msg_receive
        LOCFRAME ISTACK, 0, STACK
        LOCFRAME PSTACK, 0, STACK
        LOCFRAME XSTACK, 19, STACK
        LOCFRAME IOVERLAY, 0, STATIC
        LOCFRAME DOVERLAY, 0, STATIC
        ARGFRAME ISTACK, 0, STACK
        ARGFRAME PSTACK, 0, STACK
        ARGFRAME XSTACK, 19, STACK
        ARGFRAME IOVERLAY, 0, STATIC
        ARGFRAME DOVERLAY, 0, STATIC
        FUNCALL SAPI_ProcessEvent, SAPI_ProcessZDOMsgs
        LOCFRAME ISTACK, 0, STACK
        LOCFRAME PSTACK, 0, STACK
        LOCFRAME XSTACK, 19, STACK
        LOCFRAME IOVERLAY, 0, STATIC
        LOCFRAME DOVERLAY, 0, STATIC
        ARGFRAME ISTACK, 0, STACK
        ARGFRAME PSTACK, 0, STACK
        ARGFRAME XSTACK, 19, STACK
        ARGFRAME IOVERLAY, 0, STATIC
        ARGFRAME DOVERLAY, 0, STATIC
        FUNCALL SAPI_ProcessEvent, SAPI_SendDataConfirm
        LOCFRAME ISTACK, 0, STACK
        LOCFRAME PSTACK, 0, STACK
        LOCFRAME XSTACK, 19, STACK
        LOCFRAME IOVERLAY, 0, STATIC
        LOCFRAME DOVERLAY, 0, STATIC
        ARGFRAME ISTACK, 0, STACK
        ARGFRAME PSTACK, 0, STACK
        ARGFRAME XSTACK, 19, STACK
        ARGFRAME IOVERLAY, 0, STATIC
        ARGFRAME DOVERLAY, 0, STATIC
        FUNCALL SAPI_ProcessEvent, SAPI_ReceiveDataIndication
        LOCFRAME ISTACK, 0, STACK
        LOCFRAME PSTACK, 0, STACK
        LOCFRAME XSTACK, 23, STACK
        LOCFRAME IOVERLAY, 0, STATIC
        LOCFRAME DOVERLAY, 0, STATIC
        ARGFRAME ISTACK, 0, STACK
        ARGFRAME PSTACK, 0, STACK
        ARGFRAME XSTACK, 23, STACK
        ARGFRAME IOVERLAY, 0, STATIC
        ARGFRAME DOVERLAY, 0, STATIC
        FUNCALL SAPI_ProcessEvent, SAPI_StartConfirm
        LOCFRAME ISTACK, 0, STACK
        LOCFRAME PSTACK, 0, STACK
        LOCFRAME XSTACK, 19, STACK
        LOCFRAME IOVERLAY, 0, STATIC
        LOCFRAME DOVERLAY, 0, STATIC
        ARGFRAME ISTACK, 0, STACK
        ARGFRAME PSTACK, 0, STACK
        ARGFRAME XSTACK, 19, STACK
        ARGFRAME IOVERLAY, 0, STATIC
        ARGFRAME DOVERLAY, 0, STATIC
        FUNCALL SAPI_ProcessEvent, SAPI_StartConfirm
        LOCFRAME ISTACK, 0, STACK
        LOCFRAME PSTACK, 0, STACK
        LOCFRAME XSTACK, 19, STACK
        LOCFRAME IOVERLAY, 0, STATIC
        LOCFRAME DOVERLAY, 0, STATIC
        ARGFRAME ISTACK, 0, STACK
        ARGFRAME PSTACK, 0, STACK
        ARGFRAME XSTACK, 19, STACK
        ARGFRAME IOVERLAY, 0, STATIC
        ARGFRAME DOVERLAY, 0, STATIC
        FUNCALL SAPI_ProcessEvent, SAPI_AllowBindConfirm
        LOCFRAME ISTACK, 0, STACK
        LOCFRAME PSTACK, 0, STACK
        LOCFRAME XSTACK, 19, STACK
        LOCFRAME IOVERLAY, 0, STATIC
        LOCFRAME DOVERLAY, 0, STATIC
        ARGFRAME ISTACK, 0, STACK
        ARGFRAME PSTACK, 0, STACK
        ARGFRAME XSTACK, 19, STACK
        ARGFRAME IOVERLAY, 0, STATIC
        ARGFRAME DOVERLAY, 0, STATIC
        FUNCALL SAPI_ProcessEvent, zb_HandleKeys
        LOCFRAME ISTACK, 0, STACK
        LOCFRAME PSTACK, 0, STACK
        LOCFRAME XSTACK, 19, STACK
        LOCFRAME IOVERLAY, 0, STATIC
        LOCFRAME DOVERLAY, 0, STATIC
        ARGFRAME ISTACK, 0, STACK
        ARGFRAME PSTACK, 0, STACK
        ARGFRAME XSTACK, 19, STACK
        ARGFRAME IOVERLAY, 0, STATIC
        ARGFRAME DOVERLAY, 0, STATIC
        FUNCALL SAPI_ProcessEvent, SAPI_SendDataConfirm
        LOCFRAME ISTACK, 0, STACK
        LOCFRAME PSTACK, 0, STACK
        LOCFRAME XSTACK, 19, STACK
        LOCFRAME IOVERLAY, 0, STATIC
        LOCFRAME DOVERLAY, 0, STATIC
        ARGFRAME ISTACK, 0, STACK
        ARGFRAME PSTACK, 0, STACK
        ARGFRAME XSTACK, 19, STACK
        ARGFRAME IOVERLAY, 0, STATIC
        ARGFRAME DOVERLAY, 0, STATIC
        FUNCALL SAPI_ProcessEvent, SAPI_BindConfirm
        LOCFRAME ISTACK, 0, STACK
        LOCFRAME PSTACK, 0, STACK
        LOCFRAME XSTACK, 19, STACK
        LOCFRAME IOVERLAY, 0, STATIC
        LOCFRAME DOVERLAY, 0, STATIC
        ARGFRAME ISTACK, 0, STACK
        ARGFRAME PSTACK, 0, STACK
        ARGFRAME XSTACK, 19, STACK
        ARGFRAME IOVERLAY, 0, STATIC
        ARGFRAME DOVERLAY, 0, STATIC
        FUNCALL SAPI_ProcessEvent, SAPI_StartConfirm
        LOCFRAME ISTACK, 0, STACK
        LOCFRAME PSTACK, 0, STACK
        LOCFRAME XSTACK, 19, STACK
        LOCFRAME IOVERLAY, 0, STATIC
        LOCFRAME DOVERLAY, 0, STATIC
        ARGFRAME ISTACK, 0, STACK
        ARGFRAME PSTACK, 0, STACK
        ARGFRAME XSTACK, 19, STACK
        ARGFRAME IOVERLAY, 0, STATIC
        ARGFRAME DOVERLAY, 0, STATIC
        FUNCALL SAPI_ProcessEvent, osal_msg_deallocate
        LOCFRAME ISTACK, 0, STACK
        LOCFRAME PSTACK, 0, STACK
        LOCFRAME XSTACK, 19, STACK
        LOCFRAME IOVERLAY, 0, STATIC
        LOCFRAME DOVERLAY, 0, STATIC
        ARGFRAME ISTACK, 0, STACK
        ARGFRAME PSTACK, 0, STACK
        ARGFRAME XSTACK, 19, STACK
        ARGFRAME IOVERLAY, 0, STATIC
        ARGFRAME DOVERLAY, 0, STATIC
        FUNCALL SAPI_ProcessEvent, osal_msg_receive
        LOCFRAME ISTACK, 0, STACK
        LOCFRAME PSTACK, 0, STACK
        LOCFRAME XSTACK, 19, STACK
        LOCFRAME IOVERLAY, 0, STATIC
        LOCFRAME DOVERLAY, 0, STATIC
        ARGFRAME ISTACK, 0, STACK
        ARGFRAME PSTACK, 0, STACK
        ARGFRAME XSTACK, 19, STACK
        ARGFRAME IOVERLAY, 0, STATIC
        ARGFRAME DOVERLAY, 0, STATIC
        FUNCALL SAPI_ProcessEvent, afSetMatch
        LOCFRAME ISTACK, 0, STACK
        LOCFRAME PSTACK, 0, STACK
        LOCFRAME XSTACK, 19, STACK
        LOCFRAME IOVERLAY, 0, STATIC
        LOCFRAME DOVERLAY, 0, STATIC
        ARGFRAME ISTACK, 0, STACK
        ARGFRAME PSTACK, 0, STACK
        ARGFRAME XSTACK, 19, STACK
        ARGFRAME IOVERLAY, 0, STATIC
        ARGFRAME DOVERLAY, 0, STATIC
        FUNCALL SAPI_ProcessEvent, SAPI_BindConfirm
        LOCFRAME ISTACK, 0, STACK
        LOCFRAME PSTACK, 0, STACK
        LOCFRAME XSTACK, 19, STACK
        LOCFRAME IOVERLAY, 0, STATIC
        LOCFRAME DOVERLAY, 0, STATIC
        ARGFRAME ISTACK, 0, STACK
        ARGFRAME PSTACK, 0, STACK
        ARGFRAME XSTACK, 19, STACK
        ARGFRAME IOVERLAY, 0, STATIC
        ARGFRAME DOVERLAY, 0, STATIC
        FUNCALL SAPI_ProcessEvent, zb_HandleOsalEvent
        LOCFRAME ISTACK, 0, STACK
        LOCFRAME PSTACK, 0, STACK
        LOCFRAME XSTACK, 19, STACK
        LOCFRAME IOVERLAY, 0, STATIC
        LOCFRAME DOVERLAY, 0, STATIC
        ARGFRAME ISTACK, 0, STACK
        ARGFRAME PSTACK, 0, STACK
        ARGFRAME XSTACK, 19, STACK
        ARGFRAME IOVERLAY, 0, STATIC
        ARGFRAME DOVERLAY, 0, STATIC
        FUNCALL SAPI_ProcessEvent, HalLedSet
        LOCFRAME ISTACK, 0, STACK
        LOCFRAME PSTACK, 0, STACK
        LOCFRAME XSTACK, 19, STACK
        LOCFRAME IOVERLAY, 0, STATIC
        LOCFRAME DOVERLAY, 0, STATIC
        ARGFRAME ISTACK, 0, STACK
        ARGFRAME PSTACK, 0, STACK
        ARGFRAME XSTACK, 19, STACK
        ARGFRAME IOVERLAY, 0, STATIC
        ARGFRAME DOVERLAY, 0, STATIC
        FUNCALL SAPI_ProcessEvent, zb_ReadConfiguration
        LOCFRAME ISTACK, 0, STACK
        LOCFRAME PSTACK, 0, STACK
        LOCFRAME XSTACK, 19, STACK
        LOCFRAME IOVERLAY, 0, STATIC
        LOCFRAME DOVERLAY, 0, STATIC
        ARGFRAME ISTACK, 0, STACK
        ARGFRAME PSTACK, 0, STACK
        ARGFRAME XSTACK, 19, STACK
        ARGFRAME IOVERLAY, 0, STATIC
        ARGFRAME DOVERLAY, 0, STATIC
        FUNCALL SAPI_ProcessEvent, zb_StartRequest
        LOCFRAME ISTACK, 0, STACK
        LOCFRAME PSTACK, 0, STACK
        LOCFRAME XSTACK, 19, STACK
        LOCFRAME IOVERLAY, 0, STATIC
        LOCFRAME DOVERLAY, 0, STATIC
        ARGFRAME ISTACK, 0, STACK
        ARGFRAME PSTACK, 0, STACK
        ARGFRAME XSTACK, 19, STACK
        ARGFRAME IOVERLAY, 0, STATIC
        ARGFRAME DOVERLAY, 0, STATIC
        FUNCALL SAPI_ProcessEvent, HalLedBlink
        LOCFRAME ISTACK, 0, STACK
        LOCFRAME PSTACK, 0, STACK
        LOCFRAME XSTACK, 19, STACK
        LOCFRAME IOVERLAY, 0, STATIC
        LOCFRAME DOVERLAY, 0, STATIC
        ARGFRAME ISTACK, 0, STACK
        ARGFRAME PSTACK, 0, STACK
        ARGFRAME XSTACK, 19, STACK
        ARGFRAME IOVERLAY, 0, STATIC
        ARGFRAME DOVERLAY, 0, STATIC
        FUNCALL SAPI_ProcessEvent, zb_HandleOsalEvent
        LOCFRAME ISTACK, 0, STACK
        LOCFRAME PSTACK, 0, STACK
        LOCFRAME XSTACK, 19, STACK
        LOCFRAME IOVERLAY, 0, STATIC
        LOCFRAME DOVERLAY, 0, STATIC
        ARGFRAME ISTACK, 0, STACK
        ARGFRAME PSTACK, 0, STACK
        ARGFRAME XSTACK, 19, STACK
        ARGFRAME IOVERLAY, 0, STATIC
        ARGFRAME DOVERLAY, 0, STATIC
        MOV     A,#-0x12
        LCALL   ?BANKED_ENTER_XDATA
        CFI DPH0 load(1, XDATA, add(CFA_XSP16, literal(-1)))
        CFI DPL0 load(1, XDATA, add(CFA_XSP16, literal(-2)))
        CFI ?BRET_EXT load(1, XDATA, add(CFA_XSP16, literal(-3)))
        CFI ?RET_HIGH load(1, XDATA, add(CFA_XSP16, literal(-4)))
        CFI ?RET_LOW load(1, XDATA, add(CFA_XSP16, literal(-5)))
        CFI R7 load(1, XDATA, add(CFA_XSP16, literal(-6)))
        CFI V9 load(1, XDATA, add(CFA_XSP16, literal(-7)))
        CFI V8 load(1, XDATA, add(CFA_XSP16, literal(-8)))
        CFI V7 load(1, XDATA, add(CFA_XSP16, literal(-9)))
        CFI V6 load(1, XDATA, add(CFA_XSP16, literal(-10)))
        CFI V5 load(1, XDATA, add(CFA_XSP16, literal(-11)))
        CFI V4 load(1, XDATA, add(CFA_XSP16, literal(-12)))
        CFI V3 load(1, XDATA, add(CFA_XSP16, literal(-13)))
        CFI V2 load(1, XDATA, add(CFA_XSP16, literal(-14)))
        CFI V1 load(1, XDATA, add(CFA_XSP16, literal(-15)))
        CFI V0 load(1, XDATA, add(CFA_XSP16, literal(-16)))
        CFI VB load(1, XDATA, add(CFA_XSP16, literal(-17)))
        CFI R6 load(1, XDATA, add(CFA_XSP16, literal(-18)))
        CFI CFA_SP SP+0
        CFI CFA_XSP16 add(XSP16, 18)
        ; Saved register size: 18
        ; Auto size: 1
        MOV     A,#-0x1
        LCALL   ?ALLOC_XSTACK8
        CFI CFA_XSP16 add(XSP16, 19)
        MOV     ?V0 + 2,R1
        MOV     ?V0 + 0,R2
        MOV     ?V0 + 1,R3
//  732   osal_event_hdr_t *pMsg;
//  733   afIncomingMSGPacket_t *pMSGpkt;
//  734   afDataConfirm_t *pDataConfirm;
//  735   
//  736   if ( events & SYS_EVENT_MSG )
        MOV     A,?V0 + 0
        ANL     A,#0x0
        MOV     R0,A
        MOV     A,?V0 + 1
        ANL     A,#0x80
        MOV     R1,A
        MOV     A,R0
        ORL     A,R1
        JNZ     $+5
        LJMP    ??SAPI_ProcessEvent_0 & 0xFFFF
//  737   {
//  738     pMsg = (osal_event_hdr_t *) osal_msg_receive( task_id );
        ; Setup parameters for call to function osal_msg_receive
        MOV     R1,?V0 + 2
        LCALL   ??osal_msg_receive?relay
        MOV     ?V0 + 8,R2
        MOV     ?V0 + 9,R3
        MOV     R6,?V0 + 8
        MOV     R7,?V0 + 9
//  739     while ( pMsg )
??SAPI_ProcessEvent_1:
        MOV     A,R6
        ORL     A,R7
        JNZ     $+5
        LJMP    ??SAPI_ProcessEvent_2 & 0xFFFF
//  740     {
//  741       switch ( pMsg->event )
        MOV     DPL,R6
        MOV     DPH,R7
        MOVX    A,@DPTR
        ADD     A,#-0x1a
        JZ      ??SAPI_ProcessEvent_3
        ADD     A,#0x5a
        JNZ     $+5
        LJMP    ??SAPI_ProcessEvent_4 & 0xFFFF
        ADD     A,#-0x11
        JNZ     $+5
        LJMP    ??SAPI_ProcessEvent_5 & 0xFFFF
        DEC     A
        JNZ     $+5
        LJMP    ??SAPI_ProcessEvent_6 & 0xFFFF
        DEC     A
        JZ      ??SAPI_ProcessEvent_7
        ADD     A,#-0xd
        JNZ     $+5
        LJMP    ??SAPI_ProcessEvent_8 & 0xFFFF
        DEC     A
        JNZ     $+5
        LJMP    ??SAPI_ProcessEvent_9 & 0xFFFF
        DEC     A
        JNZ     $+5
        LJMP    ??SAPI_ProcessEvent_10 & 0xFFFF
        ADD     A,#-0x1b
        JZ      ??SAPI_ProcessEvent_11
        LJMP    ??SAPI_ProcessEvent_12 & 0xFFFF
//  742       {
//  743       case ZDO_CB_MSG:
//  744         SAPI_ProcessZDOMsgs( (zdoIncomingMsg_t *)pMsg );
??SAPI_ProcessEvent_7:
        ; Setup parameters for call to function SAPI_ProcessZDOMsgs
        MOV     A,R6
        MOV     R2,A
        MOV     A,R7
        MOV     R3,A
        LCALL   ??SAPI_ProcessZDOMsgs?relay
//  745         break;
        LJMP    ??SAPI_ProcessEvent_12 & 0xFFFF
//  746         
//  747       case AF_DATA_CONFIRM_CMD:
//  748         // This message is received as a confirmation of a data packet sent.
//  749         // The status is of ZStatus_t type [defined in ZComDef.h]
//  750         // The message fields are defined in AF.h
//  751         pDataConfirm = (afDataConfirm_t *) pMsg;
??SAPI_ProcessEvent_11:
        MOV     ?V0 + 6,R6
        MOV     ?V0 + 7,R7
//  752         SAPI_SendDataConfirm( pDataConfirm->transID, pDataConfirm->hdr.status );
        ; Setup parameters for call to function SAPI_SendDataConfirm
        MOV     DPL,?V0 + 6
        MOV     DPH,?V0 + 7
        INC     DPTR
        MOVX    A,@DPTR
        MOV     R2,A
        MOV     DPL,?V0 + 6
        MOV     DPH,?V0 + 7
        INC     DPTR
        INC     DPTR
        INC     DPTR
        MOVX    A,@DPTR
        MOV     R1,A
        LCALL   ??SAPI_SendDataConfirm?relay
//  753         break;
        LJMP    ??SAPI_ProcessEvent_12 & 0xFFFF
//  754         
//  755       case AF_INCOMING_MSG_CMD:
//  756         pMSGpkt = (afIncomingMSGPacket_t *) pMsg;
??SAPI_ProcessEvent_3:
        MOV     ?V0 + 4,R6
        MOV     ?V0 + 5,R7
//  757         SAPI_ReceiveDataIndication( pMSGpkt->srcAddr.addr.shortAddr, pMSGpkt->clusterId,
//  758                                    pMSGpkt->cmd.DataLength, pMSGpkt->cmd.Data);
        ; Setup parameters for call to function SAPI_ReceiveDataIndication
        MOV     A,?V0 + 4
        ADD     A,#0x22
        MOV     DPL,A
        MOV     A,?V0 + 5
        ADDC    A,#0x0
        MOV     DPH,A
        LCALL   ?PUSH_XSTACK8_X_TWO
        CFI CFA_XSP16 add(XSP16, 21)
        MOV     A,?V0 + 4
        ADD     A,#0x20
        MOV     DPL,A
        MOV     A,?V0 + 5
        ADDC    A,#0x0
        MOV     DPH,A
        LCALL   ?PUSH_XSTACK8_X_TWO
        CFI CFA_XSP16 add(XSP16, 23)
        MOV     DPL,?V0 + 4
        MOV     DPH,?V0 + 5
        INC     DPTR
        INC     DPTR
        INC     DPTR
        INC     DPTR
        MOVX    A,@DPTR
        MOV     R4,A
        INC     DPTR
        MOVX    A,@DPTR
        MOV     R5,A
        MOV     DPL,?V0 + 4
        MOV     DPH,?V0 + 5
        INC     DPTR
        INC     DPTR
        INC     DPTR
        INC     DPTR
        INC     DPTR
        INC     DPTR
        MOVX    A,@DPTR
        MOV     R2,A
        INC     DPTR
        MOVX    A,@DPTR
        MOV     R3,A
        LCALL   ??SAPI_ReceiveDataIndication?relay
        MOV     A,#0x4
        LCALL   ?DEALLOC_XSTACK8
        CFI CFA_XSP16 add(XSP16, 19)
//  759         break;
        LJMP    ??SAPI_ProcessEvent_12 & 0xFFFF
//  760         
//  761       case ZDO_STATE_CHANGE:
//  762         // If the device has started up, notify the application
//  763         if (pMsg->status == DEV_END_DEVICE ||
//  764             pMsg->status == DEV_ROUTER ||
//  765               pMsg->status == DEV_ZB_COORD )
??SAPI_ProcessEvent_5:
        MOV     DPL,R6
        MOV     DPH,R7
        INC     DPTR
        MOVX    A,@DPTR
        XRL     A,#0x6
        JZ      ??SAPI_ProcessEvent_13
        MOV     DPL,R6
        MOV     DPH,R7
        INC     DPTR
        MOVX    A,@DPTR
        XRL     A,#0x7
        JZ      ??SAPI_ProcessEvent_13
        MOV     DPL,R6
        MOV     DPH,R7
        INC     DPTR
        MOVX    A,@DPTR
        XRL     A,#0x9
        JNZ     ??SAPI_ProcessEvent_14
//  766         {
//  767           SAPI_StartConfirm( ZB_SUCCESS );
??SAPI_ProcessEvent_13:
        ; Setup parameters for call to function SAPI_StartConfirm
        MOV     R1,#0x0
        LCALL   ??SAPI_StartConfirm?relay
        SJMP    ??SAPI_ProcessEvent_12
//  768         }
//  769         else  if (pMsg->status == DEV_HOLD ||
//  770                   pMsg->status == DEV_INIT)
??SAPI_ProcessEvent_14:
        MOV     DPL,R6
        MOV     DPH,R7
        INC     DPTR
        MOVX    A,@DPTR
        JZ      ??SAPI_ProcessEvent_15
        MOV     DPL,R6
        MOV     DPH,R7
        INC     DPTR
        MOVX    A,@DPTR
        XRL     A,#0x1
        JNZ     ??SAPI_ProcessEvent_12
//  771         {
//  772           SAPI_StartConfirm( ZB_INIT );
??SAPI_ProcessEvent_15:
        ; Setup parameters for call to function SAPI_StartConfirm
        MOV     R1,#0x22
        LCALL   ??SAPI_StartConfirm?relay
//  773         }
//  774         break;
        SJMP    ??SAPI_ProcessEvent_12
//  775         
//  776       case ZDO_MATCH_DESC_RSP_SENT:
//  777         SAPI_AllowBindConfirm( ((ZDO_MatchDescRspSent_t *)pMsg)->nwkAddr );
??SAPI_ProcessEvent_6:
        ; Setup parameters for call to function SAPI_AllowBindConfirm
        MOV     DPL,R6
        MOV     DPH,R7
        INC     DPTR
        INC     DPTR
        MOVX    A,@DPTR
        MOV     R2,A
        INC     DPTR
        MOVX    A,@DPTR
        MOV     R3,A
        LCALL   ??SAPI_AllowBindConfirm?relay
//  778         break;
        SJMP    ??SAPI_ProcessEvent_12
//  779         
//  780       case KEY_CHANGE:
//  781 #if ( SAPI_CB_FUNC )
//  782         zb_HandleKeys( ((keyChange_t *)pMsg)->state, ((keyChange_t *)pMsg)->keys );
??SAPI_ProcessEvent_4:
        ; Setup parameters for call to function zb_HandleKeys
        MOV     DPL,R6
        MOV     DPH,R7
        INC     DPTR
        INC     DPTR
        INC     DPTR
        MOVX    A,@DPTR
        MOV     R2,A
        MOV     DPL,R6
        MOV     DPH,R7
        INC     DPTR
        INC     DPTR
        MOVX    A,@DPTR
        MOV     R1,A
        LCALL   ??zb_HandleKeys?relay
//  783 #endif
//  784         break;
        SJMP    ??SAPI_ProcessEvent_12
//  785         
//  786       case SAPICB_DATA_CNF:
//  787         SAPI_SendDataConfirm( (uint8)((sapi_CbackEvent_t *)pMsg)->data,
//  788                              ((sapi_CbackEvent_t *)pMsg)->hdr.status );
??SAPI_ProcessEvent_8:
        ; Setup parameters for call to function SAPI_SendDataConfirm
        MOV     DPL,R6
        MOV     DPH,R7
        INC     DPTR
        MOVX    A,@DPTR
        MOV     R2,A
        MOV     DPL,R6
        MOV     DPH,R7
        INC     DPTR
        INC     DPTR
        MOVX    A,@DPTR
        MOV     R0,A
        INC     DPTR
        MOVX    A,@DPTR
        MOV     R1,A
        MOV     A,R0
        MOV     R1,A
        LCALL   ??SAPI_SendDataConfirm?relay
//  789         break;
        SJMP    ??SAPI_ProcessEvent_12
//  790         
//  791       case SAPICB_BIND_CNF:
//  792         SAPI_BindConfirm( ((sapi_CbackEvent_t *)pMsg)->data,
//  793                          ((sapi_CbackEvent_t *)pMsg)->hdr.status );
??SAPI_ProcessEvent_9:
        ; Setup parameters for call to function SAPI_BindConfirm
        MOV     DPL,R6
        MOV     DPH,R7
        INC     DPTR
        MOVX    A,@DPTR
        MOV     R1,A
        MOV     DPL,R6
        MOV     DPH,R7
        INC     DPTR
        INC     DPTR
        MOVX    A,@DPTR
        MOV     R2,A
        INC     DPTR
        MOVX    A,@DPTR
        MOV     R3,A
        LCALL   ??SAPI_BindConfirm?relay
//  794         break;
        SJMP    ??SAPI_ProcessEvent_12
//  795         
//  796       case SAPICB_START_CNF:
//  797         SAPI_StartConfirm( ((sapi_CbackEvent_t *)pMsg)->hdr.status );
??SAPI_ProcessEvent_10:
        ; Setup parameters for call to function SAPI_StartConfirm
        MOV     DPL,R6
        MOV     DPH,R7
        INC     DPTR
        MOVX    A,@DPTR
        MOV     R1,A
        LCALL   ??SAPI_StartConfirm?relay
//  798         break;
//  799         
//  800       default:
//  801         // User messages should be handled by user or passed to the application
//  802         if ( pMsg->event >= ZB_USER_MSG )
//  803         {
//  804           
//  805         }
//  806         break;
//  807       }
//  808       
//  809       // Release the memory
//  810       osal_msg_deallocate( (uint8 *) pMsg );
??SAPI_ProcessEvent_12:
        ; Setup parameters for call to function osal_msg_deallocate
        MOV     A,R6
        MOV     R2,A
        MOV     A,R7
        MOV     R3,A
        LCALL   ??osal_msg_deallocate?relay
        MOV     A,R1
//  811       
//  812       // Next
//  813       pMsg = (osal_event_hdr_t *) osal_msg_receive( task_id );
        ; Setup parameters for call to function osal_msg_receive
        MOV     R1,?V0 + 2
        LCALL   ??osal_msg_receive?relay
        MOV     ?V0 + 8,R2
        MOV     ?V0 + 9,R3
        MOV     R6,?V0 + 8
        MOV     R7,?V0 + 9
        LJMP    ??SAPI_ProcessEvent_1 & 0xFFFF
//  814     }
//  815     
//  816     // Return unprocessed events
//  817     return (events ^ SYS_EVENT_MSG);
??SAPI_ProcessEvent_2:
        MOV     A,?V0 + 0
        XRL     A,#0x0
        MOV     R2,A
        MOV     A,?V0 + 1
        XRL     A,#0x80
        MOV     R3,A
        LJMP    ??SAPI_ProcessEvent_16 & 0xFFFF
//  818   }
//  819   
//  820   if ( events & ZB_ALLOW_BIND_TIMER )
??SAPI_ProcessEvent_0:
        MOV     A,?V0 + 0
        ANL     A,#0x0
        MOV     R0,A
        MOV     A,?V0 + 1
        ANL     A,#0x40
        MOV     R1,A
        MOV     A,R0
        ORL     A,R1
        JZ      ??SAPI_ProcessEvent_17
//  821   {
//  822     afSetMatch(sapi_epDesc.simpleDesc->EndPoint, FALSE);
        ; Setup parameters for call to function afSetMatch
        MOV     R2,#0x0
        MOV     DPTR,#sapi_epDesc + 3
        MOVX    A,@DPTR
        MOV     R0,A
        INC     DPTR
        MOVX    A,@DPTR
        MOV     DPH,A
        MOV     DPL,R0
        MOVX    A,@DPTR
        MOV     R1,A
        LCALL   ??afSetMatch?relay
        MOV     A,R1
//  823     return (events ^ ZB_ALLOW_BIND_TIMER);
        MOV     A,?V0 + 0
        XRL     A,#0x0
        MOV     R2,A
        MOV     A,?V0 + 1
        XRL     A,#0x40
        MOV     R3,A
        LJMP    ??SAPI_ProcessEvent_16 & 0xFFFF
//  824   }
//  825   
//  826   if ( events & ZB_BIND_TIMER )
??SAPI_ProcessEvent_17:
        MOV     A,?V0 + 0
        ANL     A,#0x0
        MOV     R0,A
        MOV     A,?V0 + 1
        ANL     A,#0x20
        MOV     R1,A
        MOV     A,R0
        ORL     A,R1
        JZ      ??SAPI_ProcessEvent_18
//  827   {
//  828     // Send bind confirm callback to application
//  829     SAPI_BindConfirm( sapi_bindInProgress, ZB_TIMEOUT );
        ; Setup parameters for call to function SAPI_BindConfirm
        MOV     R1,#0x21
        MOV     DPTR,#sapi_bindInProgress
        MOVX    A,@DPTR
        MOV     R2,A
        INC     DPTR
        MOVX    A,@DPTR
        MOV     R3,A
        LCALL   ??SAPI_BindConfirm?relay
//  830     sapi_bindInProgress = 0xffff;
        MOV     DPTR,#sapi_bindInProgress
        MOV     A,#-0x1
        MOVX    @DPTR,A
        INC     DPTR
        MOV     A,#-0x1
        MOVX    @DPTR,A
//  831     
//  832     return (events ^ ZB_BIND_TIMER);
        MOV     A,?V0 + 0
        XRL     A,#0x0
        MOV     R2,A
        MOV     A,?V0 + 1
        XRL     A,#0x20
        MOV     R3,A
        SJMP    ??SAPI_ProcessEvent_16
//  833   }
//  834   
//  835   if ( events & ZB_ENTRY_EVENT )
??SAPI_ProcessEvent_18:
        MOV     A,?V0 + 0
        ANL     A,#0x0
        MOV     R0,A
        MOV     A,?V0 + 1
        ANL     A,#0x10
        MOV     R1,A
        MOV     A,R0
        ORL     A,R1
        JZ      ??SAPI_ProcessEvent_19
//  836   {
//  837     uint8 startOptions;
//  838     
//  839     // Give indication to application of device startup
//  840 #if ( SAPI_CB_FUNC )
//  841     zb_HandleOsalEvent( ZB_ENTRY_EVENT );
        ; Setup parameters for call to function zb_HandleOsalEvent
        MOV     R2,#0x0
        MOV     R3,#0x10
        LCALL   ??zb_HandleOsalEvent?relay
//  842 #endif
//  843     
//  844     // LED off cancels HOLD_AUTO_START blink set in the stack
//  845     HalLedSet (HAL_LED_4, HAL_LED_MODE_OFF);
        ; Setup parameters for call to function HalLedSet
        MOV     R2,#0x0
        MOV     R1,#0x8
        LCALL   ??HalLedSet?relay
        MOV     A,R1
//  846     
//  847     zb_ReadConfiguration( ZCD_NV_STARTUP_OPTION, sizeof(uint8), &startOptions );
        ; Setup parameters for call to function zb_ReadConfiguration
        MOV     DPL,?XSP + 0
        MOV     DPH,?XSP + 1
        MOV     R4,DPL
        MOV     R5,DPH
        MOV     R2,#0x1
        MOV     R1,#0x3
        LCALL   ??zb_ReadConfiguration?relay
        MOV     A,R1
//  848     if ( startOptions & ZCD_STARTOPT_AUTO_START )
        MOV     DPL,?XSP + 0
        MOV     DPH,?XSP + 1
        MOVX    A,@DPTR
        MOV     C,0xE0 /* A   */.2
        JNC     ??SAPI_ProcessEvent_20
//  849     {
//  850       zb_StartRequest();
        ; Setup parameters for call to function zb_StartRequest
        LCALL   ??zb_StartRequest?relay
        SJMP    ??SAPI_ProcessEvent_21
//  851     }
//  852     else
//  853     {
//  854       // blink leds and wait for external input to config and restart
//  855       HalLedBlink(HAL_LED_2, 0, 50, 500);
??SAPI_ProcessEvent_20:
        ; Setup parameters for call to function HalLedBlink
        MOV     R4,#-0xc
        MOV     R5,#0x1
        MOV     R3,#0x32
        MOV     R2,#0x0
        MOV     R1,#0x2
        LCALL   ??HalLedBlink?relay
//  856     }
//  857     
//  858     return (events ^ ZB_ENTRY_EVENT );
??SAPI_ProcessEvent_21:
        MOV     A,?V0 + 0
        XRL     A,#0x0
        MOV     R2,A
        MOV     A,?V0 + 1
        XRL     A,#0x10
        MOV     R3,A
        SJMP    ??SAPI_ProcessEvent_16
//  859   }
//  860   
//  861   // This must be the last event to be processed
//  862   if ( events & ( ZB_USER_EVENTS ) )
??SAPI_ProcessEvent_19:
        MOV     A,?V0 + 0
        ANL     A,#0xff
        JZ      ??SAPI_ProcessEvent_22
//  863   {
//  864     // User events are passed to the application
//  865 #if ( SAPI_CB_FUNC )
//  866     zb_HandleOsalEvent( events );
        ; Setup parameters for call to function zb_HandleOsalEvent
        MOV     R2,?V0 + 0
        MOV     R3,?V0 + 1
        LCALL   ??zb_HandleOsalEvent?relay
//  867 #endif
//  868     
//  869     // Do not return here, return 0 later
//  870   }
//  871   
//  872   // Discard unknown events
//  873   return 0;
??SAPI_ProcessEvent_22:
        MOV     R2,#0x0
        MOV     R3,#0x0
??SAPI_ProcessEvent_16:
        MOV     A,#0x1
        LCALL   ?DEALLOC_XSTACK8
        CFI CFA_XSP16 add(XSP16, 18)
        MOV     R7,#0xa
        LJMP    ?BANKED_LEAVE_XDATA
        CFI EndBlock cfiBlock16
//  874 }
//  875 
//  876 /*********************************************************************
//  877 * @fn      SAPI_ProcessZDOMsgs()
//  878 *
//  879 * @brief   Process response messages
//  880 *
//  881 * @param   none
//  882 *
//  883 * @return  none
//  884 */

        RSEG BANKED_CODE:CODE:NOROOT(0)
//  885 void SAPI_ProcessZDOMsgs( zdoIncomingMsg_t *inMsg )
SAPI_ProcessZDOMsgs:
        CFI Block cfiBlock17 Using cfiCommon0
        CFI Function SAPI_ProcessZDOMsgs
        CODE
//  886 {
        FUNCALL SAPI_ProcessZDOMsgs, ZDO_ParseAddrRsp
        LOCFRAME ISTACK, 0, STACK
        LOCFRAME PSTACK, 0, STACK
        LOCFRAME XSTACK, 21, STACK
        LOCFRAME IOVERLAY, 0, STATIC
        LOCFRAME DOVERLAY, 0, STATIC
        ARGFRAME ISTACK, 0, STACK
        ARGFRAME PSTACK, 0, STACK
        ARGFRAME XSTACK, 21, STACK
        ARGFRAME IOVERLAY, 0, STATIC
        ARGFRAME DOVERLAY, 0, STATIC
        FUNCALL SAPI_ProcessZDOMsgs, SAPI_FindDeviceConfirm
        LOCFRAME ISTACK, 0, STACK
        LOCFRAME PSTACK, 0, STACK
        LOCFRAME XSTACK, 21, STACK
        LOCFRAME IOVERLAY, 0, STATIC
        LOCFRAME DOVERLAY, 0, STATIC
        ARGFRAME ISTACK, 0, STACK
        ARGFRAME PSTACK, 0, STACK
        ARGFRAME XSTACK, 21, STACK
        ARGFRAME IOVERLAY, 0, STATIC
        ARGFRAME DOVERLAY, 0, STATIC
        FUNCALL SAPI_ProcessZDOMsgs, ZDO_ParseEPListRsp
        LOCFRAME ISTACK, 0, STACK
        LOCFRAME PSTACK, 0, STACK
        LOCFRAME XSTACK, 21, STACK
        LOCFRAME IOVERLAY, 0, STATIC
        LOCFRAME DOVERLAY, 0, STATIC
        ARGFRAME ISTACK, 0, STACK
        ARGFRAME PSTACK, 0, STACK
        ARGFRAME XSTACK, 21, STACK
        ARGFRAME IOVERLAY, 0, STATIC
        ARGFRAME DOVERLAY, 0, STATIC
        FUNCALL SAPI_ProcessZDOMsgs, APSME_BindRequest
        LOCFRAME ISTACK, 0, STACK
        LOCFRAME PSTACK, 0, STACK
        LOCFRAME XSTACK, 22, STACK
        LOCFRAME IOVERLAY, 0, STATIC
        LOCFRAME DOVERLAY, 0, STATIC
        ARGFRAME ISTACK, 0, STACK
        ARGFRAME PSTACK, 0, STACK
        ARGFRAME XSTACK, 22, STACK
        ARGFRAME IOVERLAY, 0, STATIC
        ARGFRAME DOVERLAY, 0, STATIC
        FUNCALL SAPI_ProcessZDOMsgs, osal_stop_timerEx
        LOCFRAME ISTACK, 0, STACK
        LOCFRAME PSTACK, 0, STACK
        LOCFRAME XSTACK, 21, STACK
        LOCFRAME IOVERLAY, 0, STATIC
        LOCFRAME DOVERLAY, 0, STATIC
        ARGFRAME ISTACK, 0, STACK
        ARGFRAME PSTACK, 0, STACK
        ARGFRAME XSTACK, 21, STACK
        ARGFRAME IOVERLAY, 0, STATIC
        ARGFRAME DOVERLAY, 0, STATIC
        FUNCALL SAPI_ProcessZDOMsgs, osal_start_timerEx
        LOCFRAME ISTACK, 0, STACK
        LOCFRAME PSTACK, 0, STACK
        LOCFRAME XSTACK, 21, STACK
        LOCFRAME IOVERLAY, 0, STATIC
        LOCFRAME DOVERLAY, 0, STATIC
        ARGFRAME ISTACK, 0, STACK
        ARGFRAME PSTACK, 0, STACK
        ARGFRAME XSTACK, 21, STACK
        ARGFRAME IOVERLAY, 0, STATIC
        ARGFRAME DOVERLAY, 0, STATIC
        FUNCALL SAPI_ProcessZDOMsgs, ZDP_IEEEAddrReq
        LOCFRAME ISTACK, 0, STACK
        LOCFRAME PSTACK, 0, STACK
        LOCFRAME XSTACK, 21, STACK
        LOCFRAME IOVERLAY, 0, STATIC
        LOCFRAME DOVERLAY, 0, STATIC
        ARGFRAME ISTACK, 0, STACK
        ARGFRAME PSTACK, 0, STACK
        ARGFRAME XSTACK, 21, STACK
        ARGFRAME IOVERLAY, 0, STATIC
        ARGFRAME DOVERLAY, 0, STATIC
        FUNCALL SAPI_ProcessZDOMsgs, zb_BindConfirm
        LOCFRAME ISTACK, 0, STACK
        LOCFRAME PSTACK, 0, STACK
        LOCFRAME XSTACK, 21, STACK
        LOCFRAME IOVERLAY, 0, STATIC
        LOCFRAME DOVERLAY, 0, STATIC
        ARGFRAME ISTACK, 0, STACK
        ARGFRAME PSTACK, 0, STACK
        ARGFRAME XSTACK, 21, STACK
        ARGFRAME IOVERLAY, 0, STATIC
        ARGFRAME DOVERLAY, 0, STATIC
        MOV     A,#-0xc
        LCALL   ?BANKED_ENTER_XDATA
        CFI DPH0 load(1, XDATA, add(CFA_XSP16, literal(-1)))
        CFI DPL0 load(1, XDATA, add(CFA_XSP16, literal(-2)))
        CFI ?BRET_EXT load(1, XDATA, add(CFA_XSP16, literal(-3)))
        CFI ?RET_HIGH load(1, XDATA, add(CFA_XSP16, literal(-4)))
        CFI ?RET_LOW load(1, XDATA, add(CFA_XSP16, literal(-5)))
        CFI R7 load(1, XDATA, add(CFA_XSP16, literal(-6)))
        CFI V3 load(1, XDATA, add(CFA_XSP16, literal(-7)))
        CFI V2 load(1, XDATA, add(CFA_XSP16, literal(-8)))
        CFI V1 load(1, XDATA, add(CFA_XSP16, literal(-9)))
        CFI V0 load(1, XDATA, add(CFA_XSP16, literal(-10)))
        CFI VB load(1, XDATA, add(CFA_XSP16, literal(-11)))
        CFI R6 load(1, XDATA, add(CFA_XSP16, literal(-12)))
        CFI CFA_SP SP+0
        CFI CFA_XSP16 add(XSP16, 12)
        ; Saved register size: 12
        ; Auto size: 9
        MOV     A,#-0x9
        LCALL   ?ALLOC_XSTACK8
        CFI CFA_XSP16 add(XSP16, 21)
        MOV     ?V0 + 0,R2
        MOV     ?V0 + 1,R3
//  887   switch ( inMsg->clusterID )
        MOV     A,?V0 + 0
        ADD     A,#0xc
        MOV     DPL,A
        MOV     A,?V0 + 1
        ADDC    A,#0x0
        MOV     DPH,A
        MOVX    A,@DPTR
        MOV     ?V0 + 2,A
        INC     DPTR
        MOVX    A,@DPTR
        MOV     ?V0 + 3,A
        MOV     R0,#?V0 + 2
        LCALL   ?US_SWITCH_SPARSE
`?<Jumptable for SAPI_ProcessZDOMsgs>_0`:
        DATA
        DATA16
        DATA
        DATA16
        DATA
        DATA16
        DW        0
        DATA
        DATA16
        DATA
        DATA16
        DATA
        DATA16
        DW        2
        DATA
        DATA16
        DATA
        DATA16
        DATA
        DATA16
        DW        32768
        DATA
        DATA16
        DATA
        DATA16
        DATA
        DATA16
        DW        ??SAPI_ProcessZDOMsgs_0
        DATA
        DATA16
        DATA
        DATA16
        DATA
        DATA16
        DW        32774
        DATA
        DATA16
        DATA
        DATA16
        DATA
        DATA16
        DW        ??SAPI_ProcessZDOMsgs_1
        DATA
        DATA16
        DATA
        DATA16
        DW        ??SAPI_ProcessZDOMsgs_2
        CODE
//  888   {
//  889   case NWK_addr_rsp:
//  890     {
//  891       // Send find device callback to application
//  892       ZDO_NwkIEEEAddrResp_t *pNwkAddrRsp = ZDO_ParseAddrRsp( inMsg );
??SAPI_ProcessZDOMsgs_0:
        ; Setup parameters for call to function ZDO_ParseAddrRsp
        MOV     R2,?V0 + 0
        MOV     R3,?V0 + 1
        LCALL   ??ZDO_ParseAddrRsp?relay
        MOV     ?V0 + 2,R2
        MOV     ?V0 + 3,R3
        MOV     R6,?V0 + 2
        MOV     R7,?V0 + 3
//  893       SAPI_FindDeviceConfirm( ZB_IEEE_SEARCH, (uint8*)&pNwkAddrRsp->nwkAddr, pNwkAddrRsp->extAddr );
        ; Setup parameters for call to function SAPI_FindDeviceConfirm
        MOV     A,R6
        ADD     A,#0x3
        MOV     R4,A
        MOV     A,R7
        ADDC    A,#0x0
        MOV     R5,A
        MOV     DPL,R6
        MOV     DPH,R7
        INC     DPTR
        MOV     R2,DPL
        MOV     R3,DPH
        MOV     R1,#0x1
        LCALL   ??SAPI_FindDeviceConfirm?relay
//  894     }
//  895     break;
        LJMP    ??SAPI_ProcessZDOMsgs_2 & 0xFFFF
//  896     
//  897   case Match_Desc_rsp:
//  898     {
//  899       zAddrType_t dstAddr;
//  900       ZDO_ActiveEndpointRsp_t *pRsp = ZDO_ParseEPListRsp( inMsg );
??SAPI_ProcessZDOMsgs_1:
        ; Setup parameters for call to function ZDO_ParseEPListRsp
        MOV     R2,?V0 + 0
        MOV     R3,?V0 + 1
        LCALL   ??ZDO_ParseEPListRsp?relay
        MOV     ?V0 + 2,R2
        MOV     ?V0 + 3,R3
        MOV     R6,?V0 + 2
        MOV     R7,?V0 + 3
//  901       
//  902       if ( sapi_bindInProgress != 0xffff )
        MOV     DPTR,#sapi_bindInProgress
        MOVX    A,@DPTR
        XRL     A,#0xff
        JNZ     ??SAPI_ProcessZDOMsgs_3
        INC     DPTR
        MOVX    A,@DPTR
        XRL     A,#0xff
??SAPI_ProcessZDOMsgs_3:
        JNZ     $+5
        LJMP    ??SAPI_ProcessZDOMsgs_2 & 0xFFFF
//  903       {
//  904         // Create a binding table entry
//  905         dstAddr.addrMode = Addr16Bit;
        MOV     A,#0x8
        LCALL   ?XSTACK_DISP0_8
        MOV     A,#0x2
        MOVX    @DPTR,A
//  906         dstAddr.addr.shortAddr = pRsp->nwkAddr;
        MOV     DPL,R6
        MOV     DPH,R7
        INC     DPTR
        MOVX    A,@DPTR
        MOV     R0,A
        INC     DPTR
        MOVX    A,@DPTR
        MOV     R1,A
        MOV     DPL,?XSP + 0
        MOV     DPH,?XSP + 1
        MOV     A,R0
        MOVX    @DPTR,A
        INC     DPTR
        MOV     A,R1
        MOVX    @DPTR,A
//  907         
//  908         if ( APSME_BindRequest( sapi_epDesc.simpleDesc->EndPoint,
//  909                                sapi_bindInProgress, &dstAddr, pRsp->epList[0] ) == ZSuccess )
        ; Setup parameters for call to function APSME_BindRequest
        MOV     DPL,R6
        MOV     DPH,R7
        INC     DPTR
        INC     DPTR
        INC     DPTR
        INC     DPTR
        MOVX    A,@DPTR
        MOV     ?V0 + 2,A
        MOV     R0,#?V0 + 2
        LCALL   ?PUSH_XSTACK_I_ONE
        CFI CFA_XSP16 add(XSP16, 22)
        MOV     A,#0x1
        LCALL   ?XSTACK_DISP0_8
        MOV     R4,DPL
        MOV     R5,DPH
        MOV     DPTR,#sapi_bindInProgress
        MOVX    A,@DPTR
        MOV     R2,A
        INC     DPTR
        MOVX    A,@DPTR
        MOV     R3,A
        MOV     DPTR,#sapi_epDesc + 3
        MOVX    A,@DPTR
        MOV     R0,A
        INC     DPTR
        MOVX    A,@DPTR
        MOV     DPH,A
        MOV     DPL,R0
        MOVX    A,@DPTR
        MOV     R1,A
        LCALL   ??APSME_BindRequest?relay
        MOV     A,#0x1
        LCALL   ?DEALLOC_XSTACK8
        CFI CFA_XSP16 add(XSP16, 21)
        MOV     A,R1
        JNZ     ??SAPI_ProcessZDOMsgs_2
//  910         {
//  911           osal_stop_timerEx(sapi_TaskID,  ZB_BIND_TIMER);
        ; Setup parameters for call to function osal_stop_timerEx
        MOV     R2,#0x0
        MOV     R3,#0x20
        MOV     DPTR,#sapi_TaskID
        MOVX    A,@DPTR
        MOV     R1,A
        LCALL   ??osal_stop_timerEx?relay
        MOV     A,R1
//  912           osal_start_timerEx( ZDAppTaskID, ZDO_NWK_UPDATE_NV, 250 );
        ; Setup parameters for call to function osal_start_timerEx
        MOV     R4,#-0x6
        MOV     R5,#0x0
        MOV     R2,#0x0
        MOV     R3,#0x2
        MOV     DPTR,#ZDAppTaskID
        MOVX    A,@DPTR
        MOV     R1,A
        LCALL   ??osal_start_timerEx?relay
        MOV     A,R1
//  913           
//  914           // Find IEEE addr
//  915           ZDP_IEEEAddrReq( pRsp->nwkAddr, ZDP_ADDR_REQTYPE_SINGLE, 0, 0 );
        ; Setup parameters for call to function ZDP_IEEEAddrReq
        MOV     R5,#0x0
        MOV     R4,#0x0
        MOV     R1,#0x0
        MOV     DPL,R6
        MOV     DPH,R7
        INC     DPTR
        MOVX    A,@DPTR
        MOV     R2,A
        INC     DPTR
        MOVX    A,@DPTR
        MOV     R3,A
        LCALL   ??ZDP_IEEEAddrReq?relay
        MOV     A,R1
//  916 #if defined ( MT_SAPI_CB_FUNC )
//  917           zb_MTCallbackBindConfirm( sapi_bindInProgress, ZB_SUCCESS );
//  918 #endif              
//  919           // Send bind confirm callback to application
//  920 #if ( SAPI_CB_FUNC )
//  921           zb_BindConfirm( sapi_bindInProgress, ZB_SUCCESS );
        ; Setup parameters for call to function zb_BindConfirm
        MOV     R1,#0x0
        MOV     DPTR,#sapi_bindInProgress
        MOVX    A,@DPTR
        MOV     R2,A
        INC     DPTR
        MOVX    A,@DPTR
        MOV     R3,A
        LCALL   ??zb_BindConfirm?relay
//  922 #endif
//  923           sapi_bindInProgress = 0xffff;
        MOV     DPTR,#sapi_bindInProgress
        MOV     A,#-0x1
        MOVX    @DPTR,A
        INC     DPTR
        MOV     A,#-0x1
        MOVX    @DPTR,A
//  924         }
//  925       }
//  926     }
//  927     break;
//  928   }
//  929 }
??SAPI_ProcessZDOMsgs_2:
        MOV     A,#0x9
        LCALL   ?DEALLOC_XSTACK8
        CFI CFA_XSP16 add(XSP16, 12)
        MOV     R7,#0x4
        LJMP    ?BANKED_LEAVE_XDATA
        CFI EndBlock cfiBlock17
//  930 
//  931 /*********************************************************************
//  932 * @fn      SAPI_Init
//  933 *
//  934 * @brief   Initialization function for the Simple API Task.
//  935 *          This is called during initialization and should contain
//  936 *          any application specific initialization (ie. hardware
//  937 *          initialization/setup, table initialization, power up
//  938 *          notification ... ).
//  939 *
//  940 * @param   task_id - the ID assigned by OSAL.  This ID should be
//  941 *                    used to send messages and set timers.
//  942 *
//  943 * @return  none
//  944 */

        RSEG BANKED_CODE:CODE:NOROOT(0)
//  945 void SAPI_Init( byte task_id )
SAPI_Init:
        CFI Block cfiBlock18 Using cfiCommon0
        CFI Function SAPI_Init
        CODE
//  946 {
        FUNCALL SAPI_Init, afRegister
        LOCFRAME ISTACK, 0, STACK
        LOCFRAME PSTACK, 0, STACK
        LOCFRAME XSTACK, 10, STACK
        LOCFRAME IOVERLAY, 0, STATIC
        LOCFRAME DOVERLAY, 0, STATIC
        ARGFRAME ISTACK, 0, STACK
        ARGFRAME PSTACK, 0, STACK
        ARGFRAME XSTACK, 10, STACK
        ARGFRAME IOVERLAY, 0, STATIC
        ARGFRAME DOVERLAY, 0, STATIC
        FUNCALL SAPI_Init, afSetMatch
        LOCFRAME ISTACK, 0, STACK
        LOCFRAME PSTACK, 0, STACK
        LOCFRAME XSTACK, 10, STACK
        LOCFRAME IOVERLAY, 0, STATIC
        LOCFRAME DOVERLAY, 0, STATIC
        ARGFRAME ISTACK, 0, STACK
        ARGFRAME PSTACK, 0, STACK
        ARGFRAME XSTACK, 10, STACK
        ARGFRAME IOVERLAY, 0, STATIC
        ARGFRAME DOVERLAY, 0, STATIC
        FUNCALL SAPI_Init, ZDO_RegisterForZDOMsg
        LOCFRAME ISTACK, 0, STACK
        LOCFRAME PSTACK, 0, STACK
        LOCFRAME XSTACK, 10, STACK
        LOCFRAME IOVERLAY, 0, STATIC
        LOCFRAME DOVERLAY, 0, STATIC
        ARGFRAME ISTACK, 0, STACK
        ARGFRAME PSTACK, 0, STACK
        ARGFRAME XSTACK, 10, STACK
        ARGFRAME IOVERLAY, 0, STATIC
        ARGFRAME DOVERLAY, 0, STATIC
        FUNCALL SAPI_Init, ZDO_RegisterForZDOMsg
        LOCFRAME ISTACK, 0, STACK
        LOCFRAME PSTACK, 0, STACK
        LOCFRAME XSTACK, 10, STACK
        LOCFRAME IOVERLAY, 0, STATIC
        LOCFRAME DOVERLAY, 0, STATIC
        ARGFRAME ISTACK, 0, STACK
        ARGFRAME PSTACK, 0, STACK
        ARGFRAME XSTACK, 10, STACK
        ARGFRAME IOVERLAY, 0, STATIC
        ARGFRAME DOVERLAY, 0, STATIC
        FUNCALL SAPI_Init, RegisterForKeys
        LOCFRAME ISTACK, 0, STACK
        LOCFRAME PSTACK, 0, STACK
        LOCFRAME XSTACK, 10, STACK
        LOCFRAME IOVERLAY, 0, STATIC
        LOCFRAME DOVERLAY, 0, STATIC
        ARGFRAME ISTACK, 0, STACK
        ARGFRAME PSTACK, 0, STACK
        ARGFRAME XSTACK, 10, STACK
        ARGFRAME IOVERLAY, 0, STATIC
        ARGFRAME DOVERLAY, 0, STATIC
        FUNCALL SAPI_Init, HalKeyRead
        LOCFRAME ISTACK, 0, STACK
        LOCFRAME PSTACK, 0, STACK
        LOCFRAME XSTACK, 10, STACK
        LOCFRAME IOVERLAY, 0, STATIC
        LOCFRAME DOVERLAY, 0, STATIC
        ARGFRAME ISTACK, 0, STACK
        ARGFRAME PSTACK, 0, STACK
        ARGFRAME XSTACK, 10, STACK
        ARGFRAME IOVERLAY, 0, STATIC
        ARGFRAME DOVERLAY, 0, STATIC
        FUNCALL SAPI_Init, zb_WriteConfiguration
        LOCFRAME ISTACK, 0, STACK
        LOCFRAME PSTACK, 0, STACK
        LOCFRAME XSTACK, 10, STACK
        LOCFRAME IOVERLAY, 0, STATIC
        LOCFRAME DOVERLAY, 0, STATIC
        ARGFRAME ISTACK, 0, STACK
        ARGFRAME PSTACK, 0, STACK
        ARGFRAME XSTACK, 10, STACK
        ARGFRAME IOVERLAY, 0, STATIC
        ARGFRAME DOVERLAY, 0, STATIC
        FUNCALL SAPI_Init, zb_SystemReset
        LOCFRAME ISTACK, 0, STACK
        LOCFRAME PSTACK, 0, STACK
        LOCFRAME XSTACK, 10, STACK
        LOCFRAME IOVERLAY, 0, STATIC
        LOCFRAME DOVERLAY, 0, STATIC
        ARGFRAME ISTACK, 0, STACK
        ARGFRAME PSTACK, 0, STACK
        ARGFRAME XSTACK, 10, STACK
        ARGFRAME IOVERLAY, 0, STATIC
        ARGFRAME DOVERLAY, 0, STATIC
        FUNCALL SAPI_Init, osal_set_event
        LOCFRAME ISTACK, 0, STACK
        LOCFRAME PSTACK, 0, STACK
        LOCFRAME XSTACK, 10, STACK
        LOCFRAME IOVERLAY, 0, STATIC
        LOCFRAME DOVERLAY, 0, STATIC
        ARGFRAME ISTACK, 0, STACK
        ARGFRAME PSTACK, 0, STACK
        ARGFRAME XSTACK, 10, STACK
        ARGFRAME IOVERLAY, 0, STATIC
        ARGFRAME DOVERLAY, 0, STATIC
        MOV     A,#-0x9
        LCALL   ?BANKED_ENTER_XDATA
        CFI DPH0 load(1, XDATA, add(CFA_XSP16, literal(-1)))
        CFI DPL0 load(1, XDATA, add(CFA_XSP16, literal(-2)))
        CFI ?BRET_EXT load(1, XDATA, add(CFA_XSP16, literal(-3)))
        CFI ?RET_HIGH load(1, XDATA, add(CFA_XSP16, literal(-4)))
        CFI ?RET_LOW load(1, XDATA, add(CFA_XSP16, literal(-5)))
        CFI R7 load(1, XDATA, add(CFA_XSP16, literal(-6)))
        CFI V0 load(1, XDATA, add(CFA_XSP16, literal(-7)))
        CFI VB load(1, XDATA, add(CFA_XSP16, literal(-8)))
        CFI R6 load(1, XDATA, add(CFA_XSP16, literal(-9)))
        CFI CFA_SP SP+0
        CFI CFA_XSP16 add(XSP16, 9)
        ; Saved register size: 9
        ; Auto size: 1
        MOV     A,#-0x1
        LCALL   ?ALLOC_XSTACK8
        CFI CFA_XSP16 add(XSP16, 10)
        MOV     A,R1
        MOV     R6,A
//  947   sapi_TaskID = task_id;
        MOV     A,R6
        MOV     DPTR,#sapi_TaskID
        MOVX    @DPTR,A
//  948   sapi_bindInProgress = 0xffff;
        MOV     DPTR,#sapi_bindInProgress
        MOV     A,#-0x1
        MOVX    @DPTR,A
        INC     DPTR
        MOV     A,#-0x1
        MOVX    @DPTR,A
//  949   
//  950   sapi_epDesc.task_id = &sapi_TaskID;
        MOV     DPTR,#sapi_epDesc + 1
        MOV     A,#sapi_TaskID & 0xff
        MOVX    @DPTR,A
        INC     DPTR
        MOV     A,#(sapi_TaskID >> 8) & 0xff
        MOVX    @DPTR,A
//  951   sapi_epDesc.endPoint = 0;
        MOV     DPTR,#sapi_epDesc
        MOV     A,#0x0
        MOVX    @DPTR,A
//  952   
//  953 #if ( SAPI_CB_FUNC )
//  954   sapi_epDesc.endPoint = zb_SimpleDesc.EndPoint;
        MOV     DPTR,#zb_SimpleDesc
        MOVX    A,@DPTR
        MOV     DPTR,#sapi_epDesc
        MOVX    @DPTR,A
//  955   sapi_epDesc.task_id = &sapi_TaskID;
        MOV     DPTR,#sapi_epDesc + 1
        MOV     A,#sapi_TaskID & 0xff
        MOVX    @DPTR,A
        INC     DPTR
        MOV     A,#(sapi_TaskID >> 8) & 0xff
        MOVX    @DPTR,A
//  956   sapi_epDesc.simpleDesc = (SimpleDescriptionFormat_t *)&zb_SimpleDesc;
        MOV     DPTR,#sapi_epDesc + 3
        MOV     A,#zb_SimpleDesc & 0xff
        MOVX    @DPTR,A
        INC     DPTR
        MOV     A,#(zb_SimpleDesc >> 8) & 0xff
        MOVX    @DPTR,A
//  957   sapi_epDesc.latencyReq = noLatencyReqs;
        MOV     DPTR,#sapi_epDesc + 5
        MOV     A,#0x0
        MOVX    @DPTR,A
//  958   
//  959   // Register the endpoint/interface description with the AF
//  960   afRegister( &sapi_epDesc );
        ; Setup parameters for call to function afRegister
        MOV     R2,#sapi_epDesc & 0xff
        MOV     R3,#(sapi_epDesc >> 8) & 0xff
        LCALL   ??afRegister?relay
        MOV     A,R1
//  961 #endif
//  962   
//  963   // Turn off match descriptor response by default
//  964   afSetMatch(sapi_epDesc.simpleDesc->EndPoint, FALSE);
        ; Setup parameters for call to function afSetMatch
        MOV     R2,#0x0
        MOV     DPTR,#sapi_epDesc + 3
        MOVX    A,@DPTR
        MOV     R0,A
        INC     DPTR
        MOVX    A,@DPTR
        MOV     DPH,A
        MOV     DPL,R0
        MOVX    A,@DPTR
        MOV     R1,A
        LCALL   ??afSetMatch?relay
        MOV     A,R1
//  965   
//  966   // Register callback evetns from the ZDApp
//  967   ZDO_RegisterForZDOMsg( sapi_TaskID, NWK_addr_rsp );
        ; Setup parameters for call to function ZDO_RegisterForZDOMsg
        MOV     R2,#0x0
        MOV     R3,#-0x80
        MOV     DPTR,#sapi_TaskID
        MOVX    A,@DPTR
        MOV     R1,A
        LCALL   ??ZDO_RegisterForZDOMsg?relay
        MOV     A,R1
//  968   ZDO_RegisterForZDOMsg( sapi_TaskID, Match_Desc_rsp );
        ; Setup parameters for call to function ZDO_RegisterForZDOMsg
        MOV     R2,#0x6
        MOV     R3,#-0x80
        MOV     DPTR,#sapi_TaskID
        MOVX    A,@DPTR
        MOV     R1,A
        LCALL   ??ZDO_RegisterForZDOMsg?relay
        MOV     A,R1
//  969   
//  970 #if ( SAPI_CB_FUNC )
//  971 #if (defined HAL_KEY) && (HAL_KEY == TRUE)
//  972   // Register for HAL events
//  973   RegisterForKeys( sapi_TaskID );
        ; Setup parameters for call to function RegisterForKeys
        MOV     DPTR,#sapi_TaskID
        MOVX    A,@DPTR
        MOV     R1,A
        LCALL   ??RegisterForKeys?relay
        MOV     A,R1
//  974   
//  975   if ( HalKeyRead () == HAL_KEY_SW_5)
        ; Setup parameters for call to function HalKeyRead
        LCALL   ??HalKeyRead?relay
        MOV     A,R1
        XRL     A,#0x4
        JNZ     ??SAPI_Init_0
//  976   {
//  977     // If SW5 is pressed and held while powerup, force auto-start and nv-restore off and reset
//  978     uint8 startOptions = ZCD_STARTOPT_CLEAR_STATE | ZCD_STARTOPT_CLEAR_CONFIG;
        MOV     DPL,?XSP + 0
        MOV     DPH,?XSP + 1
        MOV     A,#0x3
        MOVX    @DPTR,A
//  979     zb_WriteConfiguration( ZCD_NV_STARTUP_OPTION, sizeof(uint8), &startOptions );
        ; Setup parameters for call to function zb_WriteConfiguration
        MOV     DPL,?XSP + 0
        MOV     DPH,?XSP + 1
        MOV     R4,DPL
        MOV     R5,DPH
        MOV     R2,#0x1
        MOV     R1,#0x3
        LCALL   ??zb_WriteConfiguration?relay
        MOV     A,R1
//  980     zb_SystemReset();
        ; Setup parameters for call to function zb_SystemReset
        LCALL   ??zb_SystemReset?relay
//  981   }
//  982 #endif // HAL_KEY
//  983   
//  984   // Set an event to start the application
//  985   osal_set_event(task_id, ZB_ENTRY_EVENT);
??SAPI_Init_0:
        ; Setup parameters for call to function osal_set_event
        MOV     R2,#0x0
        MOV     R3,#0x10
        MOV     A,R6
        MOV     R1,A
        LCALL   ??osal_set_event?relay
        MOV     A,R1
//  986 #endif
//  987 }
        MOV     A,#0x1
        LCALL   ?DEALLOC_XSTACK8
        CFI CFA_XSP16 add(XSP16, 9)
        MOV     R7,#0x1
        LJMP    ?BANKED_LEAVE_XDATA
        CFI EndBlock cfiBlock18
//  988 /*********************************************************************
//  989 * @fn      SAPI_SendCback
//  990 *
//  991 * @brief   Sends a message to the sapi task ( itself ) so that a
//  992 *           callback can be generated later.
//  993 *
//  994 * @return  none
//  995 */

        RSEG BANKED_CODE:CODE:NOROOT(0)
//  996 void SAPI_SendCback( uint8 event, uint8 status, uint16 data )
SAPI_SendCback:
        CFI Block cfiBlock19 Using cfiCommon0
        CFI Function SAPI_SendCback
        CODE
//  997 {
        FUNCALL SAPI_SendCback, osal_msg_allocate
        LOCFRAME ISTACK, 0, STACK
        LOCFRAME PSTACK, 0, STACK
        LOCFRAME XSTACK, 14, STACK
        LOCFRAME IOVERLAY, 0, STATIC
        LOCFRAME DOVERLAY, 0, STATIC
        ARGFRAME ISTACK, 0, STACK
        ARGFRAME PSTACK, 0, STACK
        ARGFRAME XSTACK, 14, STACK
        ARGFRAME IOVERLAY, 0, STATIC
        ARGFRAME DOVERLAY, 0, STATIC
        FUNCALL SAPI_SendCback, osal_msg_send
        LOCFRAME ISTACK, 0, STACK
        LOCFRAME PSTACK, 0, STACK
        LOCFRAME XSTACK, 14, STACK
        LOCFRAME IOVERLAY, 0, STATIC
        LOCFRAME DOVERLAY, 0, STATIC
        ARGFRAME ISTACK, 0, STACK
        ARGFRAME PSTACK, 0, STACK
        ARGFRAME XSTACK, 14, STACK
        ARGFRAME IOVERLAY, 0, STATIC
        ARGFRAME DOVERLAY, 0, STATIC
        MOV     A,#-0xe
        LCALL   ?BANKED_ENTER_XDATA
        CFI DPH0 load(1, XDATA, add(CFA_XSP16, literal(-1)))
        CFI DPL0 load(1, XDATA, add(CFA_XSP16, literal(-2)))
        CFI ?BRET_EXT load(1, XDATA, add(CFA_XSP16, literal(-3)))
        CFI ?RET_HIGH load(1, XDATA, add(CFA_XSP16, literal(-4)))
        CFI ?RET_LOW load(1, XDATA, add(CFA_XSP16, literal(-5)))
        CFI R7 load(1, XDATA, add(CFA_XSP16, literal(-6)))
        CFI V5 load(1, XDATA, add(CFA_XSP16, literal(-7)))
        CFI V4 load(1, XDATA, add(CFA_XSP16, literal(-8)))
        CFI V3 load(1, XDATA, add(CFA_XSP16, literal(-9)))
        CFI V2 load(1, XDATA, add(CFA_XSP16, literal(-10)))
        CFI V1 load(1, XDATA, add(CFA_XSP16, literal(-11)))
        CFI V0 load(1, XDATA, add(CFA_XSP16, literal(-12)))
        CFI VB load(1, XDATA, add(CFA_XSP16, literal(-13)))
        CFI R6 load(1, XDATA, add(CFA_XSP16, literal(-14)))
        CFI CFA_SP SP+0
        CFI CFA_XSP16 add(XSP16, 14)
        ; Saved register size: 14
        ; Auto size: 0
        MOV     ?V0 + 2,R1
        MOV     ?V0 + 3,R2
        MOV     ?V0 + 0,R4
        MOV     ?V0 + 1,R5
//  998   sapi_CbackEvent_t *pMsg;
//  999   
// 1000   pMsg = (sapi_CbackEvent_t *)osal_msg_allocate( sizeof(sapi_CbackEvent_t) );
        ; Setup parameters for call to function osal_msg_allocate
        MOV     R2,#0x4
        MOV     R3,#0x0
        LCALL   ??osal_msg_allocate?relay
        MOV     ?V0 + 4,R2
        MOV     ?V0 + 5,R3
        MOV     R6,?V0 + 4
        MOV     R7,?V0 + 5
// 1001   if( pMsg )
        MOV     A,R6
        ORL     A,R7
        JZ      ??SAPI_SendCback_0
// 1002   {
// 1003     pMsg->hdr.event = event;
        MOV     A,?V0 + 2
        MOV     DPL,R6
        MOV     DPH,R7
        MOV     A,?V0 + 2
        MOVX    @DPTR,A
// 1004     pMsg->hdr.status = status;
        MOV     A,?V0 + 3
        MOV     DPL,R6
        MOV     DPH,R7
        INC     DPTR
        MOV     A,?V0 + 3
        MOVX    @DPTR,A
// 1005     pMsg->data = data;
        MOV     DPL,R6
        MOV     DPH,R7
        INC     DPTR
        INC     DPTR
        MOV     A,?V0 + 0
        MOVX    @DPTR,A
        INC     DPTR
        MOV     A,?V0 + 1
        MOVX    @DPTR,A
// 1006     
// 1007     osal_msg_send( sapi_TaskID, (uint8 *)pMsg );
        ; Setup parameters for call to function osal_msg_send
        MOV     A,R6
        MOV     R2,A
        MOV     A,R7
        MOV     R3,A
        MOV     DPTR,#sapi_TaskID
        MOVX    A,@DPTR
        MOV     R1,A
        LCALL   ??osal_msg_send?relay
        MOV     A,R1
// 1008   }
// 1009   
// 1010 }
??SAPI_SendCback_0:
        MOV     R7,#0x6
        LJMP    ?BANKED_LEAVE_XDATA
        CFI EndBlock cfiBlock19
// 1011 
// 1012 #if OSAL_SAPI
// 1013 /*********************************************************************
// 1014 * @fn      osalInitTasks
// 1015 *
// 1016 * @brief   This function invokes the initialization function for each task.
// 1017 *
// 1018 * @param   void
// 1019 *
// 1020 * @return  none
// 1021 */

        RSEG BANKED_CODE:CODE:NOROOT(0)
// 1022 void osalInitTasks( void )
osalInitTasks:
        CFI Block cfiBlock20 Using cfiCommon0
        CFI Function osalInitTasks
        CODE
// 1023 {
        FUNCALL osalInitTasks, osal_mem_alloc
        LOCFRAME ISTACK, 0, STACK
        LOCFRAME PSTACK, 0, STACK
        LOCFRAME XSTACK, 9, STACK
        LOCFRAME IOVERLAY, 0, STATIC
        LOCFRAME DOVERLAY, 0, STATIC
        ARGFRAME ISTACK, 0, STACK
        ARGFRAME PSTACK, 0, STACK
        ARGFRAME XSTACK, 9, STACK
        ARGFRAME IOVERLAY, 0, STATIC
        ARGFRAME DOVERLAY, 0, STATIC
        FUNCALL osalInitTasks, osal_memset
        LOCFRAME ISTACK, 0, STACK
        LOCFRAME PSTACK, 0, STACK
        LOCFRAME XSTACK, 9, STACK
        LOCFRAME IOVERLAY, 0, STATIC
        LOCFRAME DOVERLAY, 0, STATIC
        ARGFRAME ISTACK, 0, STACK
        ARGFRAME PSTACK, 0, STACK
        ARGFRAME XSTACK, 9, STACK
        ARGFRAME IOVERLAY, 0, STATIC
        ARGFRAME DOVERLAY, 0, STATIC
        FUNCALL osalInitTasks, macTaskInit
        LOCFRAME ISTACK, 0, STACK
        LOCFRAME PSTACK, 0, STACK
        LOCFRAME XSTACK, 9, STACK
        LOCFRAME IOVERLAY, 0, STATIC
        LOCFRAME DOVERLAY, 0, STATIC
        ARGFRAME ISTACK, 0, STACK
        ARGFRAME PSTACK, 0, STACK
        ARGFRAME XSTACK, 9, STACK
        ARGFRAME IOVERLAY, 0, STATIC
        ARGFRAME DOVERLAY, 0, STATIC
        FUNCALL osalInitTasks, nwk_init
        LOCFRAME ISTACK, 0, STACK
        LOCFRAME PSTACK, 0, STACK
        LOCFRAME XSTACK, 9, STACK
        LOCFRAME IOVERLAY, 0, STATIC
        LOCFRAME DOVERLAY, 0, STATIC
        ARGFRAME ISTACK, 0, STACK
        ARGFRAME PSTACK, 0, STACK
        ARGFRAME XSTACK, 9, STACK
        ARGFRAME IOVERLAY, 0, STATIC
        ARGFRAME DOVERLAY, 0, STATIC
        FUNCALL osalInitTasks, Hal_Init
        LOCFRAME ISTACK, 0, STACK
        LOCFRAME PSTACK, 0, STACK
        LOCFRAME XSTACK, 9, STACK
        LOCFRAME IOVERLAY, 0, STATIC
        LOCFRAME DOVERLAY, 0, STATIC
        ARGFRAME ISTACK, 0, STACK
        ARGFRAME PSTACK, 0, STACK
        ARGFRAME XSTACK, 9, STACK
        ARGFRAME IOVERLAY, 0, STATIC
        ARGFRAME DOVERLAY, 0, STATIC
        FUNCALL osalInitTasks, APS_Init
        LOCFRAME ISTACK, 0, STACK
        LOCFRAME PSTACK, 0, STACK
        LOCFRAME XSTACK, 9, STACK
        LOCFRAME IOVERLAY, 0, STATIC
        LOCFRAME DOVERLAY, 0, STATIC
        ARGFRAME ISTACK, 0, STACK
        ARGFRAME PSTACK, 0, STACK
        ARGFRAME XSTACK, 9, STACK
        ARGFRAME IOVERLAY, 0, STATIC
        ARGFRAME DOVERLAY, 0, STATIC
        FUNCALL osalInitTasks, ZDApp_Init
        LOCFRAME ISTACK, 0, STACK
        LOCFRAME PSTACK, 0, STACK
        LOCFRAME XSTACK, 9, STACK
        LOCFRAME IOVERLAY, 0, STATIC
        LOCFRAME DOVERLAY, 0, STATIC
        ARGFRAME ISTACK, 0, STACK
        ARGFRAME PSTACK, 0, STACK
        ARGFRAME XSTACK, 9, STACK
        ARGFRAME IOVERLAY, 0, STATIC
        ARGFRAME DOVERLAY, 0, STATIC
        FUNCALL osalInitTasks, SAPI_Init
        LOCFRAME ISTACK, 0, STACK
        LOCFRAME PSTACK, 0, STACK
        LOCFRAME XSTACK, 9, STACK
        LOCFRAME IOVERLAY, 0, STATIC
        LOCFRAME DOVERLAY, 0, STATIC
        ARGFRAME ISTACK, 0, STACK
        ARGFRAME PSTACK, 0, STACK
        ARGFRAME XSTACK, 9, STACK
        ARGFRAME IOVERLAY, 0, STATIC
        ARGFRAME DOVERLAY, 0, STATIC
        MOV     A,#-0x9
        LCALL   ?BANKED_ENTER_XDATA
        CFI DPH0 load(1, XDATA, add(CFA_XSP16, literal(-1)))
        CFI DPL0 load(1, XDATA, add(CFA_XSP16, literal(-2)))
        CFI ?BRET_EXT load(1, XDATA, add(CFA_XSP16, literal(-3)))
        CFI ?RET_HIGH load(1, XDATA, add(CFA_XSP16, literal(-4)))
        CFI ?RET_LOW load(1, XDATA, add(CFA_XSP16, literal(-5)))
        CFI R7 load(1, XDATA, add(CFA_XSP16, literal(-6)))
        CFI V0 load(1, XDATA, add(CFA_XSP16, literal(-7)))
        CFI VB load(1, XDATA, add(CFA_XSP16, literal(-8)))
        CFI R6 load(1, XDATA, add(CFA_XSP16, literal(-9)))
        CFI CFA_SP SP+0
        CFI CFA_XSP16 add(XSP16, 9)
        ; Saved register size: 9
        ; Auto size: 0
// 1024   uint8 taskID = 0;
        MOV     R6,#0x0
// 1025   
// 1026   tasksEvents = (uint16 *)osal_mem_alloc( sizeof( uint16 ) * tasksCnt);
        ; Setup parameters for call to function osal_mem_alloc
        MOV     DPTR,#tasksCnt
        MOVX    A,@DPTR
        MOV     R2,A
        MOV     R3,#0x0
        MOV     A,R2
        MOV     B,#0x2
        MUL     AB
        XCH     A,R2
        MOV     R0,B
        MOV     B,#0x0
        MUL     AB
        ADD     A,R0
        MOV     R0,A
        MOV     B,#0x2
        MOV     A,R3
        MUL     AB
        ADD     A,R0
        MOV     R3,A
        LCALL   ??osal_mem_alloc?relay
        MOV     DPTR,#tasksEvents
        MOV     A,R2
        MOVX    @DPTR,A
        INC     DPTR
        MOV     A,R3
        MOVX    @DPTR,A
// 1027   osal_memset( tasksEvents, 0, (sizeof( uint16 ) * tasksCnt));
        ; Setup parameters for call to function osal_memset
        MOV     DPTR,#tasksCnt
        MOVX    A,@DPTR
        MOV     R4,A
        MOV     R5,#0x0
        MOV     A,R4
        MOV     B,#0x2
        MUL     AB
        XCH     A,R4
        MOV     R0,B
        MOV     B,#0x0
        MUL     AB
        ADD     A,R0
        MOV     R0,A
        MOV     B,#0x2
        MOV     A,R5
        MUL     AB
        ADD     A,R0
        MOV     R5,A
        MOV     R1,#0x0
        MOV     DPTR,#tasksEvents
        MOVX    A,@DPTR
        MOV     R2,A
        INC     DPTR
        MOVX    A,@DPTR
        MOV     R3,A
        LCALL   ??osal_memset?relay
// 1028   
// 1029   macTaskInit( taskID++ );
        ; Setup parameters for call to function macTaskInit
        MOV     A,R6
        MOV     R1,A
        LCALL   ??macTaskInit?relay
        INC     R6
// 1030   nwk_init( taskID++ );
        ; Setup parameters for call to function nwk_init
        MOV     A,R6
        MOV     R1,A
        LCALL   ??nwk_init?relay
        INC     R6
// 1031   Hal_Init( taskID++ );
        ; Setup parameters for call to function Hal_Init
        MOV     A,R6
        MOV     R1,A
        LCALL   ??Hal_Init?relay
        INC     R6
// 1032 #if defined( MT_TASK )
// 1033   MT_TaskInit( taskID++ );
// 1034 #endif
// 1035   APS_Init( taskID++ );
        ; Setup parameters for call to function APS_Init
        MOV     A,R6
        MOV     R1,A
        LCALL   ??APS_Init?relay
        INC     R6
// 1036   ZDApp_Init( taskID++ );
        ; Setup parameters for call to function ZDApp_Init
        MOV     A,R6
        MOV     R1,A
        LCALL   ??ZDApp_Init?relay
        INC     R6
// 1037   SAPI_Init( taskID );
        ; Setup parameters for call to function SAPI_Init
        MOV     A,R6
        MOV     R1,A
        LCALL   ??SAPI_Init?relay
// 1038 }
        MOV     R7,#0x1
        LJMP    ?BANKED_LEAVE_XDATA
        CFI EndBlock cfiBlock20

        RSEG BANK_RELAYS:CODE:REORDER:NOROOT(0)
??zb_SystemReset?relay:
        LCALL   ?BDISPATCH
        DATA
        DC24    zb_SystemReset

        RSEG BANK_RELAYS:CODE:REORDER:NOROOT(0)
??zb_StartRequest?relay:
        LCALL   ?BDISPATCH
        DATA
        DC24    zb_StartRequest

        RSEG BANK_RELAYS:CODE:REORDER:NOROOT(0)
??zb_BindDevice?relay:
        LCALL   ?BDISPATCH
        DATA
        DC24    zb_BindDevice

        RSEG BANK_RELAYS:CODE:REORDER:NOROOT(0)
??zb_PermitJoiningRequest?relay:
        LCALL   ?BDISPATCH
        DATA
        DC24    zb_PermitJoiningRequest

        RSEG BANK_RELAYS:CODE:REORDER:NOROOT(0)
??zb_AllowBind?relay:
        LCALL   ?BDISPATCH
        DATA
        DC24    zb_AllowBind

        RSEG BANK_RELAYS:CODE:REORDER:NOROOT(0)
??zb_SendDataRequest?relay:
        LCALL   ?BDISPATCH
        DATA
        DC24    zb_SendDataRequest

        RSEG BANK_RELAYS:CODE:REORDER:NOROOT(0)
??zb_ReadConfiguration?relay:
        LCALL   ?BDISPATCH
        DATA
        DC24    zb_ReadConfiguration

        RSEG BANK_RELAYS:CODE:REORDER:NOROOT(0)
??zb_WriteConfiguration?relay:
        LCALL   ?BDISPATCH
        DATA
        DC24    zb_WriteConfiguration

        RSEG BANK_RELAYS:CODE:REORDER:NOROOT(0)
??zb_GetDeviceInfo?relay:
        LCALL   ?BDISPATCH
        DATA
        DC24    zb_GetDeviceInfo

        RSEG BANK_RELAYS:CODE:REORDER:NOROOT(0)
??zb_FindDeviceRequest?relay:
        LCALL   ?BDISPATCH
        DATA
        DC24    zb_FindDeviceRequest

        RSEG BANK_RELAYS:CODE:REORDER:NOROOT(0)
??SAPI_StartConfirm?relay:
        LCALL   ?BDISPATCH
        DATA
        DC24    SAPI_StartConfirm

        RSEG BANK_RELAYS:CODE:REORDER:NOROOT(0)
??SAPI_SendDataConfirm?relay:
        LCALL   ?BDISPATCH
        DATA
        DC24    SAPI_SendDataConfirm

        RSEG BANK_RELAYS:CODE:REORDER:NOROOT(0)
??SAPI_BindConfirm?relay:
        LCALL   ?BDISPATCH
        DATA
        DC24    SAPI_BindConfirm

        RSEG BANK_RELAYS:CODE:REORDER:NOROOT(0)
??SAPI_AllowBindConfirm?relay:
        LCALL   ?BDISPATCH
        DATA
        DC24    SAPI_AllowBindConfirm

        RSEG BANK_RELAYS:CODE:REORDER:NOROOT(0)
??SAPI_FindDeviceConfirm?relay:
        LCALL   ?BDISPATCH
        DATA
        DC24    SAPI_FindDeviceConfirm

        RSEG BANK_RELAYS:CODE:REORDER:NOROOT(0)
??SAPI_ReceiveDataIndication?relay:
        LCALL   ?BDISPATCH
        DATA
        DC24    SAPI_ReceiveDataIndication

        RSEG BANK_RELAYS:CODE:REORDER:NOROOT(0)
??SAPI_ProcessEvent?relay:
        LCALL   ?BDISPATCH
        DATA
        DC24    SAPI_ProcessEvent

        RSEG BANK_RELAYS:CODE:REORDER:NOROOT(0)
??SAPI_ProcessZDOMsgs?relay:
        LCALL   ?BDISPATCH
        DATA
        DC24    SAPI_ProcessZDOMsgs

        RSEG BANK_RELAYS:CODE:REORDER:NOROOT(0)
??SAPI_Init?relay:
        LCALL   ?BDISPATCH
        DATA
        DC24    SAPI_Init

        RSEG BANK_RELAYS:CODE:REORDER:NOROOT(0)
??SAPI_SendCback?relay:
        LCALL   ?BDISPATCH
        DATA
        DC24    SAPI_SendCback

        RSEG BANK_RELAYS:CODE:REORDER:NOROOT(0)
??osalInitTasks?relay:
        LCALL   ?BDISPATCH
        DATA
        DC24    osalInitTasks

        END
// 1039 #endif
// 1040 
// 1041 /*********************************************************************
// 1042 *********************************************************************/
// 1043 
// 
// 3 129 bytes in segment BANKED_CODE
//   126 bytes in segment BANK_RELAYS
//    13 bytes in segment XDATA_ROM_C
//    11 bytes in segment XDATA_Z
// 
// 3 255 bytes of CODE  memory
//    13 bytes of CONST memory
//    11 bytes of XDATA memory
//
//Errors: none
//Warnings: none
